---
triple:          'arm64-apple-darwin'
binary-path:     test-TestStaticVector.out
relocations:
  - { offset: 0x1D3, size: 0x8, addend: 0x0, symName: __ZN5Catch12_GLOBAL__N_142catch_internal_RegistrarForCompactReporterE, symObjAddr: 0x7292C0, symBinAddr: 0x1001182C0, symSize: 0x0 }
  - { offset: 0x1ED, size: 0x8, addend: 0x0, symName: __ZN5Catch12_GLOBAL__N_142catch_internal_RegistrarForConsoleReporterE, symObjAddr: 0x7292C1, symBinAddr: 0x1001182C1, symSize: 0x0 }
  - { offset: 0x26E, size: 0x8, addend: 0x0, symName: __ZN5Catch12_GLOBAL__N_140catch_internal_RegistrarForJunitReporterE, symObjAddr: 0x7292C2, symBinAddr: 0x1001182C2, symSize: 0x0 }
  - { offset: 0x288, size: 0x8, addend: 0x0, symName: __ZN5Catch12_GLOBAL__N_138catch_internal_RegistrarForXmlReporterE, symObjAddr: 0x7292C3, symBinAddr: 0x1001182C3, symSize: 0x0 }
  - { offset: 0x35E, size: 0x8, addend: 0x0, symName: __ZN5Catch12_GLOBAL__N_113getSingletonsEv, symObjAddr: 0x17D78, symBinAddr: 0x10001868C, symSize: 0x58 }
  - { offset: 0x389, size: 0x8, addend: 0x0, symName: __ZZN5Catch12_GLOBAL__N_113getSingletonsEvE12g_singletons, symObjAddr: 0x7292D0, symBinAddr: 0x1001182D0, symSize: 0x0 }
  - { offset: 0x393, size: 0x8, addend: 0x0, symName: __ZN5Catch12_GLOBAL__N_123estimateClockResolutionEv, symObjAddr: 0x20728, symBinAddr: 0x10002103C, symSize: 0x104 }
  - { offset: 0x3BE, size: 0x8, addend: 0x0, symName: __ZZN5Catch12_GLOBAL__N_123estimateClockResolutionEvE10iterations, symObjAddr: 0x1014D0, symBinAddr: 0x1001029A0, symSize: 0x0 }
  - { offset: 0x657, size: 0x8, addend: 0x0, symName: __ZN5Catch12_GLOBAL__N_1lsERNSt3__113basic_ostreamIcNS1_11char_traitsIcEEEERKNS_20ITransientExpressionE, symObjAddr: 0xC2C, symBinAddr: 0x100001540, symSize: 0x38 }
  - { offset: 0x694, size: 0x8, addend: 0x0, symName: __ZN5Catch12_GLOBAL__N_122platformColourInstanceEv, symObjAddr: 0x6D00, symBinAddr: 0x100007614, symSize: 0x178 }
  - { offset: 0x6E0, size: 0x8, addend: 0x0, symName: __ZN5Catch12_GLOBAL__N_115almostEqualUlpsIfEEbT_S2_y, symObjAddr: 0xDEDC, symBinAddr: 0x10000E7F0, symSize: 0x104 }
  - { offset: 0x762, size: 0x8, addend: 0x0, symName: __ZN5Catch12_GLOBAL__N_115almostEqualUlpsIdEEbT_S2_y, symObjAddr: 0xDFE0, symBinAddr: 0x10000E8F4, symSize: 0x104 }
  - { offset: 0x7E4, size: 0x8, addend: 0x0, symName: __ZN5Catch12_GLOBAL__N_15writeIfEEvRNSt3__113basic_ostreamIcNS2_11char_traitsIcEEEET_, symObjAddr: 0xE51C, symBinAddr: 0x10000EE30, symSize: 0x58 }
  - { offset: 0x826, size: 0x8, addend: 0x0, symName: __ZN5Catch12_GLOBAL__N_15writeIdEEvRNSt3__113basic_ostreamIcNS2_11char_traitsIcEEEET_, symObjAddr: 0xE574, symBinAddr: 0x10000EE88, symSize: 0x58 }
  - { offset: 0x868, size: 0x8, addend: 0x0, symName: __ZN5Catch12_GLOBAL__N_14stepIdEET_S2_S2_y, symObjAddr: 0xE5CC, symBinAddr: 0x10000EEE0, symSize: 0x6C }
  - { offset: 0x8DA, size: 0x8, addend: 0x0, symName: __ZN5Catch12_GLOBAL__N_14stepIfEET_S2_S2_y, symObjAddr: 0xE638, symBinAddr: 0x10000EF4C, symSize: 0x6C }
  - { offset: 0x94C, size: 0x8, addend: 0x0, symName: __ZN5Catch12_GLOBAL__N_116marginComparisonEddd, symObjAddr: 0xEA30, symBinAddr: 0x10000F344, symSize: 0x68 }
  - { offset: 0x998, size: 0x8, addend: 0x0, symName: __ZN5Catch12_GLOBAL__N_112rotate_rightEjj, symObjAddr: 0x117D8, symBinAddr: 0x1000120EC, symSize: 0x50 }
  - { offset: 0x9E4, size: 0x8, addend: 0x0, symName: __ZN5Catch12_GLOBAL__N_120applyFilenamesAsTagsERKNS_7IConfigE, symObjAddr: 0x176F0, symBinAddr: 0x100018004, symSize: 0x1FC }
  - { offset: 0xB25, size: 0x8, addend: 0x0, symName: __ZN5Catch12_GLOBAL__N_19toLowerChEc, symObjAddr: 0x18B24, symBinAddr: 0x100019438, symSize: 0x28 }
  - { offset: 0xB53, size: 0x8, addend: 0x0, symName: __ZN5Catch12_GLOBAL__N_115parseSpecialTagERKNSt3__112basic_stringIcNS1_11char_traitsIcEENS1_9allocatorIcEEEE, symObjAddr: 0x1A328, symBinAddr: 0x10001AC3C, symSize: 0x114 }
  - { offset: 0xB81, size: 0x8, addend: 0x0, symName: __ZN5Catch12_GLOBAL__N_121enforceNotReservedTagERKNSt3__112basic_stringIcNS1_11char_traitsIcEENS1_9allocatorIcEEEERKNS_14SourceLineInfoE, symObjAddr: 0x1A43C, symBinAddr: 0x10001AD50, symSize: 0x110 }
  - { offset: 0xC0D, size: 0x8, addend: 0x0, symName: __ZN5Catch12_GLOBAL__N_113hexEscapeCharERNSt3__113basic_ostreamIcNS1_11char_traitsIcEEEEh, symObjAddr: 0x22BBC, symBinAddr: 0x1000234D0, symSize: 0xC0 }
  - { offset: 0xC55, size: 0x8, addend: 0x0, symName: __ZN5Catch12_GLOBAL__N_113trailingBytesEh, symObjAddr: 0x22C7C, symBinAddr: 0x100023590, symSize: 0x150 }
  - { offset: 0xC83, size: 0x8, addend: 0x0, symName: __ZN5Catch12_GLOBAL__N_111headerValueEh, symObjAddr: 0x22DCC, symBinAddr: 0x1000236E0, symSize: 0x15C }
  - { offset: 0xCB1, size: 0x8, addend: 0x0, symName: __ZN5Catch12_GLOBAL__N_112shouldIndentENS_13XmlFormattingE, symObjAddr: 0x236C0, symBinAddr: 0x100023FD4, symSize: 0x34 }
  - { offset: 0xCDF, size: 0x8, addend: 0x0, symName: __ZN5Catch12_GLOBAL__N_113shouldNewlineENS_13XmlFormattingE, symObjAddr: 0x23AF4, symBinAddr: 0x100024408, symSize: 0x34 }
  - { offset: 0xE6A, size: 0x8, addend: 0x0, symName: __ZN5Catch12_GLOBAL__N_111printTotalsERNSt3__113basic_ostreamIcNS1_11char_traitsIcEEEERKNS_6TotalsE, symObjAddr: 0x24C04, symBinAddr: 0x100025518, symSize: 0x7A8 }
  - { offset: 0x103A, size: 0x8, addend: 0x0, symName: __ZN5Catch12_GLOBAL__N_19makeRatioEmm, symObjAddr: 0x286D0, symBinAddr: 0x100028FE4, symSize: 0x9C }
  - { offset: 0x1086, size: 0x8, addend: 0x0, symName: __ZN5Catch12_GLOBAL__N_17findMaxERmS1_S1_, symObjAddr: 0x2876C, symBinAddr: 0x100029080, symSize: 0xA0 }
  - { offset: 0x10D2, size: 0x8, addend: 0x0, symName: __ZN5Catch12_GLOBAL__N_114formatDurationEd, symObjAddr: 0x2A090, symBinAddr: 0x10002A9A4, symSize: 0xBC }
  - { offset: 0x110F, size: 0x8, addend: 0x0, symName: __ZN5Catch12_GLOBAL__N_119getCurrentTimestampEv, symObjAddr: 0x2A14C, symBinAddr: 0x10002AA60, symSize: 0xAC }
  - { offset: 0x1179, size: 0x8, addend: 0x0, symName: __ZN5Catch12_GLOBAL__N_111fileNameTagERKNSt3__16vectorINS1_12basic_stringIcNS1_11char_traitsIcEENS1_9allocatorIcEEEENS6_IS8_EEEE, symObjAddr: 0x2A6CC, symBinAddr: 0x10002AFE0, symSize: 0xA0 }
  - { offset: 0x11D5, size: 0x8, addend: 0x0, symName: __ZN5Catch12_GLOBAL__N_119useColourOnPlatformEv, symObjAddr: 0x3FE30, symBinAddr: 0x100040744, symSize: 0x4C }
  - { offset: 0x11F3, size: 0x8, addend: 0x0, symName: __ZN5Catch12_GLOBAL__N_112makeReporterERKNSt3__110shared_ptrINS_6ConfigEEE, symObjAddr: 0x68098, symBinAddr: 0x1000689AC, symSize: 0x330 }
  - { offset: 0x1294, size: 0x8, addend: 0x0, symName: __ZN5Catch12_GLOBAL__N_114createReporterERKNSt3__112basic_stringIcNS1_11char_traitsIcEENS1_9allocatorIcEEEERKNS1_10shared_ptrIKNS_7IConfigEEE, symObjAddr: 0x68708, symBinAddr: 0x10006901C, symSize: 0x16C }
  - { offset: 0x12E1, size: 0x8, addend: 0x0, symName: __ZN5Catch12_GLOBAL__N_113isReservedTagERKNSt3__112basic_stringIcNS1_11char_traitsIcEENS1_9allocatorIcEEEE, symObjAddr: 0x7271C, symBinAddr: 0x100073030, symSize: 0x88 }
  - { offset: 0x130F, size: 0x8, addend: 0x0, symName: __ZN5Catch12_GLOBAL__N_17convertEf, symObjAddr: 0xAF9E4, symBinAddr: 0x1000B02F8, symSize: 0x1C }
  - { offset: 0x134C, size: 0x8, addend: 0x0, symName: __ZN5Catch12_GLOBAL__N_17convertEd, symObjAddr: 0xAFA18, symBinAddr: 0x1000B032C, symSize: 0x1C }
  - { offset: 0x1389, size: 0x8, addend: 0x0, symName: __ZN5Catch12_GLOBAL__N_19nextafterEdd, symObjAddr: 0xAFB5C, symBinAddr: 0x1000B0470, symSize: 0x2C }
  - { offset: 0x13C6, size: 0x8, addend: 0x0, symName: __ZN5Catch12_GLOBAL__N_19nextafterEff, symObjAddr: 0xAFB88, symBinAddr: 0x1000B049C, symSize: 0x2C }
  - { offset: 0x1414, size: 0x8, addend: 0x0, symName: __ZN5Catch15IMutableContext14currentContextE, symObjAddr: 0x7292E0, symBinAddr: 0x1001182E0, symSize: 0x0 }
  - { offset: 0x1CDC, size: 0x8, addend: 0x0, symName: __ZN5Catch10Generators23acquireGeneratorTrackerENS_9StringRefERKNS_14SourceLineInfoE, symObjAddr: 0x9594, symBinAddr: 0x100009EA8, symSize: 0x48 }
  - { offset: 0x37E4, size: 0x8, addend: 0x0, symName: __ZN5Catch3rngEv, symObjAddr: 0x7114, symBinAddr: 0x100007A28, symSize: 0xA0 }
  - { offset: 0x380F, size: 0x8, addend: 0x0, symName: __ZZN5Catch3rngEvE5s_rng, symObjAddr: 0x7291E8, symBinAddr: 0x1001181E8, symSize: 0x0 }
  - { offset: 0x38E5, size: 0x8, addend: 0x0, symName: __ZN5Catch11MessageInfo11globalCountE, symObjAddr: 0x7292E8, symBinAddr: 0x1001182E8, symSize: 0x0 }
  - { offset: 0x5CDD, size: 0x8, addend: 0x0, symName: __ZN5Catch5clara6detaillsERNSt3__113basic_ostreamIcNS2_11char_traitsIcEEEERKNS1_6ParserE, symObjAddr: 0x167B4, symBinAddr: 0x1000170C8, symSize: 0x30 }
  - { offset: 0x5D1A, size: 0x8, addend: 0x0, symName: __ZN5Catch5clara6detail11convertIntoERKNSt3__112basic_stringIcNS2_11char_traitsIcEENS2_9allocatorIcEEEERS8_, symObjAddr: 0x36070, symBinAddr: 0x100036984, symSize: 0x44 }
  - { offset: 0x5F00, size: 0x8, addend: 0x0, symName: __ZN5Catch5clara6detail12normaliseOptERKNSt3__112basic_stringIcNS2_11char_traitsIcEENS2_9allocatorIcEEEE, symObjAddr: 0x38CD0, symBinAddr: 0x1000395E4, symSize: 0x38 }
  - { offset: 0x5F2E, size: 0x8, addend: 0x0, symName: __ZN5Catch5clara6detail11isOptPrefixEc, symObjAddr: 0x39938, symBinAddr: 0x10003A24C, symSize: 0x20 }
  - { offset: 0x5F5C, size: 0x8, addend: 0x0, symName: '__ZN5Catch5clara6detail12invokeLambdaINSt3__112basic_stringIcNS3_11char_traitsIcEENS3_9allocatorIcEEEEZNS_21makeCommandLineParserERNS_10ConfigDataEE3$_0EENS1_11BasicResultINS1_15ParseResultTypeEEERKT0_RKS9_', symObjAddr: 0x9D158, symBinAddr: 0x10009DA6C, symSize: 0xD0 }
  - { offset: 0x6060, size: 0x8, addend: 0x0, symName: '__ZN5Catch5clara6detail12invokeLambdaIiZNS_21makeCommandLineParserERNS_10ConfigDataEE3$_2EENS1_11BasicResultINS1_15ParseResultTypeEEERKT0_RKNSt3__112basic_stringIcNSC_11char_traitsIcEENSC_9allocatorIcEEEE', symObjAddr: 0x9F1EC, symBinAddr: 0x10009FB00, symSize: 0xA4 }
  - { offset: 0x60CD, size: 0x8, addend: 0x0, symName: __ZN5Catch5clara6detail11convertIntoIiEENS1_11BasicResultINS1_15ParseResultTypeEEERKNSt3__112basic_stringIcNS6_11char_traitsIcEENS6_9allocatorIcEEEERT_, symObjAddr: 0x9F290, symBinAddr: 0x10009FBA4, symSize: 0x164 }
  - { offset: 0x6123, size: 0x8, addend: 0x0, symName: '__ZN5Catch5clara6detail12invokeLambdaINSt3__112basic_stringIcNS3_11char_traitsIcEENS3_9allocatorIcEEEEZNS_21makeCommandLineParserERNS_10ConfigDataEE3$_3EENS1_11BasicResultINS1_15ParseResultTypeEEERKT0_RKS9_', symObjAddr: 0xA0204, symBinAddr: 0x1000A0B18, symSize: 0xD0 }
  - { offset: 0x6190, size: 0x8, addend: 0x0, symName: '__ZN5Catch5clara6detail12invokeLambdaIbZNS_21makeCommandLineParserERNS_10ConfigDataEE3$_4EENS1_11BasicResultINS1_15ParseResultTypeEEERKT0_RKNSt3__112basic_stringIcNSC_11char_traitsIcEENSC_9allocatorIcEEEE', symObjAddr: 0xA1240, symBinAddr: 0x1000A1B54, symSize: 0xA4 }
  - { offset: 0x61FD, size: 0x8, addend: 0x0, symName: __ZN5Catch5clara6detail11convertIntoERKNSt3__112basic_stringIcNS2_11char_traitsIcEENS2_9allocatorIcEEEERb, symObjAddr: 0xA12E4, symBinAddr: 0x1000A1BF8, symSize: 0x270 }
  - { offset: 0x6268, size: 0x8, addend: 0x0, symName: __ZN5Catch5clara6detail11convertIntoIdEENS1_11BasicResultINS1_15ParseResultTypeEEERKNSt3__112basic_stringIcNS6_11char_traitsIcEENS6_9allocatorIcEEEERT_, symObjAddr: 0xA2434, symBinAddr: 0x1000A2D48, symSize: 0x164 }
  - { offset: 0x62BE, size: 0x8, addend: 0x0, symName: '__ZN5Catch5clara6detail12invokeLambdaINSt3__112basic_stringIcNS3_11char_traitsIcEENS3_9allocatorIcEEEEZNS_21makeCommandLineParserERNS_10ConfigDataEE3$_5EENS1_11BasicResultINS1_15ParseResultTypeEEERKT0_RKS9_', symObjAddr: 0xA333C, symBinAddr: 0x1000A3C50, symSize: 0xD0 }
  - { offset: 0x632B, size: 0x8, addend: 0x0, symName: '__ZN5Catch5clara6detail12invokeLambdaINSt3__112basic_stringIcNS3_11char_traitsIcEENS3_9allocatorIcEEEEZNS_21makeCommandLineParserERNS_10ConfigDataEE3$_6EENS1_11BasicResultINS1_15ParseResultTypeEEERKT0_RKS9_', symObjAddr: 0xA51BC, symBinAddr: 0x1000A5AD0, symSize: 0xD0 }
  - { offset: 0x6398, size: 0x8, addend: 0x0, symName: '__ZN5Catch5clara6detail12invokeLambdaINSt3__112basic_stringIcNS3_11char_traitsIcEENS3_9allocatorIcEEEEZNS_21makeCommandLineParserERNS_10ConfigDataEE3$_7EENS1_11BasicResultINS1_15ParseResultTypeEEERKT0_RKS9_', symObjAddr: 0xA6208, symBinAddr: 0x1000A6B1C, symSize: 0xD0 }
  - { offset: 0x6405, size: 0x8, addend: 0x0, symName: '__ZN5Catch5clara6detail12invokeLambdaINSt3__112basic_stringIcNS3_11char_traitsIcEENS3_9allocatorIcEEEEZNS_21makeCommandLineParserERNS_10ConfigDataEE3$_8EENS1_11BasicResultINS1_15ParseResultTypeEEERKT0_RKS9_', symObjAddr: 0xA72E8, symBinAddr: 0x1000A7BFC, symSize: 0xD0 }
  - { offset: 0x6472, size: 0x8, addend: 0x0, symName: __ZN5Catch5clara6detail11convertIntoIjEENS1_11BasicResultINS1_15ParseResultTypeEEERKNSt3__112basic_stringIcNS6_11char_traitsIcEENS6_9allocatorIcEEEERT_, symObjAddr: 0xA747C, symBinAddr: 0x1000A7D90, symSize: 0x164 }
  - { offset: 0x64C8, size: 0x8, addend: 0x0, symName: '__ZN5Catch5clara6detail12invokeLambdaINSt3__112basic_stringIcNS3_11char_traitsIcEENS3_9allocatorIcEEEEZNS_21makeCommandLineParserERNS_10ConfigDataEE3$_9EENS1_11BasicResultINS1_15ParseResultTypeEEERKT0_RKS9_', symObjAddr: 0xA8384, symBinAddr: 0x1000A8C98, symSize: 0xD0 }
  - { offset: 0x6535, size: 0x8, addend: 0x0, symName: '__ZN5Catch5clara6detail12invokeLambdaINSt3__112basic_stringIcNS3_11char_traitsIcEENS3_9allocatorIcEEEEZNS_21makeCommandLineParserERNS_10ConfigDataEE4$_10EENS1_11BasicResultINS1_15ParseResultTypeEEERKT0_RKS9_', symObjAddr: 0xA93D0, symBinAddr: 0x1000A9CE4, symSize: 0xD0 }
  - { offset: 0x65A2, size: 0x8, addend: 0x0, symName: __ZN5Catch5clara6detail11convertIntoIxEENS1_11BasicResultINS1_15ParseResultTypeEEERKNSt3__112basic_stringIcNS6_11char_traitsIcEENS6_9allocatorIcEEEERT_, symObjAddr: 0xAB1E8, symBinAddr: 0x1000ABAFC, symSize: 0x164 }
  - { offset: 0x65FE, size: 0x8, addend: 0x0, symName: __ZN5Catch5clara8TextFlow17isBreakableBeforeEc, symObjAddr: 0x4A324, symBinAddr: 0x10004AC38, symSize: 0xA4 }
  - { offset: 0x6629, size: 0x8, addend: 0x0, symName: __ZZN5Catch5clara8TextFlow17isBreakableBeforeEcE5chars, symObjAddr: 0x107680, symBinAddr: 0x100118080, symSize: 0x0 }
  - { offset: 0x6642, size: 0x8, addend: 0x0, symName: __ZN5Catch5clara8TextFlow16isBreakableAfterEc, symObjAddr: 0x4A3C8, symBinAddr: 0x10004ACDC, symSize: 0xA4 }
  - { offset: 0x666D, size: 0x8, addend: 0x0, symName: __ZZN5Catch5clara8TextFlow16isBreakableAfterEcE5chars, symObjAddr: 0x1076A0, symBinAddr: 0x1001180A0, symSize: 0x0 }
  - { offset: 0x6686, size: 0x8, addend: 0x0, symName: __ZN5Catch5clara8TextFlow12isWhitespaceEc, symObjAddr: 0x4A280, symBinAddr: 0x10004AB94, symSize: 0xA4 }
  - { offset: 0x66B1, size: 0x8, addend: 0x0, symName: __ZZN5Catch5clara8TextFlow12isWhitespaceEcE5chars, symObjAddr: 0x1076C0, symBinAddr: 0x1001180C0, symSize: 0x0 }
  - { offset: 0x6B7A, size: 0x8, addend: 0x0, symName: __ZN5Catch5clara8TextFlowlsERNSt3__113basic_ostreamIcNS2_11char_traitsIcEEEERKNS1_6ColumnE, symObjAddr: 0xB184, symBinAddr: 0x10000BA98, symSize: 0xFC }
  - { offset: 0x6C06, size: 0x8, addend: 0x0, symName: __ZN5Catch5clara8TextFlowlsERNSt3__113basic_ostreamIcNS2_11char_traitsIcEEEERKNS1_7ColumnsE, symObjAddr: 0xCC50, symBinAddr: 0x10000D564, symSize: 0x148 }
  - { offset: 0x73A1, size: 0x8, addend: 0x0, symName: __ZN5Catch4trimERKNSt3__112basic_stringIcNS0_11char_traitsIcEENS0_9allocatorIcEEEE, symObjAddr: 0x6020, symBinAddr: 0x100006934, symSize: 0x9C }
  - { offset: 0x73CC, size: 0x8, addend: 0x0, symName: __ZZN5Catch4trimERKNSt3__112basic_stringIcNS0_11char_traitsIcEENS0_9allocatorIcEEEEE15whitespaceChars, symObjAddr: 0x107660, symBinAddr: 0x100118060, symSize: 0x0 }
  - { offset: 0x7403, size: 0x8, addend: 0x0, symName: __ZN5Catch27getEstimatedClockResolutionEv, symObjAddr: 0x20680, symBinAddr: 0x100020F94, symSize: 0xA8 }
  - { offset: 0x742E, size: 0x8, addend: 0x0, symName: __ZZN5Catch27getEstimatedClockResolutionEvE12s_resolution, symObjAddr: 0x729288, symBinAddr: 0x100118288, symSize: 0x0 }
  - { offset: 0x744A, size: 0x8, addend: 0x0, symName: __ZN5Catch6Detail17unprintableStringE, symObjAddr: 0x100158, symBinAddr: 0x100101628, symSize: 0x0 }
  - { offset: 0x749B, size: 0x8, addend: 0x0, symName: __ZN5Catch6Detail12_GLOBAL__N_119extractInstanceNameENS_9StringRefE, symObjAddr: 0x7ECC, symBinAddr: 0x1000087E0, symSize: 0xCC }
  - { offset: 0x78F1, size: 0x8, addend: 0x0, symName: __ZN5Catch6Detail9stringifyIdEENSt3__112basic_stringIcNS2_11char_traitsIcEENS2_9allocatorIcEEEERKT_, symObjAddr: 0x2E0, symBinAddr: 0x100000BF4, symSize: 0x30 }
  - { offset: 0x7928, size: 0x8, addend: 0x0, symName: __ZN5Catch6Detail10parseEnumsENS_9StringRefE, symObjAddr: 0x77AC, symBinAddr: 0x1000080C0, symSize: 0x194 }
  - { offset: 0x79C8, size: 0x8, addend: 0x0, symName: __ZN5Catch6Detail12makeEnumInfoENS_9StringRefES1_RKNSt3__16vectorIiNS2_9allocatorIiEEEE, symObjAddr: 0x8238, symBinAddr: 0x100008B4C, symSize: 0x22C }
  - { offset: 0x7A96, size: 0x8, addend: 0x0, symName: __ZN5Catch6Detail9stringifyINS_14SourceLineInfoEEENSt3__112basic_stringIcNS3_11char_traitsIcEENS3_9allocatorIcEEEERKT_, symObjAddr: 0xB320, symBinAddr: 0x10000BC34, symSize: 0x2C }
  - { offset: 0x7ACD, size: 0x8, addend: 0x0, symName: __ZN5Catch6Detail9stringifyINSt3__112basic_stringIcNS2_11char_traitsIcEENS2_9allocatorIcEEEEEES8_RKT_, symObjAddr: 0xFE30, symBinAddr: 0x100010744, symSize: 0x2C }
  - { offset: 0x7B04, size: 0x8, addend: 0x0, symName: __ZN5Catch6Detail17rawMemoryToStringEPKvm, symObjAddr: 0x208BC, symBinAddr: 0x1000211D0, symSize: 0x190 }
  - { offset: 0x7B8D, size: 0x8, addend: 0x0, symName: __ZN5Catch6Detail9stringifyINSt3__112basic_stringIwNS2_11char_traitsIwEENS2_9allocatorIwEEEEEENS3_IcNS4_IcEENS6_IcEEEERKT_, symObjAddr: 0x21484, symBinAddr: 0x100021D98, symSize: 0x2C }
  - { offset: 0x7BC4, size: 0x8, addend: 0x0, symName: __ZN5Catch6Detail9stringifyIyEENSt3__112basic_stringIcNS2_11char_traitsIcEENS2_9allocatorIcEEEERKT_, symObjAddr: 0x215BC, symBinAddr: 0x100021ED0, symSize: 0x30 }
  - { offset: 0x7BFB, size: 0x8, addend: 0x0, symName: __ZN5Catch6Detail9stringifyIxEENSt3__112basic_stringIcNS2_11char_traitsIcEENS2_9allocatorIcEEEERKT_, symObjAddr: 0x21638, symBinAddr: 0x100021F4C, symSize: 0x30 }
  - { offset: 0x7C32, size: 0x8, addend: 0x0, symName: __ZN5Catch6Detail9stringifyIjEENSt3__112basic_stringIcNS2_11char_traitsIcEENS2_9allocatorIcEEEERKT_, symObjAddr: 0x21AF0, symBinAddr: 0x100022404, symSize: 0x30 }
  - { offset: 0x7C69, size: 0x8, addend: 0x0, symName: __ZN5Catch6Detail9stringifyIaEENSt3__112basic_stringIcNS2_11char_traitsIcEENS2_9allocatorIcEEEERKT_, symObjAddr: 0x21B54, symBinAddr: 0x100022468, symSize: 0x30 }
  - { offset: 0x7CA0, size: 0x8, addend: 0x0, symName: __ZN5Catch6Detail9stringifyIcEENSt3__112basic_stringIcNS2_11char_traitsIcEENS2_9allocatorIcEEEERKT_, symObjAddr: 0x21BB8, symBinAddr: 0x1000224CC, symSize: 0x30 }
  - { offset: 0x7CD7, size: 0x8, addend: 0x0, symName: __ZN5Catch6Detail9stringifyImEENSt3__112basic_stringIcNS2_11char_traitsIcEENS2_9allocatorIcEEEERKT_, symObjAddr: 0x96724, symBinAddr: 0x100097038, symSize: 0x30 }
  - { offset: 0x7D0E, size: 0x8, addend: 0x0, symName: __ZN5Catch6Detail9stringifyIiEENSt3__112basic_stringIcNS2_11char_traitsIcEENS2_9allocatorIcEEEERKT_, symObjAddr: 0x96754, symBinAddr: 0x100097068, symSize: 0x30 }
  - { offset: 0x7D45, size: 0x8, addend: 0x0, symName: __ZN5Catch6Detail9stringifyIbEENSt3__112basic_stringIcNS2_11char_traitsIcEENS2_9allocatorIcEEEERKT_, symObjAddr: 0x96CBC, symBinAddr: 0x1000975D0, symSize: 0x34 }
  - { offset: 0x7D83, size: 0x8, addend: 0x0, symName: __ZN5Catch11StringMakerIfvE9precisionE, symObjAddr: 0x107668, symBinAddr: 0x100118068, symSize: 0x0 }
  - { offset: 0x7DCD, size: 0x8, addend: 0x0, symName: __ZN5Catch11StringMakerIdvE9precisionE, symObjAddr: 0x10766C, symBinAddr: 0x10011806C, symSize: 0x0 }
  - { offset: 0x7E11, size: 0x8, addend: 0x0, symName: __ZN5Catch14libraryVersionEv, symObjAddr: 0x16890, symBinAddr: 0x1000171A4, symSize: 0x88 }
  - { offset: 0x7E3C, size: 0x8, addend: 0x0, symName: __ZZN5Catch14libraryVersionEvE7version, symObjAddr: 0x729298, symBinAddr: 0x100118298, symSize: 0x0 }
  - { offset: 0xAB4F, size: 0x8, addend: 0x0, symName: __ZN5Catch12leakDetectorE, symObjAddr: 0x7292EC, symBinAddr: 0x1001182EC, symSize: 0x0 }
  - { offset: 0xAC1A, size: 0x8, addend: 0x0, symName: __ZN5CatchL11altStackMemE, symObjAddr: 0x7291F8, symBinAddr: 0x1001181F8, symSize: 0x0 }
  - { offset: 0xAC34, size: 0x8, addend: 0x0, symName: __ZN5CatchL12altStackSizeE, symObjAddr: 0x729200, symBinAddr: 0x100118200, symSize: 0x0 }
  - { offset: 0xAC4E, size: 0x8, addend: 0x0, symName: __ZN5CatchL11oldSigStackE, symObjAddr: 0x729208, symBinAddr: 0x100118208, symSize: 0x0 }
  - { offset: 0xAC68, size: 0x8, addend: 0x0, symName: __ZN5CatchL10signalDefsE, symObjAddr: 0x107600, symBinAddr: 0x100118000, symSize: 0x0 }
  - { offset: 0xACA7, size: 0x8, addend: 0x0, symName: __ZN5CatchL13oldSigActionsE, symObjAddr: 0x729220, symBinAddr: 0x100118220, symSize: 0x0 }
  - { offset: 0xB7AA, size: 0x8, addend: 0x0, symName: __ZN5Catch14getLineOfCharsILc45EEEPKcv, symObjAddr: 0x27E50, symBinAddr: 0x100028764, symSize: 0x60 }
  - { offset: 0xB7D5, size: 0x8, addend: 0x0, symName: __ZZN5Catch14getLineOfCharsILc45EEEPKcvE4line, symObjAddr: 0x1076E8, symBinAddr: 0x1001180E8, symSize: 0x0 }
  - { offset: 0xB7E9, size: 0x8, addend: 0x0, symName: __ZN5Catch14getLineOfCharsILc126EEEPKcv, symObjAddr: 0x27A60, symBinAddr: 0x100028374, symSize: 0x60 }
  - { offset: 0xB814, size: 0x8, addend: 0x0, symName: __ZZN5Catch14getLineOfCharsILc126EEEPKcvE4line, symObjAddr: 0x107738, symBinAddr: 0x100118138, symSize: 0x0 }
  - { offset: 0xB829, size: 0x8, addend: 0x0, symName: __ZN5Catch14getLineOfCharsILc46EEEPKcv, symObjAddr: 0x27EB0, symBinAddr: 0x1000287C4, symSize: 0x60 }
  - { offset: 0xB854, size: 0x8, addend: 0x0, symName: __ZZN5Catch14getLineOfCharsILc46EEEPKcvE4line, symObjAddr: 0x107788, symBinAddr: 0x100118188, symSize: 0x0 }
  - { offset: 0xBFAC, size: 0x8, addend: 0x0, symName: __ZN5Catch16TestCaseTrackingeqERKNS0_15NameAndLocationES3_, symObjAddr: 0x56C80, symBinAddr: 0x100057594, symSize: 0x60 }
  - { offset: 0xCBAA, size: 0x8, addend: 0x0, symName: __ZN5Catch8Matchers6EqualsERKNSt3__112basic_stringIcNS1_11char_traitsIcEENS1_9allocatorIcEEEENS_13CaseSensitive6ChoiceE, symObjAddr: 0x12E8, symBinAddr: 0x100001BFC, symSize: 0x74 }
  - { offset: 0xCBE7, size: 0x8, addend: 0x0, symName: __ZN5Catch8Matchers7MessageERKNSt3__112basic_stringIcNS1_11char_traitsIcEENS1_9allocatorIcEEEE, symObjAddr: 0xD640, symBinAddr: 0x10000DF54, symSize: 0x38 }
  - { offset: 0xCC15, size: 0x8, addend: 0x0, symName: __ZN5Catch8Matchers9WithinULPEdy, symObjAddr: 0xEC58, symBinAddr: 0x10000F56C, symSize: 0x44 }
  - { offset: 0xCC52, size: 0x8, addend: 0x0, symName: __ZN5Catch8Matchers9WithinULPEfy, symObjAddr: 0xEC9C, symBinAddr: 0x10000F5B0, symSize: 0x48 }
  - { offset: 0xCC8F, size: 0x8, addend: 0x0, symName: __ZN5Catch8Matchers9WithinAbsEdd, symObjAddr: 0xECE4, symBinAddr: 0x10000F5F8, symSize: 0x38 }
  - { offset: 0xCCCC, size: 0x8, addend: 0x0, symName: __ZN5Catch8Matchers9WithinRelEdd, symObjAddr: 0xED1C, symBinAddr: 0x10000F630, symSize: 0x38 }
  - { offset: 0xCD09, size: 0x8, addend: 0x0, symName: __ZN5Catch8Matchers9WithinRelEd, symObjAddr: 0xED54, symBinAddr: 0x10000F668, symSize: 0x4C }
  - { offset: 0xCD37, size: 0x8, addend: 0x0, symName: __ZN5Catch8Matchers9WithinRelEff, symObjAddr: 0xEDB4, symBinAddr: 0x10000F6C8, symSize: 0x40 }
  - { offset: 0xCD74, size: 0x8, addend: 0x0, symName: __ZN5Catch8Matchers9WithinRelEf, symObjAddr: 0xEDF4, symBinAddr: 0x10000F708, symSize: 0x54 }
  - { offset: 0xCDAC, size: 0x8, addend: 0x0, symName: __ZN5Catch8Matchers7Generic6Detail19finalizeDescriptionERKNSt3__112basic_stringIcNS3_11char_traitsIcEENS3_9allocatorIcEEEE, symObjAddr: 0xEE48, symBinAddr: 0x10000F75C, symSize: 0xA0 }
  - { offset: 0xCDDC, size: 0x8, addend: 0x0, symName: __ZN5Catch8Matchers8ContainsERKNSt3__112basic_stringIcNS1_11char_traitsIcEENS1_9allocatorIcEEEENS_13CaseSensitive6ChoiceE, symObjAddr: 0xFE5C, symBinAddr: 0x100010770, symSize: 0x74 }
  - { offset: 0xCE19, size: 0x8, addend: 0x0, symName: __ZN5Catch8Matchers8EndsWithERKNSt3__112basic_stringIcNS1_11char_traitsIcEENS1_9allocatorIcEEEENS_13CaseSensitive6ChoiceE, symObjAddr: 0xFED0, symBinAddr: 0x1000107E4, symSize: 0x74 }
  - { offset: 0xCE56, size: 0x8, addend: 0x0, symName: __ZN5Catch8Matchers10StartsWithERKNSt3__112basic_stringIcNS1_11char_traitsIcEENS1_9allocatorIcEEEENS_13CaseSensitive6ChoiceE, symObjAddr: 0xFF44, symBinAddr: 0x100010858, symSize: 0x74 }
  - { offset: 0xCE93, size: 0x8, addend: 0x0, symName: __ZN5Catch8Matchers7MatchesERKNSt3__112basic_stringIcNS1_11char_traitsIcEENS1_9allocatorIcEEEENS_13CaseSensitive6ChoiceE, symObjAddr: 0xFFB8, symBinAddr: 0x1000108CC, symSize: 0x50 }
  - { offset: 0xD0B9, size: 0x8, addend: 0x0, symName: __ZN5Catch21makeCommandLineParserERNS_10ConfigDataE, symObjAddr: 0x1F9C, symBinAddr: 0x1000028B0, symSize: 0x301C }
  - { offset: 0xD3CB, size: 0x8, addend: 0x0, symName: __ZN5Catch18throw_domain_errorERKNSt3__112basic_stringIcNS0_11char_traitsIcEENS0_9allocatorIcEEEE, symObjAddr: 0x618, symBinAddr: 0x100000F2C, symSize: 0x50 }
  - { offset: 0xD3FA, size: 0x8, addend: 0x0, symName: __ZN5Catch8literalsli2_aEe, symObjAddr: 0x8F0, symBinAddr: 0x100001204, symSize: 0x38 }
  - { offset: 0xD428, size: 0x8, addend: 0x0, symName: __ZN5Catch8literalsli2_aEy, symObjAddr: 0x960, symBinAddr: 0x100001274, symSize: 0x38 }
  - { offset: 0xD482, size: 0x8, addend: 0x0, symName: __ZN5CatchlsERNSt3__113basic_ostreamIcNS0_11char_traitsIcEEEERKNS_14LazyExpressionE, symObjAddr: 0xAF4, symBinAddr: 0x100001408, symSize: 0xD4 }
  - { offset: 0xD622, size: 0x8, addend: 0x0, symName: __ZN5Catch16getResultCaptureEv, symObjAddr: 0xD10, symBinAddr: 0x100001624, symSize: 0x108 }
  - { offset: 0xD656, size: 0x8, addend: 0x0, symName: __ZN5Catch17getCurrentContextEv, symObjAddr: 0xF34, symBinAddr: 0x100001848, symSize: 0x14 }
  - { offset: 0xD674, size: 0x8, addend: 0x0, symName: __ZN5Catch24translateActiveExceptionEv, symObjAddr: 0x109C, symBinAddr: 0x1000019B0, symSize: 0x40 }
  - { offset: 0xD692, size: 0x8, addend: 0x0, symName: __ZN5Catch24handleExceptionMatchExprERNS_16AssertionHandlerERKNSt3__112basic_stringIcNS2_11char_traitsIcEENS2_9allocatorIcEEEERKNS_9StringRefE, symObjAddr: 0x11C8, symBinAddr: 0x100001ADC, symSize: 0x7C }
  - { offset: 0xD6DA, size: 0x8, addend: 0x0, symName: __ZN5Catch24handleExceptionMatchExprERNS_16AssertionHandlerERKNS_8Matchers4Impl11MatcherBaseINSt3__112basic_stringIcNS5_11char_traitsIcEENS5_9allocatorIcEEEEEERKNS_9StringRefE, symObjAddr: 0x1244, symBinAddr: 0x100001B58, symSize: 0xA4 }
  - { offset: 0xD740, size: 0x8, addend: 0x0, symName: __ZN5Catch4isOkENS_9ResultWas6OfTypeE, symObjAddr: 0x16A8, symBinAddr: 0x100001FBC, symSize: 0x20 }
  - { offset: 0xD76E, size: 0x8, addend: 0x0, symName: __ZN5Catch21shouldSuppressFailureEi, symObjAddr: 0x1720, symBinAddr: 0x100002034, symSize: 0x20 }
  - { offset: 0xD79C, size: 0x8, addend: 0x0, symName: __ZN5Catch11isFalseTestEi, symObjAddr: 0x192C, symBinAddr: 0x100002240, symSize: 0x20 }
  - { offset: 0xD7CA, size: 0x8, addend: 0x0, symName: __ZN5CatchpLERNSt3__112basic_stringIcNS0_11char_traitsIcEENS0_9allocatorIcEEEERKNS_9StringRefE, symObjAddr: 0x1978, symBinAddr: 0x10000228C, symSize: 0x50 }
  - { offset: 0xD8A8, size: 0x8, addend: 0x0, symName: __ZN5CatchlsERNSt3__113basic_ostreamIcNS0_11char_traitsIcEEEERKNS_14SourceLineInfoE, symObjAddr: 0x5A08, symBinAddr: 0x10000631C, symSize: 0x48 }
  - { offset: 0xD906, size: 0x8, addend: 0x0, symName: __ZN5Catch10makeStreamERKNS_9StringRefE, symObjAddr: 0x687C, symBinAddr: 0x100007190, symSize: 0x1F4 }
  - { offset: 0xD934, size: 0x8, addend: 0x0, symName: __ZN5CatchlsERNSt3__113basic_ostreamIcNS0_11char_traitsIcEEEERKNS_6ColourE, symObjAddr: 0x6E78, symBinAddr: 0x10000778C, symSize: 0x18 }
  - { offset: 0xDA90, size: 0x8, addend: 0x0, symName: __ZN5Catch14cleanUpContextEv, symObjAddr: 0x6F2C, symBinAddr: 0x100007840, symSize: 0x50 }
  - { offset: 0xDAAA, size: 0x8, addend: 0x0, symName: __ZN5Catch19writeToDebugConsoleERKNSt3__112basic_stringIcNS0_11char_traitsIcEENS0_9allocatorIcEEEE, symObjAddr: 0x71E8, symBinAddr: 0x100007AFC, symSize: 0x28 }
  - { offset: 0xDAD4, size: 0x8, addend: 0x0, symName: __ZN5Catch4coutEv, symObjAddr: 0x725C, symBinAddr: 0x100007B70, symSize: 0xC }
  - { offset: 0xDAF2, size: 0x8, addend: 0x0, symName: __ZN5Catch16isDebuggerActiveEv, symObjAddr: 0x7268, symBinAddr: 0x100007B7C, symSize: 0x118 }
  - { offset: 0xDB3E, size: 0x8, addend: 0x0, symName: __ZN5Catch4cerrEv, symObjAddr: 0x7380, symBinAddr: 0x100007C94, symSize: 0xC }
  - { offset: 0xDB5C, size: 0x8, addend: 0x0, symName: __ZN5Catch29formatReconstructedExpressionERNSt3__113basic_ostreamIcNS0_11char_traitsIcEEEERKNS0_12basic_stringIcS3_NS0_9allocatorIcEEEENS_9StringRefESB_, symObjAddr: 0x7444, symBinAddr: 0x100007D58, symSize: 0x10C }
  - { offset: 0xDBB3, size: 0x8, addend: 0x0, symName: __ZN5CatchlsERNSt3__113basic_ostreamIcNS0_11char_traitsIcEEEERKNS_9StringRefE, symObjAddr: 0x75A4, symBinAddr: 0x100007EB8, symSize: 0x4C }
  - { offset: 0xDBF0, size: 0x8, addend: 0x0, symName: __ZN5Catch17throw_logic_errorERKNSt3__112basic_stringIcNS0_11char_traitsIcEENS0_9allocatorIcEEEE, symObjAddr: 0x75F0, symBinAddr: 0x100007F04, symSize: 0x50 }
  - { offset: 0xDC1A, size: 0x8, addend: 0x0, symName: __ZN5Catch15throw_exceptionISt11logic_errorEEvRKT_, symObjAddr: 0x7640, symBinAddr: 0x100007F54, symSize: 0x3C }
  - { offset: 0xDC4D, size: 0x8, addend: 0x0, symName: __ZN5Catch15throw_exceptionISt12domain_errorEEvRKT_, symObjAddr: 0x767C, symBinAddr: 0x100007F90, symSize: 0x3C }
  - { offset: 0xDC80, size: 0x8, addend: 0x0, symName: __ZN5Catch19throw_runtime_errorERKNSt3__112basic_stringIcNS0_11char_traitsIcEENS0_9allocatorIcEEEE, symObjAddr: 0x76EC, symBinAddr: 0x100008000, symSize: 0x50 }
  - { offset: 0xDCAA, size: 0x8, addend: 0x0, symName: __ZN5Catch15throw_exceptionISt13runtime_errorEEvRKT_, symObjAddr: 0x773C, symBinAddr: 0x100008050, symSize: 0x3C }
  - { offset: 0xDCDD, size: 0x8, addend: 0x0, symName: __ZN5Catch14splitStringRefENS_9StringRefEc, symObjAddr: 0x7940, symBinAddr: 0x100008254, symSize: 0x1D8 }
  - { offset: 0xDD4E, size: 0x8, addend: 0x0, symName: __ZN5Catch4trimENS_9StringRefE, symObjAddr: 0x7D90, symBinAddr: 0x1000086A4, symSize: 0x13C }
  - { offset: 0xDDC8, size: 0x8, addend: 0x0, symName: __ZN5Catchli3_srEPKcm, symObjAddr: 0x8200, symBinAddr: 0x100008B14, symSize: 0x38 }
  - { offset: 0xDEBB, size: 0x8, addend: 0x0, symName: __ZN5CatchL12handleSignalEi, symObjAddr: 0x93B0, symBinAddr: 0x100009CC4, symSize: 0xC0 }
  - { offset: 0xDF43, size: 0x8, addend: 0x0, symName: __ZN5CatchL29restorePreviousSignalHandlersEv, symObjAddr: 0x9490, symBinAddr: 0x100009DA4, symSize: 0x84 }
  - { offset: 0xDFE5, size: 0x8, addend: 0x0, symName: __ZN5Catch7cleanUpEv, symObjAddr: 0xA870, symBinAddr: 0x10000B184, symSize: 0x18 }
  - { offset: 0xDFFF, size: 0x8, addend: 0x0, symName: __ZN5Catch9listTestsERKNS_6ConfigE, symObjAddr: 0xA8B4, symBinAddr: 0x10000B1C8, symSize: 0x640 }
  - { offset: 0xE0D9, size: 0x8, addend: 0x0, symName: __ZN5Catch11filterTestsERKNSt3__16vectorINS_8TestCaseENS0_9allocatorIS2_EEEERKNS_8TestSpecERKNS_7IConfigE, symObjAddr: 0xAEF4, symBinAddr: 0x10000B808, symSize: 0x184 }
  - { offset: 0xE17C, size: 0x8, addend: 0x0, symName: __ZN5Catch21getAllTestCasesSortedERKNS_7IConfigE, symObjAddr: 0xB078, symBinAddr: 0x10000B98C, symSize: 0x3C }
  - { offset: 0xE1AA, size: 0x8, addend: 0x0, symName: __ZN5CatchlsERNSt3__113basic_ostreamIcNS0_11char_traitsIcEEEERKNS_9pluraliseE, symObjAddr: 0xB550, symBinAddr: 0x10000BE64, symSize: 0x70 }
  - { offset: 0xE22F, size: 0x8, addend: 0x0, symName: __ZN5Catch18listTestsNamesOnlyERKNS_6ConfigE, symObjAddr: 0xB67C, symBinAddr: 0x10000BF90, symSize: 0x1F4 }
  - { offset: 0xE2CB, size: 0x8, addend: 0x0, symName: __ZN5Catch10startsWithERKNSt3__112basic_stringIcNS0_11char_traitsIcEENS0_9allocatorIcEEEEc, symObjAddr: 0xB870, symBinAddr: 0x10000C184, symSize: 0x64 }
  - { offset: 0xE308, size: 0x8, addend: 0x0, symName: __ZN5Catch8listTagsERKNS_6ConfigE, symObjAddr: 0xBC24, symBinAddr: 0x10000C538, symSize: 0x648 }
  - { offset: 0xE491, size: 0x8, addend: 0x0, symName: __ZN5Catch7toLowerERKNSt3__112basic_stringIcNS0_11char_traitsIcEENS0_9allocatorIcEEEE, symObjAddr: 0xC358, symBinAddr: 0x10000CC6C, symSize: 0xA0 }
  - { offset: 0xE4CF, size: 0x8, addend: 0x0, symName: __ZN5Catch13listReportersEv, symObjAddr: 0xC84C, symBinAddr: 0x10000D160, symSize: 0x2FC }
  - { offset: 0xE59E, size: 0x8, addend: 0x0, symName: __ZN5Catch14getRegistryHubEv, symObjAddr: 0xCB48, symBinAddr: 0x10000D45C, symSize: 0x14 }
  - { offset: 0xE5BC, size: 0x8, addend: 0x0, symName: __ZN5Catch4listERKNSt3__110shared_ptrINS_6ConfigEEE, symObjAddr: 0xCFDC, symBinAddr: 0x10000D8F0, symSize: 0x26C }
  - { offset: 0xE78E, size: 0x8, addend: 0x0, symName: __ZN5Catch24getCurrentMutableContextEv, symObjAddr: 0xD274, symBinAddr: 0x10000DB88, symSize: 0x38 }
  - { offset: 0xE7AC, size: 0x8, addend: 0x0, symName: __ZN5Catch8containsERKNSt3__112basic_stringIcNS0_11char_traitsIcEENS0_9allocatorIcEEEES8_, symObjAddr: 0xF638, symBinAddr: 0x10000FF4C, symSize: 0x3C }
  - { offset: 0xE7E9, size: 0x8, addend: 0x0, symName: __ZN5Catch10startsWithERKNSt3__112basic_stringIcNS0_11char_traitsIcEENS0_9allocatorIcEEEES8_, symObjAddr: 0xF7E0, symBinAddr: 0x1000100F4, symSize: 0x98 }
  - { offset: 0xE826, size: 0x8, addend: 0x0, symName: __ZN5Catch8endsWithERKNSt3__112basic_stringIcNS0_11char_traitsIcEENS0_9allocatorIcEEEES8_, symObjAddr: 0xF9E4, symBinAddr: 0x1000102F8, symSize: 0xB0 }
  - { offset: 0xE863, size: 0x8, addend: 0x0, symName: __ZN5Catch19uncaught_exceptionsEv, symObjAddr: 0x103E0, symBinAddr: 0x100010CF4, symSize: 0x20 }
  - { offset: 0xEA17, size: 0x8, addend: 0x0, symName: __ZN5Catch4clogEv, symObjAddr: 0x11370, symBinAddr: 0x100011C84, symSize: 0xC }
  - { offset: 0xEAFC, size: 0x8, addend: 0x0, symName: __ZN5Catch5isnanEf, symObjAddr: 0x115B0, symBinAddr: 0x100011EC4, symSize: 0x28 }
  - { offset: 0xEB2A, size: 0x8, addend: 0x0, symName: __ZN5Catch5isnanEd, symObjAddr: 0x115F4, symBinAddr: 0x100011F08, symSize: 0x28 }
  - { offset: 0xEB58, size: 0x8, addend: 0x0, symName: __ZN5CatcheqERKNS_11SimplePcg32ES2_, symObjAddr: 0x11828, symBinAddr: 0x10001213C, symSize: 0x30 }
  - { offset: 0xEB95, size: 0x8, addend: 0x0, symName: __ZN5CatchneERKNS_11SimplePcg32ES2_, symObjAddr: 0x11858, symBinAddr: 0x10001216C, symSize: 0x30 }
  - { offset: 0xEBD2, size: 0x8, addend: 0x0, symName: __ZN5Catch21getMutableRegistryHubEv, symObjAddr: 0x1189C, symBinAddr: 0x1000121B0, symSize: 0x14 }
  - { offset: 0xEBF0, size: 0x8, addend: 0x0, symName: __ZN5Catch17cleanupSingletonsEv, symObjAddr: 0x118C8, symBinAddr: 0x1000121DC, symSize: 0xE0 }
  - { offset: 0xEC69, size: 0x8, addend: 0x0, symName: __ZN5Catch10isJustInfoEi, symObjAddr: 0x11E20, symBinAddr: 0x100012734, symSize: 0x20 }
  - { offset: 0xEC97, size: 0x8, addend: 0x0, symName: __ZN5CatchorENS_17ResultDisposition5FlagsES1_, symObjAddr: 0x11E40, symBinAddr: 0x100012754, symSize: 0x20 }
  - { offset: 0xECD4, size: 0x8, addend: 0x0, symName: __ZN5Catch23shouldContinueOnFailureEi, symObjAddr: 0x11E60, symBinAddr: 0x100012774, symSize: 0x20 }
  - { offset: 0xF413, size: 0x8, addend: 0x0, symName: __ZN5Catch7seedRngERKNS_7IConfigE, symObjAddr: 0x14F84, symBinAddr: 0x100015898, symSize: 0x78 }
  - { offset: 0xF478, size: 0x8, addend: 0x0, symName: __ZN5Catch7rngSeedEv, symObjAddr: 0x15AD8, symBinAddr: 0x1000163EC, symSize: 0x30 }
  - { offset: 0xF52E, size: 0x8, addend: 0x0, symName: __ZN5CatchlsERNSt3__113basic_ostreamIcNS0_11char_traitsIcEEEERKNS_7VersionE, symObjAddr: 0x167E4, symBinAddr: 0x1000170F8, symSize: 0xAC }
  - { offset: 0xF56B, size: 0x8, addend: 0x0, symName: __ZN5Catch12addSingletonEPNS_10ISingletonE, symObjAddr: 0x17D44, symBinAddr: 0x100018658, symSize: 0x34 }
  - { offset: 0xF595, size: 0x8, addend: 0x0, symName: __ZN5Catch8endsWithERKNSt3__112basic_stringIcNS0_11char_traitsIcEENS0_9allocatorIcEEEEc, symObjAddr: 0x188A0, symBinAddr: 0x1000191B4, symSize: 0x78 }
  - { offset: 0xF5D2, size: 0x8, addend: 0x0, symName: __ZN5Catch14toLowerInPlaceERNSt3__112basic_stringIcNS0_11char_traitsIcEENS0_9allocatorIcEEEE, symObjAddr: 0x18990, symBinAddr: 0x1000192A4, symSize: 0x5C }
  - { offset: 0xF5FC, size: 0x8, addend: 0x0, symName: __ZN5Catch14replaceInPlaceERNSt3__112basic_stringIcNS0_11char_traitsIcEENS0_9allocatorIcEEEERKS6_S9_, symObjAddr: 0x18DD4, symBinAddr: 0x1000196E8, symSize: 0x1F0 }
  - { offset: 0xF68E, size: 0x8, addend: 0x0, symName: __ZN5Catch12makeTestCaseEPNS_12ITestInvokerERKNSt3__112basic_stringIcNS2_11char_traitsIcEENS2_9allocatorIcEEEERKNS_11NameAndTagsERKNS_14SourceLineInfoE, symObjAddr: 0x19E40, symBinAddr: 0x10001A754, symSize: 0x484 }
  - { offset: 0xF7B6, size: 0x8, addend: 0x0, symName: __ZN5Catch7setTagsERNS_12TestCaseInfoENSt3__16vectorINS2_12basic_stringIcNS2_11char_traitsIcEENS2_9allocatorIcEEEENS7_IS9_EEEE, symObjAddr: 0x1A7D4, symBinAddr: 0x10001B0E8, symSize: 0x1C4 }
  - { offset: 0xF848, size: 0x8, addend: 0x0, symName: __ZN5Catch9sortTestsERKNS_7IConfigERKNSt3__16vectorINS_8TestCaseENS3_9allocatorIS5_EEEE, symObjAddr: 0x1B258, symBinAddr: 0x10001BB6C, symSize: 0x338 }
  - { offset: 0xF9A4, size: 0x8, addend: 0x0, symName: __ZN5Catch11isThrowSafeERKNS_8TestCaseERKNS_7IConfigE, symObjAddr: 0x1BCCC, symBinAddr: 0x10001C5E0, symSize: 0x58 }
  - { offset: 0xF9E1, size: 0x8, addend: 0x0, symName: __ZN5Catch9matchTestERKNS_8TestCaseERKNS_8TestSpecERKNS_7IConfigE, symObjAddr: 0x1BD24, symBinAddr: 0x10001C638, symSize: 0x5C }
  - { offset: 0xFA2D, size: 0x8, addend: 0x0, symName: __ZN5Catch27enforceNoDuplicateTestCasesERKNSt3__16vectorINS_8TestCaseENS0_9allocatorIS2_EEEE, symObjAddr: 0x1BDDC, symBinAddr: 0x10001C6F0, symSize: 0x228 }
  - { offset: 0xFB3B, size: 0x8, addend: 0x0, symName: __ZN5Catch16extractClassNameERKNS_9StringRefE, symObjAddr: 0x1C614, symBinAddr: 0x10001CF28, symSize: 0x134 }
  - { offset: 0xFBA5, size: 0x8, addend: 0x0, symName: __ZN5Catch15makeTestInvokerEPFvvE, symObjAddr: 0x1DE9C, symBinAddr: 0x10001E7B0, symSize: 0x88 }
  - { offset: 0xFBD3, size: 0x8, addend: 0x0, symName: __ZN5Catch13parseTestSpecERKNSt3__112basic_stringIcNS0_11char_traitsIcEENS0_9allocatorIcEEEE, symObjAddr: 0x2052C, symBinAddr: 0x100020E40, symSize: 0xA0 }
  - { offset: 0xFC01, size: 0x8, addend: 0x0, symName: __ZN5Catch31getCurrentNanosecondsSinceEpochEv, symObjAddr: 0x205CC, symBinAddr: 0x100020EE0, symSize: 0x4C }
  - { offset: 0xFF7B, size: 0x8, addend: 0x0, symName: __ZN5Catch10fpToStringIfEENSt3__112basic_stringIcNS1_11char_traitsIcEENS1_9allocatorIcEEEET_i, symObjAddr: 0x21C9C, symBinAddr: 0x1000225B0, symSize: 0x1F4 }
  - { offset: 0xFFF0, size: 0x8, addend: 0x0, symName: __ZN5Catch10fpToStringIdEENSt3__112basic_stringIcNS1_11char_traitsIcEENS1_9allocatorIcEEEET_i, symObjAddr: 0x21EC4, symBinAddr: 0x1000227D8, symSize: 0x1F4 }
  - { offset: 0x1013D, size: 0x8, addend: 0x0, symName: __ZN5CatchorENS_13XmlFormattingES0_, symObjAddr: 0x225C8, symBinAddr: 0x100022EDC, symSize: 0x20 }
  - { offset: 0x1017A, size: 0x8, addend: 0x0, symName: __ZN5CatchanENS_13XmlFormattingES0_, symObjAddr: 0x225E8, symBinAddr: 0x100022EFC, symSize: 0x20 }
  - { offset: 0x101B7, size: 0x8, addend: 0x0, symName: __ZN5CatchlsERNSt3__113basic_ostreamIcNS0_11char_traitsIcEEEERKNS_9XmlEncodeE, symObjAddr: 0x22F28, symBinAddr: 0x10002383C, symSize: 0x30 }
  - { offset: 0x101F4, size: 0x8, addend: 0x0, symName: __ZN5Catch25prepareExpandedExpressionERNS_15AssertionResultE, symObjAddr: 0x23B28, symBinAddr: 0x10002443C, symSize: 0x34 }
  - { offset: 0x1021E, size: 0x8, addend: 0x0, symName: __ZN5Catch20getFormattedDurationEd, symObjAddr: 0x23B5C, symBinAddr: 0x100024470, symSize: 0xE0 }
  - { offset: 0x1027A, size: 0x8, addend: 0x0, symName: __ZN5Catch18shouldShowDurationERKNS_7IConfigEd, symObjAddr: 0x23C3C, symBinAddr: 0x100024550, symSize: 0xEC }
  - { offset: 0x102C6, size: 0x8, addend: 0x0, symName: __ZN5Catch16serializeFiltersERKNSt3__16vectorINS0_12basic_stringIcNS0_11char_traitsIcEENS0_9allocatorIcEEEENS5_IS7_EEEE, symObjAddr: 0x23D28, symBinAddr: 0x10002463C, symSize: 0x100 }
  - { offset: 0x10896, size: 0x8, addend: 0x0, symName: __ZN5CatchlsERNS_12TablePrinterENS_12_GLOBAL__N_18RowBreakE, symObjAddr: 0x90674, symBinAddr: 0x100090F88, symSize: 0x58 }
  - { offset: 0x10CE9, size: 0x8, addend: 0x0, symName: __ZN5Catch12compareEqualImiEEbRKT_RKT0_, symObjAddr: 0x964D8, symBinAddr: 0x100096DEC, symSize: 0x30 }
  - { offset: 0x10D38, size: 0x8, addend: 0x0, symName: __ZN5Catch12compareEqualIiiEEbRKT_RKT0_, symObjAddr: 0x968D8, symBinAddr: 0x1000971EC, symSize: 0x30 }
  - { offset: 0x10E3F, size: 0x8, addend: 0x0, symName: __ZN5Catch6Colour3useENS0_4CodeE, symObjAddr: 0x6ADC, symBinAddr: 0x1000073F0, symSize: 0xD8 }
  - { offset: 0x10E61, size: 0x8, addend: 0x0, symName: __ZZN5Catch6Colour3useENS0_4CodeEE4impl, symObjAddr: 0x7291D8, symBinAddr: 0x1001181D8, symSize: 0x0 }
  - { offset: 0x200B0, size: 0x8, addend: 0x0, symName: __ZNSt3__16chrono13duration_castB8ne180100INS0_8durationIxNS_5ratioILl1ELl1000000000EEEEExS4_Li0EEET_RKNS2_IT0_T1_EE, symObjAddr: 0x20618, symBinAddr: 0x100020F2C, symSize: 0x30 }
  - { offset: 0x3ACC2, size: 0x8, addend: 0x0, symName: __ZNSt3__16ranges5__cpo9iter_moveE, symObjAddr: 0x102585, symBinAddr: 0x100103A55, symSize: 0x0 }
  - { offset: 0x4EF39, size: 0x8, addend: 0x0, symName: __ZNSt3__115regex_constantsoRB8ne180100ERNS0_18syntax_option_typeES1_, symObjAddr: 0xFC3C, symBinAddr: 0x100010550, symSize: 0x3C }
  - { offset: 0x4EF76, size: 0x8, addend: 0x0, symName: __ZNSt3__115regex_constantsorB8ne180100ENS0_18syntax_option_typeES1_, symObjAddr: 0x516FC, symBinAddr: 0x100052010, symSize: 0x20 }
  - { offset: 0x4EFB3, size: 0x8, addend: 0x0, symName: __ZNSt3__115regex_constants13__get_grammarB8ne180100ENS0_18syntax_option_typeE, symObjAddr: 0xAFE48, symBinAddr: 0x1000B075C, symSize: 0x18 }
  - { offset: 0x4EFE1, size: 0x8, addend: 0x0, symName: __ZNSt3__115regex_constantsanB8ne180100ENS0_18syntax_option_typeES1_, symObjAddr: 0xB3514, symBinAddr: 0x1000B3E28, symSize: 0x20 }
  - { offset: 0x4F01E, size: 0x8, addend: 0x0, symName: __ZNSt3__115regex_constantsanB8ne180100ENS0_15match_flag_typeES1_, symObjAddr: 0xB372C, symBinAddr: 0x1000B4040, symSize: 0x20 }
  - { offset: 0x4F05B, size: 0x8, addend: 0x0, symName: __ZNSt3__115regex_constantsorB8ne180100ENS0_15match_flag_typeES1_, symObjAddr: 0xB4CE4, symBinAddr: 0x1000B55F8, symSize: 0x20 }
  - { offset: 0x4F098, size: 0x8, addend: 0x0, symName: __ZNSt3__115regex_constantscoB8ne180100ENS0_15match_flag_typeE, symObjAddr: 0xB4D04, symBinAddr: 0x1000B5618, symSize: 0x1C }
  - { offset: 0x4F0C6, size: 0x8, addend: 0x0, symName: __ZNSt3__115regex_constantsaNB8ne180100ERNS0_15match_flag_typeES1_, symObjAddr: 0xCD384, symBinAddr: 0x1000CDC98, symSize: 0x3C }
  - { offset: 0x4F103, size: 0x8, addend: 0x0, symName: __ZNSt3__115regex_constantsoRB8ne180100ERNS0_15match_flag_typeES1_, symObjAddr: 0xCD538, symBinAddr: 0x1000CDE4C, symSize: 0x3C }
  - { offset: 0x62EF3, size: 0x8, addend: 0x0, symName: __ZNSt3__17advanceB8ne180100IPN5Catch5clara6detail5TokenEllvEEvRT_T0_, symObjAddr: 0x351BC, symBinAddr: 0x100035AD0, symSize: 0x38 }
  - { offset: 0x63B31, size: 0x8, addend: 0x0, symName: __ZNSt3__17advanceB8ne180100INS_16reverse_iteratorIPN5Catch5clara6detail5TokenEEEllvEEvRT_T0_, symObjAddr: 0x3AA4C, symBinAddr: 0x10003B360, symSize: 0x38 }
  - { offset: 0x66143, size: 0x8, addend: 0x0, symName: __ZNSt3__17advanceB8ne180100IPNS_4pairIiN5Catch9StringRefEEEllvEEvRT_T0_, symObjAddr: 0x42F28, symBinAddr: 0x10004383C, symSize: 0x38 }
  - { offset: 0x663E5, size: 0x8, addend: 0x0, symName: __ZNSt3__17advanceB8ne180100INS_16reverse_iteratorIPNS_4pairIiN5Catch9StringRefEEEEEllvEEvRT_T0_, symObjAddr: 0x432E8, symBinAddr: 0x100043BFC, symSize: 0x38 }
  - { offset: 0x667D6, size: 0x8, addend: 0x0, symName: __ZNSt3__17advanceB8ne180100IPNS_10unique_ptrIN5Catch6Detail8EnumInfoENS_14default_deleteIS4_EEEEllvEEvRT_T0_, symObjAddr: 0x44C5C, symBinAddr: 0x100045570, symSize: 0x38 }
  - { offset: 0x66A78, size: 0x8, addend: 0x0, symName: __ZNSt3__17advanceB8ne180100INS_16reverse_iteratorIPNS_10unique_ptrIN5Catch6Detail8EnumInfoENS_14default_deleteIS5_EEEEEEllvEEvRT_T0_, symObjAddr: 0x45060, symBinAddr: 0x100045974, symSize: 0x38 }
  - { offset: 0x66E69, size: 0x8, addend: 0x0, symName: __ZNSt3__17advanceB8ne180100IPNS_10unique_ptrIKN5Catch20IExceptionTranslatorENS_14default_deleteIS4_EEEEllvEEvRT_T0_, symObjAddr: 0x467B4, symBinAddr: 0x1000470C8, symSize: 0x38 }
  - { offset: 0x6710B, size: 0x8, addend: 0x0, symName: __ZNSt3__17advanceB8ne180100INS_16reverse_iteratorIPNS_10unique_ptrIKN5Catch20IExceptionTranslatorENS_14default_deleteIS5_EEEEEEllvEEvRT_T0_, symObjAddr: 0x46B6C, symBinAddr: 0x100047480, symSize: 0x38 }
  - { offset: 0x675A9, size: 0x8, addend: 0x0, symName: __ZNSt3__17advanceB8ne180100IPN5Catch11MessageInfoEllvEEvRT_T0_, symObjAddr: 0x47FC4, symBinAddr: 0x1000488D8, symSize: 0x38 }
  - { offset: 0x67999, size: 0x8, addend: 0x0, symName: __ZNSt3__17advanceB8ne180100INS_16reverse_iteratorIPN5Catch11MessageInfoEEEllvEEvRT_T0_, symObjAddr: 0x49174, symBinAddr: 0x100049A88, symSize: 0x38 }
  - { offset: 0x693E2, size: 0x8, addend: 0x0, symName: __ZNSt3__17advanceB8ne180100IPN5Catch5clara8TextFlow6Column8iteratorEllvEEvRT_T0_, symObjAddr: 0x4CC4C, symBinAddr: 0x10004D560, symSize: 0x38 }
  - { offset: 0x69684, size: 0x8, addend: 0x0, symName: __ZNSt3__17advanceB8ne180100INS_16reverse_iteratorIPN5Catch5clara8TextFlow6Column8iteratorEEEllvEEvRT_T0_, symObjAddr: 0x4D044, symBinAddr: 0x10004D958, symSize: 0x38 }
  - { offset: 0x696F4, size: 0x8, addend: 0x0, symName: __ZNSt3__16copy_nB8ne180100IPKcmPcLi0EEET1_T_T0_S4_, symObjAddr: 0x4E730, symBinAddr: 0x10004F044, symSize: 0x44 }
  - { offset: 0x69B0A, size: 0x8, addend: 0x0, symName: __ZNSt3__17advanceB8ne180100IPN5Catch5clara8TextFlow6ColumnEllvEEvRT_T0_, symObjAddr: 0x5047C, symBinAddr: 0x100050D90, symSize: 0x38 }
  - { offset: 0x69DAC, size: 0x8, addend: 0x0, symName: __ZNSt3__17advanceB8ne180100INS_16reverse_iteratorIPN5Catch5clara8TextFlow6ColumnEEEllvEEvRT_T0_, symObjAddr: 0x50888, symBinAddr: 0x10005119C, symSize: 0x38 }
  - { offset: 0x6A19D, size: 0x8, addend: 0x0, symName: __ZNSt3__17advanceB8ne180100IPNS_10shared_ptrIN5Catch16IReporterFactoryEEEllvEEvRT_T0_, symObjAddr: 0x53DF4, symBinAddr: 0x100054708, symSize: 0x38 }
  - { offset: 0x6A43F, size: 0x8, addend: 0x0, symName: __ZNSt3__17advanceB8ne180100INS_16reverse_iteratorIPNS_10shared_ptrIN5Catch16IReporterFactoryEEEEEllvEEvRT_T0_, symObjAddr: 0x541AC, symBinAddr: 0x100054AC0, symSize: 0x38 }
  - { offset: 0x6F6F7, size: 0x8, addend: 0x0, symName: __ZNSt3__17advanceB8ne180100IPN5Catch14SectionEndInfoEllvEEvRT_T0_, symObjAddr: 0x58D74, symBinAddr: 0x100059688, symSize: 0x38 }
  - { offset: 0x6F999, size: 0x8, addend: 0x0, symName: __ZNSt3__17advanceB8ne180100INS_16reverse_iteratorIPN5Catch14SectionEndInfoEEEllvEEvRT_T0_, symObjAddr: 0x59134, symBinAddr: 0x100059A48, symSize: 0x38 }
  - { offset: 0x6FD8A, size: 0x8, addend: 0x0, symName: __ZNSt3__17advanceB8ne180100IPN5Catch13ScopedMessageEllvEEvRT_T0_, symObjAddr: 0x5AB4C, symBinAddr: 0x10005B460, symSize: 0x38 }
  - { offset: 0x7002C, size: 0x8, addend: 0x0, symName: __ZNSt3__17advanceB8ne180100INS_16reverse_iteratorIPN5Catch13ScopedMessageEEEllvEEvRT_T0_, symObjAddr: 0x5AF0C, symBinAddr: 0x10005B820, symSize: 0x38 }
  - { offset: 0x704CA, size: 0x8, addend: 0x0, symName: __ZNSt3__17advanceB8ne180100IPN5Catch5clara6detail11HelpColumnsEllvEEvRT_T0_, symObjAddr: 0x5E5DC, symBinAddr: 0x10005EEF0, symSize: 0x38 }
  - { offset: 0x7053A, size: 0x8, addend: 0x0, symName: __ZNSt3__17advanceB8ne180100INS_11__wrap_iterIPN5Catch5clara6detail11HelpColumnsEEEllvEEvRT_T0_, symObjAddr: 0x5EE30, symBinAddr: 0x10005F744, symSize: 0x38 }
  - { offset: 0x70947, size: 0x8, addend: 0x0, symName: __ZNSt3__17advanceB8ne180100INS_16reverse_iteratorIPN5Catch5clara6detail11HelpColumnsEEEllvEEvRT_T0_, symObjAddr: 0x60C38, symBinAddr: 0x10006154C, symSize: 0x38 }
  - { offset: 0x7100C, size: 0x8, addend: 0x0, symName: __ZNSt3__17advanceB8ne180100IPNS_12basic_stringIcNS_11char_traitsIcEENS_9allocatorIcEEEEllvEEvRT_T0_, symObjAddr: 0x62FC0, symBinAddr: 0x1000638D4, symSize: 0x38 }
  - { offset: 0x7107C, size: 0x8, addend: 0x0, symName: __ZNSt3__17advanceB8ne180100IPN5Catch5clara6detail3OptEllvEEvRT_T0_, symObjAddr: 0x64754, symBinAddr: 0x100065068, symSize: 0x38 }
  - { offset: 0x71441, size: 0x8, addend: 0x0, symName: __ZNSt3__17advanceB8ne180100IPN5Catch5clara6detail3ArgEllvEEvRT_T0_, symObjAddr: 0x65D88, symBinAddr: 0x10006669C, symSize: 0x38 }
  - { offset: 0x71B86, size: 0x8, addend: 0x0, symName: __ZNSt3__17advanceB8ne180100INS_16reverse_iteratorIPNS_12basic_stringIcNS_11char_traitsIcEENS_9allocatorIcEEEEEEllvEEvRT_T0_, symObjAddr: 0x679EC, symBinAddr: 0x100068300, symSize: 0x38 }
  - { offset: 0x733B5, size: 0x8, addend: 0x0, symName: __ZNSt3__17advanceB8ne180100INS_21__tree_const_iteratorIPKN5Catch8TestCaseEPNS_11__tree_nodeIS5_PvEElEEllvEEvRT_T0_, symObjAddr: 0x6B728, symBinAddr: 0x10006C03C, symSize: 0x38 }
  - { offset: 0x739CA, size: 0x8, addend: 0x0, symName: __ZNSt3__17advanceB8ne180100IPSt13exception_ptrllvEEvRT_T0_, symObjAddr: 0x6E5D0, symBinAddr: 0x10006EEE4, symSize: 0x38 }
  - { offset: 0x73C6C, size: 0x8, addend: 0x0, symName: __ZNSt3__17advanceB8ne180100INS_16reverse_iteratorIPSt13exception_ptrEEllvEEvRT_T0_, symObjAddr: 0x6E9D4, symBinAddr: 0x10006F2E8, symSize: 0x38 }
  - { offset: 0x7405D, size: 0x8, addend: 0x0, symName: __ZNSt3__17advanceB8ne180100IPNS_10unique_ptrINS_19basic_ostringstreamIcNS_11char_traitsIcEENS_9allocatorIcEEEENS_14default_deleteIS7_EEEEllvEEvRT_T0_, symObjAddr: 0x70FA4, symBinAddr: 0x1000718B8, symSize: 0x38 }
  - { offset: 0x742FF, size: 0x8, addend: 0x0, symName: __ZNSt3__17advanceB8ne180100INS_16reverse_iteratorIPNS_10unique_ptrINS_19basic_ostringstreamIcNS_11char_traitsIcEENS_9allocatorIcEEEENS_14default_deleteIS8_EEEEEEllvEEvRT_T0_, symObjAddr: 0x713A8, symBinAddr: 0x100071CBC, symSize: 0x38 }
  - { offset: 0x7436F, size: 0x8, addend: 0x0, symName: __ZNSt3__17advanceB8ne180100IPKNS_12basic_stringIcNS_11char_traitsIcEENS_9allocatorIcEEEEllvEEvRT_T0_, symObjAddr: 0x72E98, symBinAddr: 0x1000737AC, symSize: 0x38 }
  - { offset: 0x743DE, size: 0x8, addend: 0x0, symName: __ZNSt3__111__introsortINS_17_ClassicAlgPolicyERNS_6__lessIvvEEPNS_12basic_stringIcNS_11char_traitsIcEENS_9allocatorIcEEEELb0EEEvT1_SC_T0_NS_15iterator_traitsISC_E15difference_typeEb, symObjAddr: 0x73FFC, symBinAddr: 0x100074910, symSize: 0x470 }
  - { offset: 0x7450A, size: 0x8, addend: 0x0, symName: __ZNSt3__126__insertion_sort_unguardedB8ne180100INS_17_ClassicAlgPolicyERNS_6__lessIvvEEPNS_12basic_stringIcNS_11char_traitsIcEENS_9allocatorIcEEEEEEvT1_SC_T0_, symObjAddr: 0x74778, symBinAddr: 0x10007508C, symSize: 0x158 }
  - { offset: 0x745E3, size: 0x8, addend: 0x0, symName: __ZNSt3__111__sift_downB8ne180100INS_17_ClassicAlgPolicyERNS_6__lessIvvEEPNS_12basic_stringIcNS_11char_traitsIcEENS_9allocatorIcEEEEEEvT1_OT0_NS_15iterator_traitsISC_E15difference_typeESC_, symObjAddr: 0x75C1C, symBinAddr: 0x100076530, symSize: 0x254 }
  - { offset: 0x7469A, size: 0x8, addend: 0x0, symName: __ZNSt3__117__floyd_sift_downB8ne180100INS_17_ClassicAlgPolicyERNS_6__lessIvvEEPNS_12basic_stringIcNS_11char_traitsIcEENS_9allocatorIcEEEEEET1_SC_OT0_NS_15iterator_traitsISC_E15difference_typeE, symObjAddr: 0x76050, symBinAddr: 0x100076964, symSize: 0x108 }
  - { offset: 0x74739, size: 0x8, addend: 0x0, symName: __ZNSt3__131__partition_with_equals_on_leftB8ne180100INS_17_ClassicAlgPolicyEPNS_12basic_stringIcNS_11char_traitsIcEENS_9allocatorIcEEEERNS_6__lessIvvEEEET0_SC_SC_T1_, symObjAddr: 0x74ADC, symBinAddr: 0x1000753F0, symSize: 0x250 }
  - { offset: 0x747F5, size: 0x8, addend: 0x0, symName: __ZNSt3__118__bitset_partitionB8ne180100INS_17_ClassicAlgPolicyEPNS_12basic_stringIcNS_11char_traitsIcEENS_9allocatorIcEEEERNS_6__lessIvvEEEENS_4pairIT0_bEESD_SD_T1_, symObjAddr: 0x74D2C, symBinAddr: 0x100075640, symSize: 0x384 }
  - { offset: 0x748F1, size: 0x8, addend: 0x0, symName: __ZNSt3__124__swap_bitmap_pos_withinB8ne180100INS_17_ClassicAlgPolicyEPNS_12basic_stringIcNS_11char_traitsIcEENS_9allocatorIcEEEEEEvRT0_SA_RySB_, symObjAddr: 0x767FC, symBinAddr: 0x100077110, symSize: 0x1E8 }
  - { offset: 0x749BE, size: 0x8, addend: 0x0, symName: __ZNSt3__132__partition_with_equals_on_rightB8ne180100INS_17_ClassicAlgPolicyEPNS_12basic_stringIcNS_11char_traitsIcEENS_9allocatorIcEEEERNS_6__lessIvvEEEENS_4pairIT0_bEESD_SD_T1_, symObjAddr: 0x750B0, symBinAddr: 0x1000759C4, symSize: 0x260 }
  - { offset: 0x74A89, size: 0x8, addend: 0x0, symName: __ZNSt3__127__insertion_sort_incompleteB8ne180100INS_17_ClassicAlgPolicyERNS_6__lessIvvEEPNS_12basic_stringIcNS_11char_traitsIcEENS_9allocatorIcEEEEEEbT1_SC_T0_, symObjAddr: 0x75310, symBinAddr: 0x100075C24, symSize: 0x360 }
  - { offset: 0x7513F, size: 0x8, addend: 0x0, symName: __ZNSt3__17advanceB8ne180100IPN5Catch8TestCaseEllvEEvRT_T0_, symObjAddr: 0x784C4, symBinAddr: 0x100078DD8, symSize: 0x38 }
  - { offset: 0x751AE, size: 0x8, addend: 0x0, symName: __ZNSt3__111__introsortINS_17_ClassicAlgPolicyERNS_6__lessIvvEEPN5Catch8TestCaseELb0EEEvT1_S8_T0_NS_15iterator_traitsIS8_E15difference_typeEb, symObjAddr: 0x787DC, symBinAddr: 0x1000790F0, symSize: 0x470 }
  - { offset: 0x752DA, size: 0x8, addend: 0x0, symName: __ZNSt3__126__insertion_sort_unguardedB8ne180100INS_17_ClassicAlgPolicyERNS_6__lessIvvEEPN5Catch8TestCaseEEEvT1_S8_T0_, symObjAddr: 0x78F58, symBinAddr: 0x10007986C, symSize: 0x18C }
  - { offset: 0x753B3, size: 0x8, addend: 0x0, symName: __ZNSt3__111__sift_downB8ne180100INS_17_ClassicAlgPolicyERNS_6__lessIvvEEPN5Catch8TestCaseEEEvT1_OT0_NS_15iterator_traitsIS8_E15difference_typeES8_, symObjAddr: 0x7A634, symBinAddr: 0x10007AF48, symSize: 0x294 }
  - { offset: 0x7546A, size: 0x8, addend: 0x0, symName: __ZNSt3__117__floyd_sift_downB8ne180100INS_17_ClassicAlgPolicyERNS_6__lessIvvEEPN5Catch8TestCaseEEET1_S8_OT0_NS_15iterator_traitsIS8_E15difference_typeE, symObjAddr: 0x7AAC8, symBinAddr: 0x10007B3DC, symSize: 0x108 }
  - { offset: 0x75509, size: 0x8, addend: 0x0, symName: __ZNSt3__131__partition_with_equals_on_leftB8ne180100INS_17_ClassicAlgPolicyEPN5Catch8TestCaseERNS_6__lessIvvEEEET0_S8_S8_T1_, symObjAddr: 0x792F0, symBinAddr: 0x100079C04, symSize: 0x2A0 }
  - { offset: 0x755C6, size: 0x8, addend: 0x0, symName: __ZNSt3__118__bitset_partitionB8ne180100INS_17_ClassicAlgPolicyEPN5Catch8TestCaseERNS_6__lessIvvEEEENS_4pairIT0_bEES9_S9_T1_, symObjAddr: 0x79590, symBinAddr: 0x100079EA4, symSize: 0x38C }
  - { offset: 0x756C3, size: 0x8, addend: 0x0, symName: __ZNSt3__124__swap_bitmap_pos_withinB8ne180100INS_17_ClassicAlgPolicyEPN5Catch8TestCaseEEEvRT0_S6_RyS7_, symObjAddr: 0x7B29C, symBinAddr: 0x10007BBB0, symSize: 0x1E8 }
  - { offset: 0x75790, size: 0x8, addend: 0x0, symName: __ZNSt3__132__partition_with_equals_on_rightB8ne180100INS_17_ClassicAlgPolicyEPN5Catch8TestCaseERNS_6__lessIvvEEEENS_4pairIT0_bEES9_S9_T1_, symObjAddr: 0x7991C, symBinAddr: 0x10007A230, symSize: 0x2B4 }
  - { offset: 0x7585D, size: 0x8, addend: 0x0, symName: __ZNSt3__127__insertion_sort_incompleteB8ne180100INS_17_ClassicAlgPolicyERNS_6__lessIvvEEPN5Catch8TestCaseEEEbT1_S8_T0_, symObjAddr: 0x79BD0, symBinAddr: 0x10007A4E4, symSize: 0x368 }
  - { offset: 0x775E5, size: 0x8, addend: 0x0, symName: __ZNSt3__17advanceB8ne180100IPNS_4pairIyPKN5Catch8TestCaseEEEllvEEvRT_T0_, symObjAddr: 0x7C334, symBinAddr: 0x10007CC48, symSize: 0x38 }
  - { offset: 0x77887, size: 0x8, addend: 0x0, symName: __ZNSt3__17advanceB8ne180100INS_16reverse_iteratorIPNS_4pairIyPKN5Catch8TestCaseEEEEEllvEEvRT_T0_, symObjAddr: 0x7C724, symBinAddr: 0x10007D038, symSize: 0x38 }
  - { offset: 0x778F6, size: 0x8, addend: 0x0, symName: '__ZNSt3__111__introsortINS_17_ClassicAlgPolicyERZN5Catch9sortTestsERKNS2_7IConfigERKNS_6vectorINS2_8TestCaseENS_9allocatorIS7_EEEEE3$_0PNS_4pairIyPKS7_EELb0EEEvT1_SK_T0_NS_15iterator_traitsISK_E15difference_typeEb', symObjAddr: 0x7D118, symBinAddr: 0x10007DA2C, symSize: 0x434 }
  - { offset: 0x77A22, size: 0x8, addend: 0x0, symName: '__ZNSt3__126__insertion_sort_unguardedB8ne180100INS_17_ClassicAlgPolicyERZN5Catch9sortTestsERKNS2_7IConfigERKNS_6vectorINS2_8TestCaseENS_9allocatorIS7_EEEEE3$_0PNS_4pairIyPKS7_EEEEvT1_SK_T0_', symObjAddr: 0x7D868, symBinAddr: 0x10007E17C, symSize: 0x120 }
  - { offset: 0x77B13, size: 0x8, addend: 0x0, symName: '__ZNSt3__111__sift_downB8ne180100INS_17_ClassicAlgPolicyERZN5Catch9sortTestsERKNS2_7IConfigERKNS_6vectorINS2_8TestCaseENS_9allocatorIS7_EEEEE3$_0PNS_4pairIyPKS7_EEEEvT1_OT0_NS_15iterator_traitsISK_E15difference_typeESK_', symObjAddr: 0x7EB10, symBinAddr: 0x10007F424, symSize: 0x20C }
  - { offset: 0x77BCA, size: 0x8, addend: 0x0, symName: '__ZNSt3__117__floyd_sift_downB8ne180100INS_17_ClassicAlgPolicyERZN5Catch9sortTestsERKNS2_7IConfigERKNS_6vectorINS2_8TestCaseENS_9allocatorIS7_EEEEE3$_0PNS_4pairIyPKS7_EEEET1_SK_OT0_NS_15iterator_traitsISK_E15difference_typeE', symObjAddr: 0x7EEB8, symBinAddr: 0x10007F7CC, symSize: 0x100 }
  - { offset: 0x77C69, size: 0x8, addend: 0x0, symName: '__ZNSt3__131__partition_with_equals_on_leftB8ne180100INS_17_ClassicAlgPolicyEPNS_4pairIyPKN5Catch8TestCaseEEERZNS3_9sortTestsERKNS3_7IConfigERKNS_6vectorIS4_NS_9allocatorIS4_EEEEE3$_0EET0_SK_SK_T1_', symObjAddr: 0x7DB94, symBinAddr: 0x10007E4A8, symSize: 0x20C }
  - { offset: 0x77D24, size: 0x8, addend: 0x0, symName: '__ZNSt3__118__bitset_partitionB8ne180100INS_17_ClassicAlgPolicyEPNS_4pairIyPKN5Catch8TestCaseEEERZNS3_9sortTestsERKNS3_7IConfigERKNS_6vectorIS4_NS_9allocatorIS4_EEEEE3$_0EENS2_IT0_bEESK_SK_T1_', symObjAddr: 0x7DDA0, symBinAddr: 0x10007E6B4, symSize: 0x32C }
  - { offset: 0x77E20, size: 0x8, addend: 0x0, symName: __ZNSt3__124__swap_bitmap_pos_withinB8ne180100INS_17_ClassicAlgPolicyEPNS_4pairIyPKN5Catch8TestCaseEEEEEvRT0_SA_RySB_, symObjAddr: 0x7F608, symBinAddr: 0x10007FF1C, symSize: 0x1E0 }
  - { offset: 0x77EED, size: 0x8, addend: 0x0, symName: '__ZNSt3__132__partition_with_equals_on_rightB8ne180100INS_17_ClassicAlgPolicyEPNS_4pairIyPKN5Catch8TestCaseEEERZNS3_9sortTestsERKNS3_7IConfigERKNS_6vectorIS4_NS_9allocatorIS4_EEEEE3$_0EENS2_IT0_bEESK_SK_T1_', symObjAddr: 0x7E0CC, symBinAddr: 0x10007E9E0, symSize: 0x224 }
  - { offset: 0x77FB7, size: 0x8, addend: 0x0, symName: '__ZNSt3__127__insertion_sort_incompleteB8ne180100INS_17_ClassicAlgPolicyERZN5Catch9sortTestsERKNS2_7IConfigERKNS_6vectorINS2_8TestCaseENS_9allocatorIS7_EEEEE3$_0PNS_4pairIyPKS7_EEEEbT1_SK_T0_', symObjAddr: 0x7E2F0, symBinAddr: 0x10007EC04, symSize: 0x304 }
  - { offset: 0x7842D, size: 0x8, addend: 0x0, symName: __ZNSt3__17advanceB8ne180100INS_16reverse_iteratorIPN5Catch8TestCaseEEEllvEEvRT_T0_, symObjAddr: 0x805DC, symBinAddr: 0x100080EF0, symSize: 0x38 }
  - { offset: 0x787F2, size: 0x8, addend: 0x0, symName: __ZNSt3__17advanceB8ne180100IPNS_10shared_ptrIN5Catch16TestCaseTracking8ITrackerEEEllvEEvRT_T0_, symObjAddr: 0x82588, symBinAddr: 0x100082E9C, symSize: 0x38 }
  - { offset: 0x78A94, size: 0x8, addend: 0x0, symName: __ZNSt3__17advanceB8ne180100INS_16reverse_iteratorIPNS_10shared_ptrIN5Catch16TestCaseTracking8ITrackerEEEEEllvEEvRT_T0_, symObjAddr: 0x82940, symBinAddr: 0x100083254, symSize: 0x38 }
  - { offset: 0x78B04, size: 0x8, addend: 0x0, symName: __ZNSt3__17advanceB8ne180100INS_11__wrap_iterIPKNS_12basic_stringIcNS_11char_traitsIcEENS_9allocatorIcEEEEEEllvEEvRT_T0_, symObjAddr: 0x83608, symBinAddr: 0x100083F1C, symSize: 0x38 }
  - { offset: 0x795F7, size: 0x8, addend: 0x0, symName: __ZNSt3__17advanceB8ne180100IPNS_10shared_ptrIN5Catch8TestSpec7PatternEEEllvEEvRT_T0_, symObjAddr: 0x88A20, symBinAddr: 0x100089334, symSize: 0x38 }
  - { offset: 0x7989A, size: 0x8, addend: 0x0, symName: __ZNSt3__17advanceB8ne180100IPN5Catch8TestSpec6FilterEllvEEvRT_T0_, symObjAddr: 0x89094, symBinAddr: 0x1000899A8, symSize: 0x38 }
  - { offset: 0x79EBD, size: 0x8, addend: 0x0, symName: __ZNSt3__17advanceB8ne180100INS_16reverse_iteratorIPN5Catch8TestSpec6FilterEEEllvEEvRT_T0_, symObjAddr: 0x8B408, symBinAddr: 0x10008BD1C, symSize: 0x38 }
  - { offset: 0x7A2AD, size: 0x8, addend: 0x0, symName: __ZNSt3__17advanceB8ne180100INS_16reverse_iteratorIPNS_10shared_ptrIN5Catch8TestSpec7PatternEEEEEllvEEvRT_T0_, symObjAddr: 0x8C744, symBinAddr: 0x10008D058, symSize: 0x38 }
  - { offset: 0x7A7F0, size: 0x8, addend: 0x0, symName: __ZNSt3__17advanceB8ne180100IPN5Catch12_GLOBAL__N_110ColumnInfoEllvEEvRT_T0_, symObjAddr: 0x8F570, symBinAddr: 0x10008FE84, symSize: 0x38 }
  - { offset: 0x7ABE1, size: 0x8, addend: 0x0, symName: __ZNSt3__17advanceB8ne180100IPN5Catch13SummaryColumnEllvEEvRT_T0_, symObjAddr: 0x918D4, symBinAddr: 0x1000921E8, symSize: 0x38 }
  - { offset: 0x7AE83, size: 0x8, addend: 0x0, symName: __ZNSt3__17advanceB8ne180100INS_16reverse_iteratorIPN5Catch13SummaryColumnEEEllvEEvRT_T0_, symObjAddr: 0x91CE0, symBinAddr: 0x1000925F4, symSize: 0x38 }
  - { offset: 0x7CA40, size: 0x8, addend: 0x0, symName: __ZNSt3__17advanceB8ne180100IPNS_10unique_ptrIN5Catch18IStreamingReporterENS_14default_deleteIS3_EEEEllvEEvRT_T0_, symObjAddr: 0x95438, symBinAddr: 0x100095D4C, symSize: 0x38 }
  - { offset: 0x7CCE2, size: 0x8, addend: 0x0, symName: __ZNSt3__17advanceB8ne180100INS_16reverse_iteratorIPNS_10unique_ptrIN5Catch18IStreamingReporterENS_14default_deleteIS4_EEEEEEllvEEvRT_T0_, symObjAddr: 0x9583C, symBinAddr: 0x100096150, symSize: 0x38 }
  - { offset: 0x7CF84, size: 0x8, addend: 0x0, symName: __ZNSt3__124__put_character_sequenceB8ne180100IcNS_11char_traitsIcEEEERNS_13basic_ostreamIT_T0_EES7_PKS4_m, symObjAddr: 0x998FC, symBinAddr: 0x10009A210, symSize: 0x1E0 }
  - { offset: 0x7D658, size: 0x8, addend: 0x0, symName: __ZNSt3__17advanceB8ne180100INS_16reverse_iteratorIPN5Catch5clara6detail3OptEEEllvEEvRT_T0_, symObjAddr: 0x9C2D0, symBinAddr: 0x10009CBE4, symSize: 0x38 }
  - { offset: 0x81475, size: 0x8, addend: 0x0, symName: __ZNSt3__17advanceB8ne180100INS_16reverse_iteratorIPN5Catch5clara6detail3ArgEEEllvEEvRT_T0_, symObjAddr: 0xAC58C, symBinAddr: 0x1000ACEA0, symSize: 0x38 }
  - { offset: 0x84EE3, size: 0x8, addend: 0x0, symName: __ZNSt3__17advanceB8ne180100IPKcllvEEvRT_T0_, symObjAddr: 0xB37D0, symBinAddr: 0x1000B40E4, symSize: 0x38 }
  - { offset: 0x84F53, size: 0x8, addend: 0x0, symName: __ZNSt3__17advanceB8ne180100INS_11__wrap_iterIPKcEEllvEEvRT_T0_, symObjAddr: 0xB3A48, symBinAddr: 0x1000B435C, symSize: 0x38 }
  - { offset: 0x866B5, size: 0x8, addend: 0x0, symName: __ZNSt3__17advanceB8ne180100IPNS_7__stateIcEEllvEEvRT_T0_, symObjAddr: 0xB76A8, symBinAddr: 0x1000B7FBC, symSize: 0x38 }
  - { offset: 0x86957, size: 0x8, addend: 0x0, symName: __ZNSt3__17advanceB8ne180100INS_16reverse_iteratorIPNS_7__stateIcEEEEllvEEvRT_T0_, symObjAddr: 0xB7AB4, symBinAddr: 0x1000B83C8, symSize: 0x38 }
  - { offset: 0x86D48, size: 0x8, addend: 0x0, symName: __ZNSt3__17advanceB8ne180100IPNS_9sub_matchIPKcEEllvEEvRT_T0_, symObjAddr: 0xB900C, symBinAddr: 0x1000B9920, symSize: 0x38 }
  - { offset: 0x86FEA, size: 0x8, addend: 0x0, symName: __ZNSt3__17advanceB8ne180100INS_16reverse_iteratorIPNS_9sub_matchIPKcEEEEllvEEvRT_T0_, symObjAddr: 0xB93CC, symBinAddr: 0x1000B9CE0, symSize: 0x38 }
  - { offset: 0x873DB, size: 0x8, addend: 0x0, symName: __ZNSt3__17advanceB8ne180100IPNS_4pairImPKcEEllvEEvRT_T0_, symObjAddr: 0xBA71C, symBinAddr: 0x1000BB030, symSize: 0x38 }
  - { offset: 0x8767D, size: 0x8, addend: 0x0, symName: __ZNSt3__17advanceB8ne180100INS_16reverse_iteratorIPNS_4pairImPKcEEEEllvEEvRT_T0_, symObjAddr: 0xBAAD4, symBinAddr: 0x1000BB3E8, symSize: 0x38 }
  - { offset: 0x8C222, size: 0x8, addend: 0x0, symName: __ZNSt3__17advanceB8ne180100IPNS_4pairINS_12basic_stringIcNS_11char_traitsIcEENS_9allocatorIcEEEES7_EEllvEEvRT_T0_, symObjAddr: 0xC7138, symBinAddr: 0x1000C7A4C, symSize: 0x38 }
  - { offset: 0x8C4C4, size: 0x8, addend: 0x0, symName: __ZNSt3__17advanceB8ne180100INS_16reverse_iteratorIPNS_4pairINS_12basic_stringIcNS_11char_traitsIcEENS_9allocatorIcEEEES8_EEEEllvEEvRT_T0_, symObjAddr: 0xC74F8, symBinAddr: 0x1000C7E0C, symSize: 0x38 }
  - { offset: 0x8C8B5, size: 0x8, addend: 0x0, symName: __ZNSt3__17advanceB8ne180100IPNS_4pairIccEEllvEEvRT_T0_, symObjAddr: 0xC8718, symBinAddr: 0x1000C902C, symSize: 0x38 }
  - { offset: 0x8CB57, size: 0x8, addend: 0x0, symName: __ZNSt3__17advanceB8ne180100INS_16reverse_iteratorIPNS_4pairIccEEEEllvEEvRT_T0_, symObjAddr: 0xC8AD0, symBinAddr: 0x1000C93E4, symSize: 0x38 }
  - { offset: 0x8F14A, size: 0x8, addend: 0x0, symName: __ZNSt3__17advanceB8ne180100IPNS_9sub_matchINS_11__wrap_iterIPKcEEEEllvEEvRT_T0_, symObjAddr: 0xD42F4, symBinAddr: 0x1000D4C08, symSize: 0x38 }
  - { offset: 0x8F3EC, size: 0x8, addend: 0x0, symName: __ZNSt3__17advanceB8ne180100INS_16reverse_iteratorIPNS_9sub_matchINS_11__wrap_iterIPKcEEEEEEllvEEvRT_T0_, symObjAddr: 0xD46B4, symBinAddr: 0x1000D4FC8, symSize: 0x38 }
  - { offset: 0x92C3E, size: 0x8, addend: 0x0, symName: __ZNSt3__17advanceB8ne180100INS_21__tree_const_iteratorIN5Catch9VerbosityEPNS_11__tree_nodeIS3_PvEElEEllvEEvRT_T0_, symObjAddr: 0xE3AA0, symBinAddr: 0x1000E43B4, symSize: 0x38 }
  - { offset: 0x9385D, size: 0x8, addend: 0x0, symName: __ZNSt3__17advanceB8ne180100IPN5Catch11SectionInfoEllvEEvRT_T0_, symObjAddr: 0xE6954, symBinAddr: 0x1000E7268, symSize: 0x38 }
  - { offset: 0x93AFF, size: 0x8, addend: 0x0, symName: __ZNSt3__17advanceB8ne180100INS_16reverse_iteratorIPN5Catch11SectionInfoEEEllvEEvRT_T0_, symObjAddr: 0xE6D0C, symBinAddr: 0x1000E7620, symSize: 0x38 }
  - { offset: 0x9472D, size: 0x8, addend: 0x0, symName: __ZNSt3__17advanceB8ne180100IPN5Catch14AssertionStatsEllvEEvRT_T0_, symObjAddr: 0xE9B94, symBinAddr: 0x1000EA4A8, symSize: 0x38 }
  - { offset: 0x949CF, size: 0x8, addend: 0x0, symName: __ZNSt3__17advanceB8ne180100INS_16reverse_iteratorIPN5Catch14AssertionStatsEEEllvEEvRT_T0_, symObjAddr: 0xE9F54, symBinAddr: 0x1000EA868, symSize: 0x38 }
  - { offset: 0x951BF, size: 0x8, addend: 0x0, symName: __ZNSt3__17advanceB8ne180100IPNS_10shared_ptrIN5Catch22CumulativeReporterBaseINS2_13JunitReporterEE11SectionNodeEEEllvEEvRT_T0_, symObjAddr: 0xEC000, symBinAddr: 0x1000EC914, symSize: 0x38 }
  - { offset: 0x95461, size: 0x8, addend: 0x0, symName: __ZNSt3__17advanceB8ne180100INS_16reverse_iteratorIPNS_10shared_ptrIN5Catch22CumulativeReporterBaseINS3_13JunitReporterEE11SectionNodeEEEEEllvEEvRT_T0_, symObjAddr: 0xEC3B8, symBinAddr: 0x1000ECCCC, symSize: 0x38 }
  - { offset: 0x95852, size: 0x8, addend: 0x0, symName: __ZNSt3__17advanceB8ne180100IPNS_10shared_ptrIN5Catch22CumulativeReporterBaseINS2_13JunitReporterEE4NodeINS2_13TestCaseStatsENS5_11SectionNodeEEEEEllvEEvRT_T0_, symObjAddr: 0xED63C, symBinAddr: 0x1000EDF50, symSize: 0x38 }
  - { offset: 0x95AF4, size: 0x8, addend: 0x0, symName: __ZNSt3__17advanceB8ne180100INS_16reverse_iteratorIPNS_10shared_ptrIN5Catch22CumulativeReporterBaseINS3_13JunitReporterEE4NodeINS3_13TestCaseStatsENS6_11SectionNodeEEEEEEEllvEEvRT_T0_, symObjAddr: 0xED9F4, symBinAddr: 0x1000EE308, symSize: 0x38 }
  - { offset: 0x9630C, size: 0x8, addend: 0x0, symName: __ZNSt3__17advanceB8ne180100IPNS_10shared_ptrIN5Catch22CumulativeReporterBaseINS2_13JunitReporterEE4NodeINS2_14TestGroupStatsENS6_INS2_13TestCaseStatsENS5_11SectionNodeEEEEEEEllvEEvRT_T0_, symObjAddr: 0xEFA58, symBinAddr: 0x1000F036C, symSize: 0x38 }
  - { offset: 0x965AE, size: 0x8, addend: 0x0, symName: __ZNSt3__17advanceB8ne180100INS_16reverse_iteratorIPNS_10shared_ptrIN5Catch22CumulativeReporterBaseINS3_13JunitReporterEE4NodeINS3_14TestGroupStatsENS7_INS3_13TestCaseStatsENS6_11SectionNodeEEEEEEEEEllvEEvRT_T0_, symObjAddr: 0xEFE10, symBinAddr: 0x1000F0724, symSize: 0x38 }
  - { offset: 0x98267, size: 0x8, addend: 0x0, symName: __ZNSt3__17advanceB8ne180100IPNS_10shared_ptrIN5Catch22CumulativeReporterBaseINS2_13JunitReporterEE4NodeINS2_12TestRunStatsENS6_INS2_14TestGroupStatsENS6_INS2_13TestCaseStatsENS5_11SectionNodeEEEEEEEEEllvEEvRT_T0_, symObjAddr: 0xF5814, symBinAddr: 0x1000F6128, symSize: 0x38 }
  - { offset: 0x98509, size: 0x8, addend: 0x0, symName: __ZNSt3__17advanceB8ne180100INS_16reverse_iteratorIPNS_10shared_ptrIN5Catch22CumulativeReporterBaseINS3_13JunitReporterEE4NodeINS3_12TestRunStatsENS7_INS3_14TestGroupStatsENS7_INS3_13TestCaseStatsENS6_11SectionNodeEEEEEEEEEEEllvEEvRT_T0_, symObjAddr: 0xF5BCC, symBinAddr: 0x1000F64E0, symSize: 0x38 }
  - { offset: 0x9AFA1, size: 0x8, addend: 0x0, symName: __ZNSt3__16__math5isinfB8ne180100EUa9enable_ifIXLb1EEEd, symObjAddr: 0x4D8, symBinAddr: 0x100000DEC, symSize: 0x28 }
  - { offset: 0x9AFCF, size: 0x8, addend: 0x0, symName: __ZNSt3__16__math5isnanB8ne180100Ef, symObjAddr: 0x115D8, symBinAddr: 0x100011EEC, symSize: 0x1C }
  - { offset: 0x9AFFD, size: 0x8, addend: 0x0, symName: __ZNSt3__16__math5isnanB8ne180100EUa9enable_ifIXLb1EEEd, symObjAddr: 0x1161C, symBinAddr: 0x100011F30, symSize: 0x1C }
  - { offset: 0x9B072, size: 0x8, addend: 0x0, symName: __ZNSt3__1lsB8ne180100INS_11char_traitsIcEEEERNS_13basic_ostreamIcT_EES6_PKc, symObjAddr: 0xBC8, symBinAddr: 0x1000014DC, symSize: 0x48 }
  - { offset: 0x9B0B8, size: 0x8, addend: 0x0, symName: __ZNSt3__1eqB8ne180100INS_9allocatorIcEEEEbRKNS_12basic_stringIcNS_11char_traitsIcEET_EES9_, symObjAddr: 0x1CC4, symBinAddr: 0x1000025D8, symSize: 0x148 }
  - { offset: 0x9B12B, size: 0x8, addend: 0x0, symName: __ZNSt3__1lsB8ne180100INS_11char_traitsIcEEEERNS_13basic_ostreamIcT_EES6_c, symObjAddr: 0x5A50, symBinAddr: 0x100006364, symSize: 0x34 }
  - { offset: 0x9B172, size: 0x8, addend: 0x0, symName: __ZNSt3__1neB8ne180100IPNS_12basic_stringIcNS_11char_traitsIcEENS_9allocatorIcEEEEEEbRKNS_11__wrap_iterIT_EESC_, symObjAddr: 0x5FD4, symBinAddr: 0x1000068E8, symSize: 0x34 }
  - { offset: 0x9B1B7, size: 0x8, addend: 0x0, symName: __ZNSt3__1lsB8ne180100IcNS_11char_traitsIcEENS_9allocatorIcEEEERNS_13basic_ostreamIT_T0_EES9_RKNS_12basic_stringIS6_S7_T1_EE, symObjAddr: 0x7210, symBinAddr: 0x100007B24, symSize: 0x4C }
  - { offset: 0x9B20F, size: 0x8, addend: 0x0, symName: __ZNSt3__14endlB8ne180100IcNS_11char_traitsIcEEEERNS_13basic_ostreamIT_T0_EES7_, symObjAddr: 0x73B8, symBinAddr: 0x100007CCC, symSize: 0x58 }
  - { offset: 0x9B250, size: 0x8, addend: 0x0, symName: __ZNSt3__1neB8ne180100IPN5Catch9StringRefEEEbRKNS_11__wrap_iterIT_EES8_, symObjAddr: 0x7CB4, symBinAddr: 0x1000085C8, symSize: 0x34 }
  - { offset: 0x9B296, size: 0x8, addend: 0x0, symName: __ZNSt3__1neB8ne180100IPKNS_4pairIiN5Catch9StringRefEEEEEbRKNS_11__wrap_iterIT_EESB_, symObjAddr: 0x8194, symBinAddr: 0x100008AA8, symSize: 0x34 }
  - { offset: 0x9B2DC, size: 0x8, addend: 0x0, symName: __ZNSt3__1neB8ne180100IPKiEEbRKNS_11__wrap_iterIT_EES7_, symObjAddr: 0x865C, symBinAddr: 0x100008F70, symSize: 0x34 }
  - { offset: 0x9B322, size: 0x8, addend: 0x0, symName: __ZNSt3__13maxB8ne180100ImEERKT_S3_S3_, symObjAddr: 0x9214, symBinAddr: 0x100009B28, symSize: 0x2C }
  - { offset: 0x9B368, size: 0x8, addend: 0x0, symName: __ZNSt3__1neB8ne180100IPN5Catch8TestCaseEEEbRKNS_11__wrap_iterIT_EES8_, symObjAddr: 0xB114, symBinAddr: 0x10000BA28, symSize: 0x34 }
  - { offset: 0x9B3AD, size: 0x8, addend: 0x0, symName: __ZNSt3__1neB8ne180100ERKNS_21__tree_const_iteratorINS_12basic_stringIcNS_11char_traitsIcEENS_9allocatorIcEEEEPNS_11__tree_nodeIS6_PvEElEESD_, symObjAddr: 0xBB64, symBinAddr: 0x10000C478, symSize: 0x34 }
  - { offset: 0x9B3EB, size: 0x8, addend: 0x0, symName: __ZNSt3__1neB8ne180100IPKNS_12basic_stringIcNS_11char_traitsIcEENS_9allocatorIcEEEEEEbRKNS_11__wrap_iterIT_EESD_, symObjAddr: 0xC30C, symBinAddr: 0x10000CC20, symSize: 0x34 }
  - { offset: 0x9B430, size: 0x8, addend: 0x0, symName: __ZNSt3__1eqB8ne180100ERKNS_14__map_iteratorINS_15__tree_iteratorINS_12__value_typeINS_12basic_stringIcNS_11char_traitsIcEENS_9allocatorIcEEEEN5Catch7TagInfoEEEPNS_11__tree_nodeISB_PvEElEEEESJ_, symObjAddr: 0xC438, symBinAddr: 0x10000CD4C, symSize: 0x30 }
  - { offset: 0x9B553, size: 0x8, addend: 0x0, symName: __ZNSt3__19make_pairB8ne180100IRNS_12basic_stringIcNS_11char_traitsIcEENS_9allocatorIcEEEEN5Catch7TagInfoEEENS_4pairINS_18__unwrap_ref_decayIT_E4typeENSB_IT0_E4typeEEEOSC_OSF_, symObjAddr: 0xC4EC, symBinAddr: 0x10000CE00, symSize: 0x40 }
  - { offset: 0x9B5A2, size: 0x8, addend: 0x0, symName: __ZNSt3__1neB8ne180100ERKNS_14__map_iteratorINS_15__tree_iteratorINS_12__value_typeINS_12basic_stringIcNS_11char_traitsIcEENS_9allocatorIcEEEEN5Catch7TagInfoEEEPNS_11__tree_nodeISB_PvEElEEEESJ_, symObjAddr: 0xC634, symBinAddr: 0x10000CF48, symSize: 0x30 }
  - { offset: 0x9B5E0, size: 0x8, addend: 0x0, symName: __ZNSt3__14setwB8ne180100Ei, symObjAddr: 0xC6C4, symBinAddr: 0x10000CFD8, symSize: 0x2C }
  - { offset: 0x9B60D, size: 0x8, addend: 0x0, symName: __ZNSt3__1neB8ne180100ERKNS_20__map_const_iteratorINS_21__tree_const_iteratorINS_12__value_typeINS_12basic_stringIcNS_11char_traitsIcEENS_9allocatorIcEEEENS_10shared_ptrIN5Catch16IReporterFactoryEEEEEPNS_11__tree_nodeISD_PvEElEEEESL_, symObjAddr: 0xCBCC, symBinAddr: 0x10000D4E0, symSize: 0x30 }
  - { offset: 0x9B64A, size: 0x8, addend: 0x0, symName: __ZNSt3__1plB8ne180100IcNS_11char_traitsIcEENS_9allocatorIcEEEENS_12basic_stringIT_T0_T1_EERKS9_PKS6_, symObjAddr: 0xCD98, symBinAddr: 0x10000D6AC, symSize: 0x11C }
  - { offset: 0x9B6EB, size: 0x8, addend: 0x0, symName: __ZNSt3__1eqB8ne180100IcNS_11char_traitsIcEENS_9allocatorIcEEEEbRKNS_12basic_stringIT_T0_T1_EEPKS6_, symObjAddr: 0xD504, symBinAddr: 0x10000DE18, symSize: 0x5C }
  - { offset: 0x9B743, size: 0x8, addend: 0x0, symName: __ZNSt3__1plB8ne180100IcNS_11char_traitsIcEENS_9allocatorIcEEEENS_12basic_stringIT_T0_T1_EEOS9_PKS6_, symObjAddr: 0xD600, symBinAddr: 0x10000DF14, symSize: 0x40 }
  - { offset: 0x9B79B, size: 0x8, addend: 0x0, symName: __ZNSt3__1plB8ne180100IcNS_11char_traitsIcEENS_9allocatorIcEEEENS_12basic_stringIT_T0_T1_EEOS9_SA_, symObjAddr: 0xDAF8, symBinAddr: 0x10000E40C, symSize: 0x40 }
  - { offset: 0x9B7F3, size: 0x8, addend: 0x0, symName: __ZNSt3__1plB8ne180100IcNS_11char_traitsIcEENS_9allocatorIcEEEENS_12basic_stringIT_T0_T1_EEPKS6_OS9_, symObjAddr: 0xDB38, symBinAddr: 0x10000E44C, symSize: 0x44 }
  - { offset: 0x9C255, size: 0x8, addend: 0x0, symName: __ZNSt3__13maxB8ne180100IdEERKT_S3_S3_, symObjAddr: 0xEA04, symBinAddr: 0x10000F318, symSize: 0x2C }
  - { offset: 0x9C29A, size: 0x8, addend: 0x0, symName: __ZNSt3__1plB8ne180100IcNS_11char_traitsIcEENS_9allocatorIcEEEENS_12basic_stringIT_T0_T1_EEOS9_S6_, symObjAddr: 0xEEE8, symBinAddr: 0x10000F7FC, symSize: 0x40 }
  - { offset: 0x9C2F2, size: 0x8, addend: 0x0, symName: __ZNSt3__111regex_matchB8ne180100INS_11char_traitsIcEENS_9allocatorIcEEcNS_12regex_traitsIcEEEEbRKNS_12basic_stringIT1_T_T0_EERKNS_11basic_regexIS8_T2_EENS_15regex_constants15match_flag_typeE, symObjAddr: 0xFCB4, symBinAddr: 0x1000105C8, symSize: 0x54 }
  - { offset: 0x9C53F, size: 0x8, addend: 0x0, symName: __ZNSt3__1eqB8ne180100ERKNS_20__map_const_iteratorINS_21__tree_const_iteratorINS_12__value_typeINS_12basic_stringIcNS_11char_traitsIcEENS_9allocatorIcEEEENS_10shared_ptrIN5Catch16IReporterFactoryEEEEEPNS_11__tree_nodeISD_PvEElEEEESL_, symObjAddr: 0x11BE0, symBinAddr: 0x1000124F4, symSize: 0x30 }
  - { offset: 0x9C57D, size: 0x8, addend: 0x0, symName: __ZNSt3__16removeB8ne180100INS_11__wrap_iterIPN5Catch11MessageInfoEEES3_EET_S6_S6_RKT0_, symObjAddr: 0x1470C, symBinAddr: 0x100015020, symSize: 0xF4 }
  - { offset: 0x9C5F8, size: 0x8, addend: 0x0, symName: __ZNSt3__1neB8ne180100INS_11__wrap_iterIPN5Catch14SectionEndInfoEEES5_EEbRKNS_16reverse_iteratorIT_EERKNS6_IT0_EE, symObjAddr: 0x15228, symBinAddr: 0x100015B3C, symSize: 0x54 }
  - { offset: 0x9C647, size: 0x8, addend: 0x0, symName: __ZNSt3__1neB8ne180100IPKSt13exception_ptrEEbRKNS_11__wrap_iterIT_EES8_, symObjAddr: 0x16530, symBinAddr: 0x100016E44, symSize: 0x34 }
  - { offset: 0x9C68D, size: 0x8, addend: 0x0, symName: __ZNSt3__1lsB8ne180100IcNS_11char_traitsIcEEEERNS_13basic_ostreamIT_T0_EES7_RKNS_8__iom_t6E, symObjAddr: 0x16A64, symBinAddr: 0x100017378, symSize: 0x40 }
  - { offset: 0x9C6DB, size: 0x8, addend: 0x0, symName: __ZNSt3__14leftB8ne180100ERNS_8ios_baseE, symObjAddr: 0x16AE4, symBinAddr: 0x1000173F8, symSize: 0x30 }
  - { offset: 0x9C709, size: 0x8, addend: 0x0, symName: __ZNSt3__111make_sharedB8ne180100IN5Catch6ConfigEJRNS1_10ConfigDataEEvEENS_10shared_ptrIT_EEDpOT0_, symObjAddr: 0x17660, symBinAddr: 0x100017F74, symSize: 0x40 }
  - { offset: 0x9C74F, size: 0x8, addend: 0x0, symName: __ZNSt3__13minB8ne180100IiEERKT_S3_S3_, symObjAddr: 0x17914, symBinAddr: 0x100018228, symSize: 0x2C }
  - { offset: 0x9CF73, size: 0x8, addend: 0x0, symName: __ZNSt3__13maxB8ne180100IiEERKT_S3_S3_, symObjAddr: 0x17C7C, symBinAddr: 0x100018590, symSize: 0x2C }
  - { offset: 0x9CFB9, size: 0x8, addend: 0x0, symName: __ZNSt3__1neB8ne180100IPPN5Catch10ISingletonEEEbRKNS_11__wrap_iterIT_EES9_, symObjAddr: 0x17EC0, symBinAddr: 0x1000187D4, symSize: 0x34 }
  - { offset: 0x9DCB1, size: 0x8, addend: 0x0, symName: __ZNSt3__15equalB8ne180100INS_11__wrap_iterIPKcEES4_EEbT_S5_T0_, symObjAddr: 0x18678, symBinAddr: 0x100018F8C, symSize: 0x50 }
  - { offset: 0x9DD0F, size: 0x8, addend: 0x0, symName: __ZNSt3__15equalB8ne180100INS_16reverse_iteratorINS_11__wrap_iterIPKcEEEES6_EEbT_S7_T0_, symObjAddr: 0x187B0, symBinAddr: 0x1000190C4, symSize: 0x68 }
  - { offset: 0x9DD6D, size: 0x8, addend: 0x0, symName: __ZNSt3__19transformB8ne180100INS_11__wrap_iterIPcEES3_PFccEEET0_T_S7_S6_T1_, symObjAddr: 0x189EC, symBinAddr: 0x100019300, symSize: 0x98 }
  - { offset: 0x9DDE2, size: 0x8, addend: 0x0, symName: __ZNSt3__1plB8ne180100IcNS_11char_traitsIcEENS_9allocatorIcEEEENS_12basic_stringIT_T0_T1_EEOS9_RKS9_, symObjAddr: 0x18FC4, symBinAddr: 0x1000198D8, symSize: 0x40 }
  - { offset: 0x9DE3B, size: 0x8, addend: 0x0, symName: __ZNSt3__13minB8ne180100ImEERKT_S3_S3_, symObjAddr: 0x19248, symBinAddr: 0x100019B5C, symSize: 0x2C }
  - { offset: 0x9DE80, size: 0x8, addend: 0x0, symName: __ZNSt3__1neB8ne180100ERKNS_20__map_const_iteratorINS_21__tree_const_iteratorINS_12__value_typeINS_12basic_stringIcNS_11char_traitsIcEENS_9allocatorIcEEEEN5Catch8TagAliasEEEPNS_11__tree_nodeISB_PvEElEEEESJ_, symObjAddr: 0x19614, symBinAddr: 0x100019F28, symSize: 0x30 }
  - { offset: 0x9DFA3, size: 0x8, addend: 0x0, symName: __ZNSt3__19make_pairB8ne180100IRKNS_12basic_stringIcNS_11char_traitsIcEENS_9allocatorIcEEEEN5Catch8TagAliasEEENS_4pairINS_18__unwrap_ref_decayIT_E4typeENSC_IT0_E4typeEEEOSD_OSG_, symObjAddr: 0x19D88, symBinAddr: 0x10001A69C, symSize: 0x40 }
  - { offset: 0x9DFF2, size: 0x8, addend: 0x0, symName: __ZNSt3__14sortB8ne180100INS_11__wrap_iterIPNS_12basic_stringIcNS_11char_traitsIcEENS_9allocatorIcEEEEEEEEvT_SA_, symObjAddr: 0x1A998, symBinAddr: 0x10001B2AC, symSize: 0x3C }
  - { offset: 0x9E035, size: 0x8, addend: 0x0, symName: __ZNSt3__15beginB8ne180100INS_6vectorINS_12basic_stringIcNS_11char_traitsIcEENS_9allocatorIcEEEENS5_IS7_EEEEEEDTcldtfp_5beginEERT_, symObjAddr: 0x1A9D4, symBinAddr: 0x10001B2E8, symSize: 0x2C }
  - { offset: 0x9E06C, size: 0x8, addend: 0x0, symName: __ZNSt3__13endB8ne180100INS_6vectorINS_12basic_stringIcNS_11char_traitsIcEENS_9allocatorIcEEEENS5_IS7_EEEEEEDTcldtfp_3endEERT_, symObjAddr: 0x1AA00, symBinAddr: 0x10001B314, symSize: 0x2C }
  - { offset: 0x9E0A3, size: 0x8, addend: 0x0, symName: __ZNSt3__16uniqueB8ne180100INS_11__wrap_iterIPNS_12basic_stringIcNS_11char_traitsIcEENS_9allocatorIcEEEEEEEET_SA_SA_, symObjAddr: 0x1AB0C, symBinAddr: 0x10001B420, symSize: 0x44 }
  - { offset: 0x9E0E9, size: 0x8, addend: 0x0, symName: __ZNSt3__1ltB8ne180100ENS_15strong_orderingENS_20_CmpUnspecifiedParamE, symObjAddr: 0x1B1A4, symBinAddr: 0x10001BAB8, symSize: 0x24 }
  - { offset: 0x9E121, size: 0x8, addend: 0x0, symName: __ZNSt3__1ssB8ne180100IcNS_11char_traitsIcEENS_9allocatorIcEEEEDaRKNS_12basic_stringIT_T0_T1_EESC_, symObjAddr: 0x1B1C8, symBinAddr: 0x10001BADC, symSize: 0x5C }
  - { offset: 0x9E197, size: 0x8, addend: 0x0, symName: __ZNSt3__14sortB8ne180100INS_11__wrap_iterIPN5Catch8TestCaseEEEEEvT_S6_, symObjAddr: 0x1B5C4, symBinAddr: 0x10001BED8, symSize: 0x3C }
  - { offset: 0x9E1DA, size: 0x8, addend: 0x0, symName: __ZNSt3__1neB8ne180100IPKN5Catch8TestCaseEEEbRKNS_11__wrap_iterIT_EES9_, symObjAddr: 0x1B7A8, symBinAddr: 0x10001C0BC, symSize: 0x34 }
  - { offset: 0x9E21F, size: 0x8, addend: 0x0, symName: '__ZNSt3__14sortB8ne180100INS_11__wrap_iterIPNS_4pairIyPKN5Catch8TestCaseEEEEEZNS3_9sortTestsERKNS3_7IConfigERKNS_6vectorIS4_NS_9allocatorIS4_EEEEE3$_0EEvT_SK_T0_', symObjAddr: 0x1B9C0, symBinAddr: 0x10001C2D4, symSize: 0x40 }
  - { offset: 0x9E27A, size: 0x8, addend: 0x0, symName: __ZNSt3__1neB8ne180100IPNS_4pairIyPKN5Catch8TestCaseEEEEEbRKNS_11__wrap_iterIT_EESC_, symObjAddr: 0x1BB9C, symBinAddr: 0x10001C4B0, symSize: 0x34 }
  - { offset: 0x9EFB6, size: 0x8, addend: 0x0, symName: __ZNSt3__111make_sharedB8ne180100IN5Catch16TestCaseTracking14SectionTrackerEJNS2_15NameAndLocationERNS2_14TrackerContextEDnEvEENS_10shared_ptrIT_EEDpOT0_, symObjAddr: 0x1C860, symBinAddr: 0x10001D174, symSize: 0x50 }
  - { offset: 0x9F026, size: 0x8, addend: 0x0, symName: '__ZNSt3__17find_ifB8ne180100INS_11__wrap_iterIPNS_10shared_ptrIN5Catch16TestCaseTracking8ITrackerEEEEEZNS4_11TrackerBase9findChildERKNS4_15NameAndLocationEE3$_0EET_SE_SE_T0_', symObjAddr: 0x1CE0C, symBinAddr: 0x10001D720, symSize: 0x78 }
  - { offset: 0x9F084, size: 0x8, addend: 0x0, symName: __ZNSt3__1neB8ne180100IPNS_10shared_ptrIN5Catch16TestCaseTracking8ITrackerEEEEEbRKNS_11__wrap_iterIT_EESB_, symObjAddr: 0x1CEE4, symBinAddr: 0x10001D7F8, symSize: 0x34 }
  - { offset: 0x9F0CA, size: 0x8, addend: 0x0, symName: '__ZNSt3__16all_ofB8ne180100INS_11__wrap_iterIPNS_10shared_ptrIN5Catch16TestCaseTracking8ITrackerEEEEEZNS4_11TrackerBase5closeEvE3$_0EEbT_SB_T0_', symObjAddr: 0x1D408, symBinAddr: 0x10001DD1C, symSize: 0x94 }
  - { offset: 0x9F128, size: 0x8, addend: 0x0, symName: __ZNSt3__14findB8ne180100INS_11__wrap_iterIPKNS_12basic_stringIcNS_11char_traitsIcEENS_9allocatorIcEEEEEES7_EET_SB_SB_RKT0_, symObjAddr: 0x1D970, symBinAddr: 0x10001E284, symSize: 0x78 }
  - { offset: 0x9F194, size: 0x8, addend: 0x0, symName: __ZNSt3__119static_pointer_castB8ne180100IN5Catch16TestCaseTracking14SectionTrackerENS2_8ITrackerEEENS_10shared_ptrIT_EERKNS5_IT0_EE, symObjAddr: 0x1DA74, symBinAddr: 0x10001E388, symSize: 0x44 }
  - { offset: 0x9F1D4, size: 0x8, addend: 0x0, symName: __ZNSt3__111make_sharedB8ne180100IN5Catch16TestCaseTracking14SectionTrackerEJRKNS2_15NameAndLocationERNS2_14TrackerContextEPNS2_8ITrackerEEvEENS_10shared_ptrIT_EEDpOT0_, symObjAddr: 0x1DB08, symBinAddr: 0x10001E41C, symSize: 0x50 }
  - { offset: 0x9F244, size: 0x8, addend: 0x0, symName: __ZNSt3__15beginB8ne180100INS_6vectorINS_12basic_stringIcNS_11char_traitsIcEENS_9allocatorIcEEEENS5_IS7_EEEEEEDTcldtfp_5beginEERKT_, symObjAddr: 0x1E7A0, symBinAddr: 0x10001F0B4, symSize: 0x2C }
  - { offset: 0x9F27B, size: 0x8, addend: 0x0, symName: __ZNSt3__13endB8ne180100INS_6vectorINS_12basic_stringIcNS_11char_traitsIcEENS_9allocatorIcEEEENS5_IS7_EEEEEEDTcldtfp_3endEERKT_, symObjAddr: 0x1E7CC, symBinAddr: 0x10001F0E0, symSize: 0x2C }
  - { offset: 0x9F2B2, size: 0x8, addend: 0x0, symName: '__ZNSt3__16all_ofB8ne180100INS_11__wrap_iterIPKNS_10shared_ptrIN5Catch8TestSpec7PatternEEEEEZNKS4_6Filter7matchesERKNS3_12TestCaseInfoEE3$_0EEbT_SF_T0_', symObjAddr: 0x1E97C, symBinAddr: 0x10001F290, symSize: 0x98 }
  - { offset: 0x9F310, size: 0x8, addend: 0x0, symName: __ZNSt3__1neB8ne180100IPKNS_10shared_ptrIN5Catch8TestSpec7PatternEEEEEbRKNS_11__wrap_iterIT_EESC_, symObjAddr: 0x1EB7C, symBinAddr: 0x10001F490, symSize: 0x34 }
  - { offset: 0x9F356, size: 0x8, addend: 0x0, symName: '__ZNSt3__16any_ofB8ne180100INS_11__wrap_iterIPKN5Catch8TestSpec6FilterEEEZNKS3_7matchesERKNS2_12TestCaseInfoEE3$_0EEbT_SC_T0_', symObjAddr: 0x1EC10, symBinAddr: 0x10001F524, symSize: 0x98 }
  - { offset: 0x9F3B4, size: 0x8, addend: 0x0, symName: '__ZNSt3__19transformB8ne180100INS_11__wrap_iterIPKN5Catch8TestSpec6FilterEEENS1_IPNS3_11FilterMatchEEEZNKS3_15matchesByFilterERKNS_6vectorINS2_8TestCaseENS_9allocatorISC_EEEERKNS2_7IConfigEE3$_0EET0_T_SN_SM_T1_', symObjAddr: 0x1EE68, symBinAddr: 0x10001F77C, symSize: 0x9C }
  - { offset: 0x9F429, size: 0x8, addend: 0x0, symName: __ZNSt3__111make_sharedB8ne180100IN5Catch8TestSpec11NamePatternEJRNS_12basic_stringIcNS_11char_traitsIcEENS_9allocatorIcEEEESA_EvEENS_10shared_ptrIT_EEDpOT0_, symObjAddr: 0x20170, symBinAddr: 0x100020A84, symSize: 0x48 }
  - { offset: 0x9F68C, size: 0x8, addend: 0x0, symName: __ZNSt3__111make_sharedB8ne180100IN5Catch8TestSpec15ExcludedPatternEJRNS_10shared_ptrINS2_7PatternEEEEvEENS4_IT_EEDpOT0_, symObjAddr: 0x20218, symBinAddr: 0x100020B2C, symSize: 0x40 }
  - { offset: 0x9F8DA, size: 0x8, addend: 0x0, symName: __ZNSt3__111make_sharedB8ne180100IN5Catch8TestSpec10TagPatternEJRA2_KcRNS_12basic_stringIcNS_11char_traitsIcEENS_9allocatorIcEEEEEvEENS_10shared_ptrIT_EEDpOT0_, symObjAddr: 0x2043C, symBinAddr: 0x100020D50, symSize: 0x48 }
  - { offset: 0x9FB3D, size: 0x8, addend: 0x0, symName: __ZNSt3__111make_sharedB8ne180100IN5Catch8TestSpec10TagPatternEJRNS_12basic_stringIcNS_11char_traitsIcEENS_9allocatorIcEEEESA_EvEENS_10shared_ptrIT_EEDpOT0_, symObjAddr: 0x204E4, symBinAddr: 0x100020DF8, symSize: 0x48 }
  - { offset: 0x9FB98, size: 0x8, addend: 0x0, symName: __ZNSt3__17setfillB8ne180100IcEENS_8__iom_t4IT_EES2_, symObjAddr: 0x20ABC, symBinAddr: 0x1000213D0, symSize: 0x2C }
  - { offset: 0x9FBCE, size: 0x8, addend: 0x0, symName: __ZNSt3__13hexB8ne180100ERNS_8ios_baseE, symObjAddr: 0x20B20, symBinAddr: 0x100021434, symSize: 0x30 }
  - { offset: 0x9FBFC, size: 0x8, addend: 0x0, symName: __ZNSt3__1plB8ne180100IcNS_11char_traitsIcEENS_9allocatorIcEEEENS_12basic_stringIT_T0_T1_EES6_RKS9_, symObjAddr: 0x20D74, symBinAddr: 0x100021688, symSize: 0x10C }
  - { offset: 0x9FC8F, size: 0x8, addend: 0x0, symName: __ZNSt3__1neB8ne180100IPKcEEbRKNS_11__wrap_iterIT_EES7_, symObjAddr: 0x20E80, symBinAddr: 0x100021794, symSize: 0x34 }
  - { offset: 0x9FCD5, size: 0x8, addend: 0x0, symName: __ZNSt3__1neB8ne180100IPKwEEbRKNS_11__wrap_iterIT_EES7_, symObjAddr: 0x212D4, symBinAddr: 0x100021BE8, symSize: 0x34 }
  - { offset: 0x9FD9E, size: 0x8, addend: 0x0, symName: __ZNSt3__1lsB8ne180100INS_11char_traitsIcEEEERNS_13basic_ostreamIcT_EES6_h, symObjAddr: 0x22B88, symBinAddr: 0x10002349C, symSize: 0x34 }
  - { offset: 0x9FDE4, size: 0x8, addend: 0x0, symName: __ZNSt3__15flushB8ne180100IcNS_11char_traitsIcEEEERNS_13basic_ostreamIT_T0_EES7_, symObjAddr: 0x23804, symBinAddr: 0x100024118, symSize: 0x28 }
  - { offset: 0x9FE25, size: 0x8, addend: 0x0, symName: __ZNSt3__1neB8ne180100IPN5Catch11SectionInfoEEEbRKNS_11__wrap_iterIT_EES8_, symObjAddr: 0x27CB0, symBinAddr: 0x1000285C4, symSize: 0x34 }
  - { offset: 0x9FE6B, size: 0x8, addend: 0x0, symName: __ZNSt3__1neB8ne180100IPKN5Catch13SummaryColumnEEEbRKNS_11__wrap_iterIT_EES9_, symObjAddr: 0x28604, symBinAddr: 0x100028F18, symSize: 0x34 }
  - { offset: 0x9FEB1, size: 0x8, addend: 0x0, symName: __ZNSt3__1neB8ne180100IPKNS_10shared_ptrIN5Catch22CumulativeReporterBaseINS2_13JunitReporterEE4NodeINS2_13TestCaseStatsENS5_11SectionNodeEEEEEEEbRKNS_11__wrap_iterIT_EESH_, symObjAddr: 0x2A358, symBinAddr: 0x10002AC6C, symSize: 0x34 }
  - { offset: 0x9FEF6, size: 0x8, addend: 0x0, symName: __ZNSt3__1plB8ne180100IcNS_11char_traitsIcEENS_9allocatorIcEEEENS_12basic_stringIT_T0_T1_EERKS9_S6_, symObjAddr: 0x2AF50, symBinAddr: 0x10002B864, symSize: 0x110 }
  - { offset: 0x9FF89, size: 0x8, addend: 0x0, symName: __ZNSt3__1neB8ne180100IPKNS_10shared_ptrIN5Catch22CumulativeReporterBaseINS2_13JunitReporterEE11SectionNodeEEEEEbRKNS_11__wrap_iterIT_EESE_, symObjAddr: 0x2B280, symBinAddr: 0x10002BB94, symSize: 0x34 }
  - { offset: 0x9FFCF, size: 0x8, addend: 0x0, symName: __ZNSt3__1neB8ne180100IPKN5Catch14AssertionStatsEEEbRKNS_11__wrap_iterIT_EES9_, symObjAddr: 0x2B34C, symBinAddr: 0x10002BC60, symSize: 0x34 }
  - { offset: 0xA0015, size: 0x8, addend: 0x0, symName: __ZNSt3__1neB8ne180100IPKN5Catch11MessageInfoEEEbRKNS_11__wrap_iterIT_EES9_, symObjAddr: 0x2BBB8, symBinAddr: 0x10002C4CC, symSize: 0x34 }
  - { offset: 0xA005B, size: 0x8, addend: 0x0, symName: __ZNSt3__1neB8ne180100IPNS_10unique_ptrIN5Catch18IStreamingReporterENS_14default_deleteIS3_EEEEEEbRKNS_11__wrap_iterIT_EESC_, symObjAddr: 0x2C124, symBinAddr: 0x10002CA38, symSize: 0x34 }
  - { offset: 0xA00A0, size: 0x8, addend: 0x0, symName: __ZNSt3__119__libcpp_deallocateB8ne180100EPvmm, symObjAddr: 0x32420, symBinAddr: 0x100032D34, symSize: 0x60 }
  - { offset: 0xA0105, size: 0x8, addend: 0x0, symName: __ZNSt3__124__is_overaligned_for_newB8ne180100Em, symObjAddr: 0x32480, symBinAddr: 0x100032D94, symSize: 0x20 }
  - { offset: 0xA0133, size: 0x8, addend: 0x0, symName: __ZNSt3__127__do_deallocate_handle_sizeB8ne180100IJSt11align_val_tEEEvPvmDpT_, symObjAddr: 0x324A0, symBinAddr: 0x100032DB4, symSize: 0x30 }
  - { offset: 0xA0188, size: 0x8, addend: 0x0, symName: __ZNSt3__127__do_deallocate_handle_sizeB8ne180100IJEEEvPvmDpT_, symObjAddr: 0x324D0, symBinAddr: 0x100032DE4, symSize: 0x28 }
  - { offset: 0xA01C7, size: 0x8, addend: 0x0, symName: __ZNSt3__124__libcpp_operator_deleteB8ne180100IJPvSt11align_val_tEEEvDpT_, symObjAddr: 0x324F8, symBinAddr: 0x100032E0C, symSize: 0x2C }
  - { offset: 0xA0213, size: 0x8, addend: 0x0, symName: __ZNSt3__124__libcpp_operator_deleteB8ne180100IJPvEEEvDpT_, symObjAddr: 0x32524, symBinAddr: 0x100032E38, symSize: 0x24 }
  - { offset: 0xA024B, size: 0x8, addend: 0x0, symName: __ZNSt3__112__to_addressB8ne180100IKcEEPT_S3_, symObjAddr: 0x327E0, symBinAddr: 0x1000330F4, symSize: 0x14 }
  - { offset: 0xA02C3, size: 0x8, addend: 0x0, symName: __ZNSt3__111make_sharedB8ne180100IN5Catch5clara6detail13BoundValueRefINS_12basic_stringIcNS_11char_traitsIcEENS_9allocatorIcEEEEEEJRSA_EvEENS_10shared_ptrIT_EEDpOT0_, symObjAddr: 0x32904, symBinAddr: 0x100033218, symSize: 0x40 }
  - { offset: 0xA0511, size: 0x8, addend: 0x0, symName: __ZNSt3__111make_sharedB8ne180100INS_12basic_stringIcNS_11char_traitsIcEENS_9allocatorIcEEEEJRA13_KcEvEENS_10shared_ptrIT_EEDpOT0_, symObjAddr: 0x32A80, symBinAddr: 0x100033394, symSize: 0x40 }
  - { offset: 0xA0556, size: 0x8, addend: 0x0, symName: __ZNSt3__115allocate_sharedB8ne180100INS_12basic_stringIcNS_11char_traitsIcEENS_9allocatorIcEEEENS4_IS6_EEJRA13_KcEvEENS_10shared_ptrIT_EERKT0_DpOT1_, symObjAddr: 0x32C60, symBinAddr: 0x100033574, symSize: 0x98 }
  - { offset: 0xA083A, size: 0x8, addend: 0x0, symName: __ZNSt3__117__libcpp_allocateB8ne180100Emm, symObjAddr: 0x3306C, symBinAddr: 0x100033980, symSize: 0x60 }
  - { offset: 0xA0A81, size: 0x8, addend: 0x0, symName: __ZNSt3__121__libcpp_operator_newB8ne180100IJmSt11align_val_tEEEPvDpT_, symObjAddr: 0x330E8, symBinAddr: 0x1000339FC, symSize: 0x2C }
  - { offset: 0xA0AD1, size: 0x8, addend: 0x0, symName: __ZNSt3__121__libcpp_operator_newB8ne180100IJmEEEPvDpT_, symObjAddr: 0x33114, symBinAddr: 0x100033A28, symSize: 0x24 }
  - { offset: 0xA0B0D, size: 0x8, addend: 0x0, symName: __ZNSt3__114__construct_atB8ne180100INS_12basic_stringIcNS_11char_traitsIcEENS_9allocatorIcEEEEJRA13_KcEPS6_EEPT_SC_DpOT0_, symObjAddr: 0x33484, symBinAddr: 0x100033D98, symSize: 0x2C }
  - { offset: 0xA0B66, size: 0x8, addend: 0x0, symName: __ZNSt3__112construct_atB8ne180100INS_12basic_stringIcNS_11char_traitsIcEENS_9allocatorIcEEEEJRA13_KcEPS6_EEPT_SC_DpOT0_, symObjAddr: 0x334B0, symBinAddr: 0x100033DC4, symSize: 0x34 }
  - { offset: 0xA0BBF, size: 0x8, addend: 0x0, symName: __ZNSt3__112__destroy_atB8ne180100INS_12basic_stringIcNS_11char_traitsIcEENS_9allocatorIcEEEELi0EEEvPT_, symObjAddr: 0x335C4, symBinAddr: 0x100033ED8, symSize: 0x24 }
  - { offset: 0xA0C2F, size: 0x8, addend: 0x0, symName: __ZNSt3__134__libcpp_atomic_refcount_decrementB8ne180100IlEET_RS1_, symObjAddr: 0x33804, symBinAddr: 0x100034118, symSize: 0x30 }
  - { offset: 0xA0C66, size: 0x8, addend: 0x0, symName: __ZNSt3__122__make_exception_guardB8ne180100INS_6vectorIN5Catch5clara6detail5TokenENS_9allocatorIS5_EEE16__destroy_vectorEEENS_28__exception_guard_exceptionsIT_EESB_, symObjAddr: 0x342E8, symBinAddr: 0x100034BFC, symSize: 0x40 }
  - { offset: 0xA0C9D, size: 0x8, addend: 0x0, symName: __ZNSt3__119__allocate_at_leastB8ne180100INS_9allocatorIN5Catch5clara6detail5TokenEEEEENS_19__allocation_resultINS_16allocator_traitsIT_E7pointerEEERS9_m, symObjAddr: 0x345D0, symBinAddr: 0x100034EE4, symSize: 0x40 }
  - { offset: 0xA0ECD, size: 0x8, addend: 0x0, symName: __ZNSt3__120__throw_length_errorB8ne180100EPKc, symObjAddr: 0x346B8, symBinAddr: 0x100034FCC, symSize: 0x64 }
  - { offset: 0xA0EF6, size: 0x8, addend: 0x0, symName: __ZNSt3__130__uninitialized_allocator_copyB8ne180100INS_9allocatorIN5Catch5clara6detail5TokenEEEPS5_S7_S7_EET2_RT_T0_T1_S8_, symObjAddr: 0x34898, symBinAddr: 0x1000351AC, symSize: 0x80 }
  - { offset: 0xA0F94, size: 0x8, addend: 0x0, symName: __ZNSt3__114__unwrap_rangeB8ne180100IPN5Catch5clara6detail5TokenES5_EEDaT_T0_, symObjAddr: 0x34988, symBinAddr: 0x10003529C, symSize: 0x3C }
  - { offset: 0xA0FE2, size: 0x8, addend: 0x0, symName: __ZNSt3__135__uninitialized_allocator_copy_implB8ne180100INS_9allocatorIN5Catch5clara6detail5TokenEEEPS5_S7_S7_EET2_RT_T0_T1_S8_, symObjAddr: 0x349C4, symBinAddr: 0x1000352D8, symSize: 0xF4 }
  - { offset: 0xA1081, size: 0x8, addend: 0x0, symName: __ZNSt3__113__unwrap_iterB8ne180100IPN5Catch5clara6detail5TokenENS_18__unwrap_iter_implIS5_Lb1EEELi0EEEDTclsrT0_8__unwrapclsr3stdE7declvalIT_EEEES9_, symObjAddr: 0x34AB8, symBinAddr: 0x1000353CC, symSize: 0x24 }
  - { offset: 0xA10C8, size: 0x8, addend: 0x0, symName: __ZNSt3__113__rewrap_iterB8ne180100IPN5Catch5clara6detail5TokenES5_NS_18__unwrap_iter_implIS5_Lb1EEEEET_S8_T0_, symObjAddr: 0x34ADC, symBinAddr: 0x1000353F0, symSize: 0x3C }
  - { offset: 0xA124E, size: 0x8, addend: 0x0, symName: __ZNSt3__122__make_exception_guardB8ne180100INS_29_AllocatorDestroyRangeReverseINS_9allocatorIN5Catch5clara6detail5TokenEEEPS6_EEEENS_28__exception_guard_exceptionsIT_EESB_, symObjAddr: 0x34BE0, symBinAddr: 0x1000354F4, symSize: 0x4C }
  - { offset: 0xA1286, size: 0x8, addend: 0x0, symName: __ZNSt3__112__to_addressB8ne180100IN5Catch5clara6detail5TokenEEEPT_S6_, symObjAddr: 0x34CA0, symBinAddr: 0x1000355B4, symSize: 0x14 }
  - { offset: 0xA12BD, size: 0x8, addend: 0x0, symName: __ZNSt3__114__construct_atB8ne180100IN5Catch5clara6detail5TokenEJRS4_EPS4_EEPT_S8_DpOT0_, symObjAddr: 0x34D98, symBinAddr: 0x1000356AC, symSize: 0x2C }
  - { offset: 0xA1316, size: 0x8, addend: 0x0, symName: __ZNSt3__112construct_atB8ne180100IN5Catch5clara6detail5TokenEJRS4_EPS4_EEPT_S8_DpOT0_, symObjAddr: 0x34DC4, symBinAddr: 0x1000356D8, symSize: 0x34 }
  - { offset: 0xA136E, size: 0x8, addend: 0x0, symName: __ZNSt3__119__allocator_destroyB8ne180100INS_9allocatorIN5Catch5clara6detail5TokenEEENS_16reverse_iteratorIPS5_EES9_EEvRT_T0_T1_, symObjAddr: 0x34F2C, symBinAddr: 0x100035840, symSize: 0x70 }
  - { offset: 0xA13D2, size: 0x8, addend: 0x0, symName: __ZNSt3__1neB8ne180100IPN5Catch5clara6detail5TokenES5_EEbRKNS_16reverse_iteratorIT_EERKNS6_IT0_EE, symObjAddr: 0x34FD0, symBinAddr: 0x1000358E4, symSize: 0x48 }
  - { offset: 0xA1421, size: 0x8, addend: 0x0, symName: __ZNSt3__112__to_addressB8ne180100INS_16reverse_iteratorIPN5Catch5clara6detail5TokenEEEvEEu7__decayIDTclsr19__to_address_helperIT_EE6__callclsr3stdE7declvalIRKS8_EEEEESA_, symObjAddr: 0x35040, symBinAddr: 0x100035954, symSize: 0x24 }
  - { offset: 0xA1459, size: 0x8, addend: 0x0, symName: __ZNSt3__112__destroy_atB8ne180100IN5Catch5clara6detail5TokenELi0EEEvPT_, symObjAddr: 0x3509C, symBinAddr: 0x1000359B0, symSize: 0x24 }
  - { offset: 0xA14BE, size: 0x8, addend: 0x0, symName: __ZNSt3__14prevB8ne180100IPN5Catch5clara6detail5TokenELi0EEET_S6_NS_15iterator_traitsIS6_E15difference_typeE, symObjAddr: 0x35180, symBinAddr: 0x100035A94, symSize: 0x3C }
  - { offset: 0xA150B, size: 0x8, addend: 0x0, symName: __ZNSt3__121__convert_to_integralB8ne180100El, symObjAddr: 0x351F4, symBinAddr: 0x100035B08, symSize: 0x14 }
  - { offset: 0xA1539, size: 0x8, addend: 0x0, symName: __ZNSt3__19__advanceB8ne180100IPN5Catch5clara6detail5TokenEEEvRT_NS_15iterator_traitsIS6_E15difference_typeENS_26random_access_iterator_tagE, symObjAddr: 0x35208, symBinAddr: 0x100035B1C, symSize: 0x28 }
  - { offset: 0xA15DD, size: 0x8, addend: 0x0, symName: __ZNSt3__115allocate_sharedB8ne180100IN5Catch5clara6detail13BoundValueRefINS_12basic_stringIcNS_11char_traitsIcEENS_9allocatorIcEEEEEENS8_ISB_EEJRSA_EvEENS_10shared_ptrIT_EERKT0_DpOT1_, symObjAddr: 0x356E0, symBinAddr: 0x100035FF4, symSize: 0x98 }
  - { offset: 0xA1987, size: 0x8, addend: 0x0, symName: __ZNSt3__114__construct_atB8ne180100IN5Catch5clara6detail13BoundValueRefINS_12basic_stringIcNS_11char_traitsIcEENS_9allocatorIcEEEEEEJRSA_EPSB_EEPT_SF_DpOT0_, symObjAddr: 0x35D88, symBinAddr: 0x10003669C, symSize: 0x2C }
  - { offset: 0xA19E0, size: 0x8, addend: 0x0, symName: __ZNSt3__112construct_atB8ne180100IN5Catch5clara6detail13BoundValueRefINS_12basic_stringIcNS_11char_traitsIcEENS_9allocatorIcEEEEEEJRSA_EPSB_EEPT_SF_DpOT0_, symObjAddr: 0x35DB4, symBinAddr: 0x1000366C8, symSize: 0x34 }
  - { offset: 0xA1A39, size: 0x8, addend: 0x0, symName: __ZNSt3__112__destroy_atB8ne180100IN5Catch5clara6detail13BoundValueRefINS_12basic_stringIcNS_11char_traitsIcEENS_9allocatorIcEEEEEELi0EEEvPT_, symObjAddr: 0x36490, symBinAddr: 0x100036DA4, symSize: 0x2C }
  - { offset: 0xA1AA9, size: 0x8, addend: 0x0, symName: __ZNSt3__14swapB8ne180100IPN5Catch5clara6detail17BoundValueRefBaseEEENS_9enable_ifIXaasr21is_move_constructibleIT_EE5valuesr18is_move_assignableIS7_EE5valueEvE4typeERS7_SA_, symObjAddr: 0x3678C, symBinAddr: 0x1000370A0, symSize: 0x3C }
  - { offset: 0xA1AFE, size: 0x8, addend: 0x0, symName: __ZNSt3__14swapB8ne180100IPNS_19__shared_weak_countEEENS_9enable_ifIXaasr21is_move_constructibleIT_EE5valuesr18is_move_assignableIS4_EE5valueEvE4typeERS4_S7_, symObjAddr: 0x367C8, symBinAddr: 0x1000370DC, symSize: 0x3C }
  - { offset: 0xA1B52, size: 0x8, addend: 0x0, symName: __ZNSt3__111make_sharedB8ne180100IN5Catch5clara6detail15BoundFlagLambdaIZNS3_4HelpC1ERbEUlbE_EEJRKS7_EvEENS_10shared_ptrIT_EEDpOT0_, symObjAddr: 0x373CC, symBinAddr: 0x100037CE0, symSize: 0x40 }
  - { offset: 0xA1DA0, size: 0x8, addend: 0x0, symName: __ZNSt3__115allocate_sharedB8ne180100IN5Catch5clara6detail15BoundFlagLambdaIZNS3_4HelpC1ERbEUlbE_EENS_9allocatorIS8_EEJRKS7_EvEENS_10shared_ptrIT_EERKT0_DpOT1_, symObjAddr: 0x37534, symBinAddr: 0x100037E48, symSize: 0x98 }
  - { offset: 0xA214A, size: 0x8, addend: 0x0, symName: __ZNSt3__114__construct_atB8ne180100IN5Catch5clara6detail15BoundFlagLambdaIZNS3_4HelpC1ERbEUlbE_EEJRKS7_EPS8_EEPT_SD_DpOT0_, symObjAddr: 0x37BDC, symBinAddr: 0x1000384F0, symSize: 0x2C }
  - { offset: 0xA21A3, size: 0x8, addend: 0x0, symName: __ZNSt3__112construct_atB8ne180100IN5Catch5clara6detail15BoundFlagLambdaIZNS3_4HelpC1ERbEUlbE_EEJRKS7_EPS8_EEPT_SD_DpOT0_, symObjAddr: 0x37C08, symBinAddr: 0x10003851C, symSize: 0x34 }
  - { offset: 0xA21FC, size: 0x8, addend: 0x0, symName: __ZNSt3__112__destroy_atB8ne180100IN5Catch5clara6detail15BoundFlagLambdaIZNS3_4HelpC1ERbEUlbE_EELi0EEEvPT_, symObjAddr: 0x37F90, symBinAddr: 0x1000388A4, symSize: 0x2C }
  - { offset: 0xA226C, size: 0x8, addend: 0x0, symName: __ZNSt3__134__libcpp_atomic_refcount_incrementB8ne180100IlEET_RS1_, symObjAddr: 0x38354, symBinAddr: 0x100038C68, symSize: 0x30 }
  - { offset: 0xA22A3, size: 0x8, addend: 0x0, symName: __ZNSt3__1miB8ne180100IPKN5Catch5clara6detail5TokenES6_EEDTmicldtfp_4baseEcldtfp0_4baseEERKNS_11__wrap_iterIT_EERKNS8_IT0_EE, symObjAddr: 0x392F4, symBinAddr: 0x100039C08, symSize: 0x48 }
  - { offset: 0xA22F2, size: 0x8, addend: 0x0, symName: __ZNSt3__14moveB8ne180100IPN5Catch5clara6detail5TokenES5_EET0_T_S7_S6_, symObjAddr: 0x393B4, symBinAddr: 0x100039CC8, symSize: 0x40 }
  - { offset: 0xA2350, size: 0x8, addend: 0x0, symName: __ZNSt3__16__moveB8ne180100INS_17_ClassicAlgPolicyEPN5Catch5clara6detail5TokenES6_S6_EENS_4pairIT0_T2_EES8_T1_S9_, symObjAddr: 0x39504, symBinAddr: 0x100039E18, symSize: 0x44 }
  - { offset: 0xA23C0, size: 0x8, addend: 0x0, symName: __ZNSt3__123__dispatch_copy_or_moveB8ne180100INS_17_ClassicAlgPolicyENS_11__move_loopIS1_EENS_14__move_trivialEPN5Catch5clara6detail5TokenES9_S9_EENS_4pairIT2_T4_EESB_T3_SC_, symObjAddr: 0x39548, symBinAddr: 0x100039E5C, symSize: 0x44 }
  - { offset: 0xA2442, size: 0x8, addend: 0x0, symName: __ZNSt3__121__unwrap_and_dispatchB8ne180100INS_10__overloadINS_11__move_loopINS_17_ClassicAlgPolicyEEENS_14__move_trivialEEEPN5Catch5clara6detail5TokenESB_SB_Li0EEENS_4pairIT0_T2_EESD_T1_SE_, symObjAddr: 0x3958C, symBinAddr: 0x100039EA0, symSize: 0xB4 }
  - { offset: 0xA2774, size: 0x8, addend: 0x0, symName: __ZNSt3__19make_pairB8ne180100IPN5Catch5clara6detail5TokenES5_EENS_4pairINS_18__unwrap_ref_decayIT_E4typeENS7_IT0_E4typeEEEOS8_OSB_, symObjAddr: 0x396D0, symBinAddr: 0x100039FE4, symSize: 0x38 }
  - { offset: 0xA27C4, size: 0x8, addend: 0x0, symName: __ZNSt3__114__rewrap_rangeB8ne180100IPN5Catch5clara6detail5TokenES5_S5_EET0_S6_T1_, symObjAddr: 0x39708, symBinAddr: 0x10003A01C, symSize: 0x2C }
  - { offset: 0xA2E71, size: 0x8, addend: 0x0, symName: __ZNSt3__114__construct_atB8ne180100IN5Catch5clara6detail5TokenEJEPS4_EEPT_S7_DpOT0_, symObjAddr: 0x39F3C, symBinAddr: 0x10003A850, symSize: 0x24 }
  - { offset: 0xA2EB4, size: 0x8, addend: 0x0, symName: __ZNSt3__112construct_atB8ne180100IN5Catch5clara6detail5TokenEJEPS4_EEPT_S7_DpOT0_, symObjAddr: 0x39F60, symBinAddr: 0x10003A874, symSize: 0x38 }
  - { offset: 0xA2EF6, size: 0x8, addend: 0x0, symName: __ZNSt3__142__uninitialized_allocator_move_if_noexceptB8ne180100INS_9allocatorIN5Catch5clara6detail5TokenEEENS_16reverse_iteratorIPS5_EES9_S9_EET2_RT_T0_T1_SA_, symObjAddr: 0x3A2EC, symBinAddr: 0x10003AC00, symSize: 0x124 }
  - { offset: 0xA2F97, size: 0x8, addend: 0x0, symName: __ZNSt3__14swapB8ne180100IPN5Catch5clara6detail5TokenEEENS_9enable_ifIXaasr21is_move_constructibleIT_EE5valuesr18is_move_assignableIS7_EE5valueEvE4typeERS7_SA_, symObjAddr: 0x3A410, symBinAddr: 0x10003AD24, symSize: 0x3C }
  - { offset: 0xA2FEC, size: 0x8, addend: 0x0, symName: __ZNSt3__122__make_exception_guardB8ne180100INS_29_AllocatorDestroyRangeReverseINS_9allocatorIN5Catch5clara6detail5TokenEEENS_16reverse_iteratorIPS6_EEEEEENS_28__exception_guard_exceptionsIT_EESD_, symObjAddr: 0x3A44C, symBinAddr: 0x10003AD60, symSize: 0x4C }
  - { offset: 0xA3024, size: 0x8, addend: 0x0, symName: __ZNSt3__114__construct_atB8ne180100IN5Catch5clara6detail5TokenEJS4_EPS4_EEPT_S7_DpOT0_, symObjAddr: 0x3A618, symBinAddr: 0x10003AF2C, symSize: 0x2C }
  - { offset: 0xA307D, size: 0x8, addend: 0x0, symName: __ZNSt3__112construct_atB8ne180100IN5Catch5clara6detail5TokenEJS4_EPS4_EEPT_S7_DpOT0_, symObjAddr: 0x3A644, symBinAddr: 0x10003AF58, symSize: 0x34 }
  - { offset: 0xA30D5, size: 0x8, addend: 0x0, symName: __ZNSt3__119__allocator_destroyB8ne180100INS_9allocatorIN5Catch5clara6detail5TokenEEENS_16reverse_iteratorINS7_IPS5_EEEESA_EEvRT_T0_T1_, symObjAddr: 0x3A7F8, symBinAddr: 0x10003B10C, symSize: 0x70 }
  - { offset: 0xA313B, size: 0x8, addend: 0x0, symName: __ZNSt3__1neB8ne180100INS_16reverse_iteratorIPN5Catch5clara6detail5TokenEEES7_EEbRKNS1_IT_EERKNS1_IT0_EE, symObjAddr: 0x3A8A4, symBinAddr: 0x10003B1B8, symSize: 0x60 }
  - { offset: 0xA318A, size: 0x8, addend: 0x0, symName: __ZNSt3__112__to_addressB8ne180100INS_16reverse_iteratorINS1_IPN5Catch5clara6detail5TokenEEEEEvEEu7__decayIDTclsr19__to_address_helperIT_EE6__callclsr3stdE7declvalIRKS9_EEEEESB_, symObjAddr: 0x3A904, symBinAddr: 0x10003B218, symSize: 0x24 }
  - { offset: 0xA31ED, size: 0x8, addend: 0x0, symName: __ZNSt3__14prevB8ne180100INS_16reverse_iteratorIPN5Catch5clara6detail5TokenEEELi0EEET_S8_NS_15iterator_traitsIS8_E15difference_typeE, symObjAddr: 0x3AA00, symBinAddr: 0x10003B314, symSize: 0x4C }
  - { offset: 0xA323A, size: 0x8, addend: 0x0, symName: __ZNSt3__19__advanceB8ne180100INS_16reverse_iteratorIPN5Catch5clara6detail5TokenEEEEEvRT_NS_15iterator_traitsIS8_E15difference_typeENS_26random_access_iterator_tagE, symObjAddr: 0x3AA84, symBinAddr: 0x10003B398, symSize: 0x2C }
  - { offset: 0xA3287, size: 0x8, addend: 0x0, symName: __ZNSt3__112__to_addressB8ne180100IKNS_12basic_stringIcNS_11char_traitsIcEENS_9allocatorIcEEEEEEPT_S9_, symObjAddr: 0x3AD18, symBinAddr: 0x10003B62C, symSize: 0x14 }
  - { offset: 0xA32BD, size: 0x8, addend: 0x0, symName: __ZNSt3__119__str_find_first_ofB8ne180100IcmNS_11char_traitsIcEELm18446744073709551615EEET0_PKT_S3_S6_S3_S3_, symObjAddr: 0x3AD2C, symBinAddr: 0x10003B640, symSize: 0xF0 }
  - { offset: 0xA3366, size: 0x8, addend: 0x0, symName: __ZNSt3__118__find_first_of_ceB8ne180100IPKcS2_RDoFbccEEET_S5_S5_T0_S6_OT1_, symObjAddr: 0x3AE50, symBinAddr: 0x10003B764, symSize: 0xD0 }
  - { offset: 0xA3408, size: 0x8, addend: 0x0, symName: __ZNSt3__118__constexpr_strlenB8ne180100EPKc, symObjAddr: 0x3AF48, symBinAddr: 0x10003B85C, symSize: 0x24 }
  - { offset: 0xA3435, size: 0x8, addend: 0x0, symName: __ZNSt3__111make_sharedB8ne180100IN5Catch5clara6detail12BoundFlagRefEJRbEvEENS_10shared_ptrIT_EEDpOT0_, symObjAddr: 0x3B28C, symBinAddr: 0x10003BBA0, symSize: 0x40 }
  - { offset: 0xA3683, size: 0x8, addend: 0x0, symName: __ZNSt3__115allocate_sharedB8ne180100IN5Catch5clara6detail12BoundFlagRefENS_9allocatorIS4_EEJRbEvEENS_10shared_ptrIT_EERKT0_DpOT1_, symObjAddr: 0x3B32C, symBinAddr: 0x10003BC40, symSize: 0x98 }
  - { offset: 0xA3A2D, size: 0x8, addend: 0x0, symName: __ZNSt3__114__construct_atB8ne180100IN5Catch5clara6detail12BoundFlagRefEJRbEPS4_EEPT_S8_DpOT0_, symObjAddr: 0x3B9D4, symBinAddr: 0x10003C2E8, symSize: 0x2C }
  - { offset: 0xA3A86, size: 0x8, addend: 0x0, symName: __ZNSt3__112construct_atB8ne180100IN5Catch5clara6detail12BoundFlagRefEJRbEPS4_EEPT_S8_DpOT0_, symObjAddr: 0x3BA00, symBinAddr: 0x10003C314, symSize: 0x34 }
  - { offset: 0xA3ADF, size: 0x8, addend: 0x0, symName: __ZNSt3__112__destroy_atB8ne180100IN5Catch5clara6detail12BoundFlagRefELi0EEEvPT_, symObjAddr: 0x3BC68, symBinAddr: 0x10003C57C, symSize: 0x2C }
  - { offset: 0xA3B4E, size: 0x8, addend: 0x0, symName: __ZNSt3__111make_sharedB8ne180100IN5Catch5clara6detail13BoundValueRefINS_6vectorINS_12basic_stringIcNS_11char_traitsIcEENS_9allocatorIcEEEENS9_ISB_EEEEEEJRSD_EvEENS_10shared_ptrIT_EEDpOT0_, symObjAddr: 0x3C428, symBinAddr: 0x10003CD3C, symSize: 0x40 }
  - { offset: 0xA3D9C, size: 0x8, addend: 0x0, symName: __ZNSt3__115allocate_sharedB8ne180100IN5Catch5clara6detail13BoundValueRefINS_6vectorINS_12basic_stringIcNS_11char_traitsIcEENS_9allocatorIcEEEENS9_ISB_EEEEEENS9_ISE_EEJRSD_EvEENS_10shared_ptrIT_EERKT0_DpOT1_, symObjAddr: 0x3C534, symBinAddr: 0x10003CE48, symSize: 0x98 }
  - { offset: 0xA4146, size: 0x8, addend: 0x0, symName: __ZNSt3__114__construct_atB8ne180100IN5Catch5clara6detail13BoundValueRefINS_6vectorINS_12basic_stringIcNS_11char_traitsIcEENS_9allocatorIcEEEENS9_ISB_EEEEEEJRSD_EPSE_EEPT_SI_DpOT0_, symObjAddr: 0x3CBDC, symBinAddr: 0x10003D4F0, symSize: 0x2C }
  - { offset: 0xA419F, size: 0x8, addend: 0x0, symName: __ZNSt3__112construct_atB8ne180100IN5Catch5clara6detail13BoundValueRefINS_6vectorINS_12basic_stringIcNS_11char_traitsIcEENS_9allocatorIcEEEENS9_ISB_EEEEEEJRSD_EPSE_EEPT_SI_DpOT0_, symObjAddr: 0x3CC08, symBinAddr: 0x10003D51C, symSize: 0x34 }
  - { offset: 0xA41F8, size: 0x8, addend: 0x0, symName: __ZNSt3__112__destroy_atB8ne180100IN5Catch5clara6detail13BoundValueRefINS_6vectorINS_12basic_stringIcNS_11char_traitsIcEENS_9allocatorIcEEEENS9_ISB_EEEEEELi0EEEvPT_, symObjAddr: 0x3CF30, symBinAddr: 0x10003D844, symSize: 0x2C }
  - { offset: 0xA4268, size: 0x8, addend: 0x0, symName: __ZNSt3__112__to_addressB8ne180100IN5Catch5clara6detail3ArgEEEPT_S6_, symObjAddr: 0x3DE0C, symBinAddr: 0x10003E720, symSize: 0x14 }
  - { offset: 0xA429F, size: 0x8, addend: 0x0, symName: __ZNSt3__112__destroy_atB8ne180100IN5Catch5clara6detail3ArgELi0EEEvPT_, symObjAddr: 0x3DE20, symBinAddr: 0x10003E734, symSize: 0x2C }
  - { offset: 0xA42D9, size: 0x8, addend: 0x0, symName: __ZNSt3__112__to_addressB8ne180100IN5Catch5clara6detail3OptEEEPT_S6_, symObjAddr: 0x3E1D8, symBinAddr: 0x10003EAEC, symSize: 0x14 }
  - { offset: 0xA4310, size: 0x8, addend: 0x0, symName: __ZNSt3__112__destroy_atB8ne180100IN5Catch5clara6detail3OptELi0EEEvPT_, symObjAddr: 0x3E1EC, symBinAddr: 0x10003EB00, symSize: 0x2C }
  - { offset: 0xA434A, size: 0x8, addend: 0x0, symName: __ZNSt3__1neB8ne180100IPKN5Catch5clara6detail3OptEEEbRKNS_11__wrap_iterIT_EESB_, symObjAddr: 0x3E354, symBinAddr: 0x10003EC68, symSize: 0x34 }
  - { offset: 0xA4390, size: 0x8, addend: 0x0, symName: __ZNSt3__1neB8ne180100IPKN5Catch5clara6detail3ArgEEEbRKNS_11__wrap_iterIT_EESB_, symObjAddr: 0x3E420, symBinAddr: 0x10003ED34, symSize: 0x34 }
  - { offset: 0xA43D6, size: 0x8, addend: 0x0, symName: __ZNSt3__1eqB8ne180100IPKN5Catch5clara6detail3OptEEEbRKNS_11__wrap_iterIT_EESB_, symObjAddr: 0x3E510, symBinAddr: 0x10003EE24, symSize: 0x48 }
  - { offset: 0xA441C, size: 0x8, addend: 0x0, symName: __ZNSt3__1eqB8ne180100IPKN5Catch5clara6detail3ArgEEEbRKNS_11__wrap_iterIT_EESB_, symObjAddr: 0x3E5F4, symBinAddr: 0x10003EF08, symSize: 0x48 }
  - { offset: 0xA4461, size: 0x8, addend: 0x0, symName: __ZNSt3__118__str_find_last_ofB8ne180100IcmNS_11char_traitsIcEELm18446744073709551615EEET0_PKT_S3_S6_S3_S3_, symObjAddr: 0x3E9F4, symBinAddr: 0x10003F308, symSize: 0xFC }
  - { offset: 0xA4535, size: 0x8, addend: 0x0, symName: __ZNSt3__118__constexpr_memchrB8ne180100IKccEEPT_S3_T0_m, symObjAddr: 0x3EB60, symBinAddr: 0x10003F474, symSize: 0x40 }
  - { offset: 0xA45B0, size: 0x8, addend: 0x0, symName: __ZNSt3__1eqB8ne180100IPNS_12basic_stringIcNS_11char_traitsIcEENS_9allocatorIcEEEEEEbRKNS_11__wrap_iterIT_EESC_, symObjAddr: 0x3F1BC, symBinAddr: 0x10003FAD0, symSize: 0x48 }
  - { offset: 0xA45F6, size: 0x8, addend: 0x0, symName: __ZNSt3__112__to_addressB8ne180100IN5Catch8TestSpec6FilterEEEPT_S5_, symObjAddr: 0x3F5AC, symBinAddr: 0x10003FEC0, symSize: 0x14 }
  - { offset: 0xA462D, size: 0x8, addend: 0x0, symName: __ZNSt3__112__destroy_atB8ne180100IN5Catch8TestSpec6FilterELi0EEEvPT_, symObjAddr: 0x3F5C0, symBinAddr: 0x10003FED4, symSize: 0x24 }
  - { offset: 0xA4667, size: 0x8, addend: 0x0, symName: __ZNSt3__112__to_addressB8ne180100ImEEPT_S2_, symObjAddr: 0x3FC04, symBinAddr: 0x100040518, symSize: 0x14 }
  - { offset: 0xA469E, size: 0x8, addend: 0x0, symName: __ZNSt3__112__destroy_atB8ne180100ImLi0EEEvPT_, symObjAddr: 0x3FC18, symBinAddr: 0x10004052C, symSize: 0x10 }
  - { offset: 0xA46D8, size: 0x8, addend: 0x0, symName: __ZNSt3__119__allocate_at_leastB8ne180100INS_9allocatorIN5Catch9StringRefEEEEENS_19__allocation_resultINS_16allocator_traitsIT_E7pointerEEERS7_m, symObjAddr: 0x40AC8, symBinAddr: 0x1000413DC, symSize: 0x40 }
  - { offset: 0xA471D, size: 0x8, addend: 0x0, symName: __ZNSt3__142__uninitialized_allocator_move_if_noexceptB8ne180100INS_9allocatorIN5Catch9StringRefEEENS_16reverse_iteratorIPS3_EES7_S3_vEET1_RT_T0_SB_S8_, symObjAddr: 0x40CA0, symBinAddr: 0x1000415B4, symSize: 0x78 }
  - { offset: 0xA479B, size: 0x8, addend: 0x0, symName: __ZNSt3__14swapB8ne180100IPN5Catch9StringRefEEENS_9enable_ifIXaasr21is_move_constructibleIT_EE5valuesr18is_move_assignableIS5_EE5valueEvE4typeERS5_S8_, symObjAddr: 0x40D64, symBinAddr: 0x100041678, symSize: 0x3C }
  - { offset: 0xA47F0, size: 0x8, addend: 0x0, symName: __ZNSt3__14moveB8ne180100INS_16reverse_iteratorIPN5Catch9StringRefEEES5_EET0_T_S7_S6_, symObjAddr: 0x40DDC, symBinAddr: 0x1000416F0, symSize: 0x78 }
  - { offset: 0xA484E, size: 0x8, addend: 0x0, symName: __ZNSt3__16__moveB8ne180100INS_17_ClassicAlgPolicyENS_16reverse_iteratorIPN5Catch9StringRefEEES6_S6_EENS_4pairIT0_T2_EES8_T1_S9_, symObjAddr: 0x40E54, symBinAddr: 0x100041768, symSize: 0x64 }
  - { offset: 0xA48BE, size: 0x8, addend: 0x0, symName: __ZNSt3__123__dispatch_copy_or_moveB8ne180100INS_17_ClassicAlgPolicyENS_11__move_loopIS1_EENS_14__move_trivialENS_16reverse_iteratorIPN5Catch9StringRefEEES9_S9_EENS_4pairIT2_T4_EESB_T3_SC_, symObjAddr: 0x40EB8, symBinAddr: 0x1000417CC, symSize: 0x64 }
  - { offset: 0xA4940, size: 0x8, addend: 0x0, symName: __ZNSt3__121__unwrap_and_dispatchB8ne180100INS_10__overloadINS_11__move_loopINS_17_ClassicAlgPolicyEEENS_14__move_trivialEEENS_16reverse_iteratorIPN5Catch9StringRefEEESB_SB_Li0EEENS_4pairIT0_T2_EESD_T1_SE_, symObjAddr: 0x40F1C, symBinAddr: 0x100041830, symSize: 0x12C }
  - { offset: 0xA49D7, size: 0x8, addend: 0x0, symName: __ZNSt3__114__unwrap_rangeB8ne180100INS_16reverse_iteratorIPN5Catch9StringRefEEES5_EEDaT_T0_, symObjAddr: 0x41048, symBinAddr: 0x10004195C, symSize: 0x4C }
  - { offset: 0xA4B01, size: 0x8, addend: 0x0, symName: __ZNSt3__113__unwrap_iterB8ne180100INS_16reverse_iteratorIPN5Catch9StringRefEEENS_18__unwrap_iter_implIS5_Lb0EEELi0EEEDTclsrT0_8__unwrapclsr3stdE7declvalIT_EEEES9_, symObjAddr: 0x41134, symBinAddr: 0x100041A48, symSize: 0x44 }
  - { offset: 0xA4B47, size: 0x8, addend: 0x0, symName: __ZNSt3__19make_pairB8ne180100INS_16reverse_iteratorIPN5Catch9StringRefEEES5_EENS_4pairINS_18__unwrap_ref_decayIT_E4typeENS7_IT0_E4typeEEEOS8_OSB_, symObjAddr: 0x41178, symBinAddr: 0x100041A8C, symSize: 0x38 }
  - { offset: 0xA4B97, size: 0x8, addend: 0x0, symName: __ZNSt3__114__rewrap_rangeB8ne180100INS_16reverse_iteratorIPN5Catch9StringRefEEES5_S5_EET0_S6_T1_, symObjAddr: 0x411B0, symBinAddr: 0x100041AC4, symSize: 0x5C }
  - { offset: 0xA4BEF, size: 0x8, addend: 0x0, symName: __ZNSt3__113__rewrap_iterB8ne180100INS_16reverse_iteratorIPN5Catch9StringRefEEES5_NS_18__unwrap_iter_implIS5_Lb0EEEEET_S8_T0_, symObjAddr: 0x4120C, symBinAddr: 0x100041B20, symSize: 0x74 }
  - { offset: 0xA4C9A, size: 0x8, addend: 0x0, symName: __ZNSt3__1neB8ne180100IPN5Catch9StringRefES3_EEbRKNS_16reverse_iteratorIT_EERKNS4_IT0_EE, symObjAddr: 0x41374, symBinAddr: 0x100041C88, symSize: 0x48 }
  - { offset: 0xA4D41, size: 0x8, addend: 0x0, symName: __ZNSt3__112__to_addressB8ne180100IN5Catch9StringRefEEEPT_S4_, symObjAddr: 0x41724, symBinAddr: 0x100042038, symSize: 0x14 }
  - { offset: 0xA4D78, size: 0x8, addend: 0x0, symName: __ZNSt3__112__destroy_atB8ne180100IN5Catch9StringRefELi0EEEvPT_, symObjAddr: 0x41738, symBinAddr: 0x10004204C, symSize: 0x10 }
  - { offset: 0xA4DB2, size: 0x8, addend: 0x0, symName: __ZNSt3__1eqB8ne180100IPN5Catch9StringRefEEEbRKNS_11__wrap_iterIT_EES8_, symObjAddr: 0x41858, symBinAddr: 0x10004216C, symSize: 0x48 }
  - { offset: 0xA4DF8, size: 0x8, addend: 0x0, symName: __ZNSt3__114__construct_atB8ne180100IN5Catch9StringRefEJS2_EPS2_EEPT_S5_DpOT0_, symObjAddr: 0x41B0C, symBinAddr: 0x100042420, symSize: 0x2C }
  - { offset: 0xA4E51, size: 0x8, addend: 0x0, symName: __ZNSt3__112construct_atB8ne180100IN5Catch9StringRefEJS2_EPS2_EEPT_S5_DpOT0_, symObjAddr: 0x41B38, symBinAddr: 0x10004244C, symSize: 0x24 }
  - { offset: 0xA4EAA, size: 0x8, addend: 0x0, symName: __ZNSt3__112__to_addressB8ne180100INS_4pairIiN5Catch9StringRefEEEEEPT_S6_, symObjAddr: 0x420BC, symBinAddr: 0x1000429D0, symSize: 0x14 }
  - { offset: 0xA4EE1, size: 0x8, addend: 0x0, symName: __ZNSt3__112__destroy_atB8ne180100INS_4pairIiN5Catch9StringRefEEELi0EEEvPT_, symObjAddr: 0x420D0, symBinAddr: 0x1000429E4, symSize: 0x10 }
  - { offset: 0xA4F1B, size: 0x8, addend: 0x0, symName: __ZNSt3__1eqB8ne180100IPKNS_4pairIiN5Catch9StringRefEEEEEbRKNS_11__wrap_iterIT_EESB_, symObjAddr: 0x42240, symBinAddr: 0x100042B54, symSize: 0x48 }
  - { offset: 0xA4F61, size: 0x8, addend: 0x0, symName: __ZNSt3__119__allocate_at_leastB8ne180100INS_9allocatorINS_4pairIiN5Catch9StringRefEEEEEEENS_19__allocation_resultINS_16allocator_traitsIT_E7pointerEEERS9_m, symObjAddr: 0x4281C, symBinAddr: 0x100043130, symSize: 0x40 }
  - { offset: 0xA4FA6, size: 0x8, addend: 0x0, symName: __ZNSt3__142__uninitialized_allocator_move_if_noexceptB8ne180100INS_9allocatorINS_4pairIiN5Catch9StringRefEEEEENS_16reverse_iteratorIPS5_EES9_S9_EET2_RT_T0_T1_SA_, symObjAddr: 0x429E8, symBinAddr: 0x1000432FC, symSize: 0x12C }
  - { offset: 0xA5047, size: 0x8, addend: 0x0, symName: __ZNSt3__14swapB8ne180100IPNS_4pairIiN5Catch9StringRefEEEEENS_9enable_ifIXaasr21is_move_constructibleIT_EE5valuesr18is_move_assignableIS7_EE5valueEvE4typeERS7_SA_, symObjAddr: 0x42B60, symBinAddr: 0x100043474, symSize: 0x3C }
  - { offset: 0xA509C, size: 0x8, addend: 0x0, symName: __ZNSt3__122__make_exception_guardB8ne180100INS_29_AllocatorDestroyRangeReverseINS_9allocatorINS_4pairIiN5Catch9StringRefEEEEENS_16reverse_iteratorIPS6_EEEEEENS_28__exception_guard_exceptionsIT_EESD_, symObjAddr: 0x42BD8, symBinAddr: 0x1000434EC, symSize: 0x4C }
  - { offset: 0xA50D4, size: 0x8, addend: 0x0, symName: __ZNSt3__1neB8ne180100IPNS_4pairIiN5Catch9StringRefEEES5_EEbRKNS_16reverse_iteratorIT_EERKNS6_IT0_EE, symObjAddr: 0x42C68, symBinAddr: 0x10004357C, symSize: 0x48 }
  - { offset: 0xA5123, size: 0x8, addend: 0x0, symName: __ZNSt3__112__to_addressB8ne180100INS_16reverse_iteratorIPNS_4pairIiN5Catch9StringRefEEEEEvEEu7__decayIDTclsr19__to_address_helperIT_EE6__callclsr3stdE7declvalIRKS8_EEEEESA_, symObjAddr: 0x42CE0, symBinAddr: 0x1000435F4, symSize: 0x24 }
  - { offset: 0xA515B, size: 0x8, addend: 0x0, symName: __ZNSt3__114__construct_atB8ne180100INS_4pairIiN5Catch9StringRefEEEJS4_EPS4_EEPT_S7_DpOT0_, symObjAddr: 0x42E30, symBinAddr: 0x100043744, symSize: 0x2C }
  - { offset: 0xA51B4, size: 0x8, addend: 0x0, symName: __ZNSt3__112construct_atB8ne180100INS_4pairIiN5Catch9StringRefEEEJS4_EPS4_EEPT_S7_DpOT0_, symObjAddr: 0x42E5C, symBinAddr: 0x100043770, symSize: 0x2C }
  - { offset: 0xA5238, size: 0x8, addend: 0x0, symName: __ZNSt3__14prevB8ne180100IPNS_4pairIiN5Catch9StringRefEEELi0EEET_S6_NS_15iterator_traitsIS6_E15difference_typeE, symObjAddr: 0x42EEC, symBinAddr: 0x100043800, symSize: 0x3C }
  - { offset: 0xA5285, size: 0x8, addend: 0x0, symName: __ZNSt3__19__advanceB8ne180100IPNS_4pairIiN5Catch9StringRefEEEEEvRT_NS_15iterator_traitsIS6_E15difference_typeENS_26random_access_iterator_tagE, symObjAddr: 0x42F60, symBinAddr: 0x100043874, symSize: 0x30 }
  - { offset: 0xA52D1, size: 0x8, addend: 0x0, symName: __ZNSt3__119__allocator_destroyB8ne180100INS_9allocatorINS_4pairIiN5Catch9StringRefEEEEENS_16reverse_iteratorINS7_IPS5_EEEESA_EEvRT_T0_T1_, symObjAddr: 0x43094, symBinAddr: 0x1000439A8, symSize: 0x70 }
  - { offset: 0xA5337, size: 0x8, addend: 0x0, symName: __ZNSt3__1neB8ne180100INS_16reverse_iteratorIPNS_4pairIiN5Catch9StringRefEEEEES7_EEbRKNS1_IT_EERKNS1_IT0_EE, symObjAddr: 0x43140, symBinAddr: 0x100043A54, symSize: 0x60 }
  - { offset: 0xA5386, size: 0x8, addend: 0x0, symName: __ZNSt3__112__to_addressB8ne180100INS_16reverse_iteratorINS1_IPNS_4pairIiN5Catch9StringRefEEEEEEEvEEu7__decayIDTclsr19__to_address_helperIT_EE6__callclsr3stdE7declvalIRKS9_EEEEESB_, symObjAddr: 0x431A0, symBinAddr: 0x100043AB4, symSize: 0x24 }
  - { offset: 0xA53E9, size: 0x8, addend: 0x0, symName: __ZNSt3__14prevB8ne180100INS_16reverse_iteratorIPNS_4pairIiN5Catch9StringRefEEEEELi0EEET_S8_NS_15iterator_traitsIS8_E15difference_typeE, symObjAddr: 0x4329C, symBinAddr: 0x100043BB0, symSize: 0x4C }
  - { offset: 0xA5436, size: 0x8, addend: 0x0, symName: __ZNSt3__19__advanceB8ne180100INS_16reverse_iteratorIPNS_4pairIiN5Catch9StringRefEEEEEEEvRT_NS_15iterator_traitsIS8_E15difference_typeENS_26random_access_iterator_tagE, symObjAddr: 0x43320, symBinAddr: 0x100043C34, symSize: 0x2C }
  - { offset: 0xA5483, size: 0x8, addend: 0x0, symName: __ZNSt3__1eqB8ne180100IPKiEEbRKNS_11__wrap_iterIT_EES7_, symObjAddr: 0x43684, symBinAddr: 0x100043F98, symSize: 0x48 }
  - { offset: 0xA54C9, size: 0x8, addend: 0x0, symName: __ZNSt3__114__construct_atB8ne180100INS_4pairIiN5Catch9StringRefEEEJRiRKS3_EPS4_EEPT_SA_DpOT0_, symObjAddr: 0x43958, symBinAddr: 0x10004426C, symSize: 0x34 }
  - { offset: 0xA5537, size: 0x8, addend: 0x0, symName: __ZNSt3__112construct_atB8ne180100INS_4pairIiN5Catch9StringRefEEEJRiRKS3_EPS4_EEPT_SA_DpOT0_, symObjAddr: 0x4398C, symBinAddr: 0x1000442A0, symSize: 0x3C }
  - { offset: 0xA55A5, size: 0x8, addend: 0x0, symName: __ZNSt3__112__to_addressB8ne180100INS_10unique_ptrIN5Catch6Detail8EnumInfoENS_14default_deleteIS4_EEEEEEPT_S9_, symObjAddr: 0x43D78, symBinAddr: 0x10004468C, symSize: 0x14 }
  - { offset: 0xA55DC, size: 0x8, addend: 0x0, symName: __ZNSt3__114__construct_atB8ne180100INS_10unique_ptrIN5Catch6Detail8EnumInfoENS_14default_deleteIS4_EEEEJS7_EPS7_EEPT_SA_DpOT0_, symObjAddr: 0x43DFC, symBinAddr: 0x100044710, symSize: 0x2C }
  - { offset: 0xA5635, size: 0x8, addend: 0x0, symName: __ZNSt3__112construct_atB8ne180100INS_10unique_ptrIN5Catch6Detail8EnumInfoENS_14default_deleteIS4_EEEEJS7_EPS7_EEPT_SA_DpOT0_, symObjAddr: 0x43E28, symBinAddr: 0x10004473C, symSize: 0x34 }
  - { offset: 0xA568E, size: 0x8, addend: 0x0, symName: __ZNSt3__119__allocate_at_leastB8ne180100INS_9allocatorINS_10unique_ptrIN5Catch6Detail8EnumInfoENS_14default_deleteIS5_EEEEEEEENS_19__allocation_resultINS_16allocator_traitsIT_E7pointerEEERSC_m, symObjAddr: 0x445EC, symBinAddr: 0x100044F00, symSize: 0x40 }
  - { offset: 0xA56D3, size: 0x8, addend: 0x0, symName: __ZNSt3__142__uninitialized_allocator_move_if_noexceptB8ne180100INS_9allocatorINS_10unique_ptrIN5Catch6Detail8EnumInfoENS_14default_deleteIS5_EEEEEENS_16reverse_iteratorIPS8_EESC_SC_EET2_RT_T0_T1_SD_, symObjAddr: 0x447CC, symBinAddr: 0x1000450E0, symSize: 0x12C }
  - { offset: 0xA5774, size: 0x8, addend: 0x0, symName: __ZNSt3__14swapB8ne180100IPNS_10unique_ptrIN5Catch6Detail8EnumInfoENS_14default_deleteIS4_EEEEEENS_9enable_ifIXaasr21is_move_constructibleIT_EE5valuesr18is_move_assignableISA_EE5valueEvE4typeERSA_SD_, symObjAddr: 0x44944, symBinAddr: 0x100045258, symSize: 0x3C }
  - { offset: 0xA57C9, size: 0x8, addend: 0x0, symName: __ZNSt3__122__make_exception_guardB8ne180100INS_29_AllocatorDestroyRangeReverseINS_9allocatorINS_10unique_ptrIN5Catch6Detail8EnumInfoENS_14default_deleteIS6_EEEEEENS_16reverse_iteratorIPS9_EEEEEENS_28__exception_guard_exceptionsIT_EESG_, symObjAddr: 0x44994, symBinAddr: 0x1000452A8, symSize: 0x4C }
  - { offset: 0xA5801, size: 0x8, addend: 0x0, symName: __ZNSt3__1neB8ne180100IPNS_10unique_ptrIN5Catch6Detail8EnumInfoENS_14default_deleteIS4_EEEES8_EEbRKNS_16reverse_iteratorIT_EERKNS9_IT0_EE, symObjAddr: 0x44A24, symBinAddr: 0x100045338, symSize: 0x48 }
  - { offset: 0xA5850, size: 0x8, addend: 0x0, symName: __ZNSt3__112__to_addressB8ne180100INS_16reverse_iteratorIPNS_10unique_ptrIN5Catch6Detail8EnumInfoENS_14default_deleteIS5_EEEEEEvEEu7__decayIDTclsr19__to_address_helperIT_EE6__callclsr3stdE7declvalIRKSB_EEEEESD_, symObjAddr: 0x44A6C, symBinAddr: 0x100045380, symSize: 0x24 }
  - { offset: 0xA58B3, size: 0x8, addend: 0x0, symName: __ZNSt3__14prevB8ne180100IPNS_10unique_ptrIN5Catch6Detail8EnumInfoENS_14default_deleteIS4_EEEELi0EEET_S9_NS_15iterator_traitsIS9_E15difference_typeE, symObjAddr: 0x44C20, symBinAddr: 0x100045534, symSize: 0x3C }
  - { offset: 0xA5900, size: 0x8, addend: 0x0, symName: __ZNSt3__19__advanceB8ne180100IPNS_10unique_ptrIN5Catch6Detail8EnumInfoENS_14default_deleteIS4_EEEEEEvRT_NS_15iterator_traitsIS9_E15difference_typeENS_26random_access_iterator_tagE, symObjAddr: 0x44C94, symBinAddr: 0x1000455A8, symSize: 0x28 }
  - { offset: 0xA594C, size: 0x8, addend: 0x0, symName: __ZNSt3__119__allocator_destroyB8ne180100INS_9allocatorINS_10unique_ptrIN5Catch6Detail8EnumInfoENS_14default_deleteIS5_EEEEEENS_16reverse_iteratorINSA_IPS8_EEEESD_EEvRT_T0_T1_, symObjAddr: 0x44DC0, symBinAddr: 0x1000456D4, symSize: 0x70 }
  - { offset: 0xA59B2, size: 0x8, addend: 0x0, symName: __ZNSt3__1neB8ne180100INS_16reverse_iteratorIPNS_10unique_ptrIN5Catch6Detail8EnumInfoENS_14default_deleteIS5_EEEEEESA_EEbRKNS1_IT_EERKNS1_IT0_EE, symObjAddr: 0x44E6C, symBinAddr: 0x100045780, symSize: 0x60 }
  - { offset: 0xA5A01, size: 0x8, addend: 0x0, symName: __ZNSt3__112__to_addressB8ne180100INS_16reverse_iteratorINS1_IPNS_10unique_ptrIN5Catch6Detail8EnumInfoENS_14default_deleteIS5_EEEEEEEEvEEu7__decayIDTclsr19__to_address_helperIT_EE6__callclsr3stdE7declvalIRKSC_EEEEESE_, symObjAddr: 0x44EF4, symBinAddr: 0x100045808, symSize: 0x24 }
  - { offset: 0xA5A39, size: 0x8, addend: 0x0, symName: __ZNSt3__112__destroy_atB8ne180100INS_10unique_ptrIN5Catch6Detail8EnumInfoENS_14default_deleteIS4_EEEELi0EEEvPT_, symObjAddr: 0x44F6C, symBinAddr: 0x100045880, symSize: 0x24 }
  - { offset: 0xA5A9E, size: 0x8, addend: 0x0, symName: __ZNSt3__14prevB8ne180100INS_16reverse_iteratorIPNS_10unique_ptrIN5Catch6Detail8EnumInfoENS_14default_deleteIS5_EEEEEELi0EEET_SB_NS_15iterator_traitsISB_E15difference_typeE, symObjAddr: 0x45014, symBinAddr: 0x100045928, symSize: 0x4C }
  - { offset: 0xA5AEB, size: 0x8, addend: 0x0, symName: __ZNSt3__19__advanceB8ne180100INS_16reverse_iteratorIPNS_10unique_ptrIN5Catch6Detail8EnumInfoENS_14default_deleteIS5_EEEEEEEEvRT_NS_15iterator_traitsISB_E15difference_typeENS_26random_access_iterator_tagE, symObjAddr: 0x45098, symBinAddr: 0x1000459AC, symSize: 0x2C }
  - { offset: 0xA5B38, size: 0x8, addend: 0x0, symName: __ZNSt3__112__to_addressB8ne180100INS_10unique_ptrIKN5Catch20IExceptionTranslatorENS_14default_deleteIS4_EEEEEEPT_S9_, symObjAddr: 0x45678, symBinAddr: 0x100045F8C, symSize: 0x14 }
  - { offset: 0xA5B6F, size: 0x8, addend: 0x0, symName: __ZNSt3__112__destroy_atB8ne180100INS_10unique_ptrIKN5Catch20IExceptionTranslatorENS_14default_deleteIS4_EEEELi0EEEvPT_, symObjAddr: 0x4568C, symBinAddr: 0x100045FA0, symSize: 0x24 }
  - { offset: 0xA5BA9, size: 0x8, addend: 0x0, symName: __ZNSt3__114__construct_atB8ne180100INS_10unique_ptrIKN5Catch20IExceptionTranslatorENS_14default_deleteIS4_EEEEJS7_EPS7_EEPT_SA_DpOT0_, symObjAddr: 0x45A3C, symBinAddr: 0x100046350, symSize: 0x2C }
  - { offset: 0xA5C02, size: 0x8, addend: 0x0, symName: __ZNSt3__112construct_atB8ne180100INS_10unique_ptrIKN5Catch20IExceptionTranslatorENS_14default_deleteIS4_EEEEJS7_EPS7_EEPT_SA_DpOT0_, symObjAddr: 0x45A68, symBinAddr: 0x10004637C, symSize: 0x34 }
  - { offset: 0xA5C5B, size: 0x8, addend: 0x0, symName: __ZNSt3__119__allocate_at_leastB8ne180100INS_9allocatorINS_10unique_ptrIKN5Catch20IExceptionTranslatorENS_14default_deleteIS5_EEEEEEEENS_19__allocation_resultINS_16allocator_traitsIT_E7pointerEEERSC_m, symObjAddr: 0x46154, symBinAddr: 0x100046A68, symSize: 0x40 }
  - { offset: 0xA5CA0, size: 0x8, addend: 0x0, symName: __ZNSt3__142__uninitialized_allocator_move_if_noexceptB8ne180100INS_9allocatorINS_10unique_ptrIKN5Catch20IExceptionTranslatorENS_14default_deleteIS5_EEEEEENS_16reverse_iteratorIPS8_EESC_SC_EET2_RT_T0_T1_SD_, symObjAddr: 0x46324, symBinAddr: 0x100046C38, symSize: 0x12C }
  - { offset: 0xA5D41, size: 0x8, addend: 0x0, symName: __ZNSt3__14swapB8ne180100IPNS_10unique_ptrIKN5Catch20IExceptionTranslatorENS_14default_deleteIS4_EEEEEENS_9enable_ifIXaasr21is_move_constructibleIT_EE5valuesr18is_move_assignableISA_EE5valueEvE4typeERSA_SD_, symObjAddr: 0x4649C, symBinAddr: 0x100046DB0, symSize: 0x3C }
  - { offset: 0xA5D96, size: 0x8, addend: 0x0, symName: __ZNSt3__122__make_exception_guardB8ne180100INS_29_AllocatorDestroyRangeReverseINS_9allocatorINS_10unique_ptrIKN5Catch20IExceptionTranslatorENS_14default_deleteIS6_EEEEEENS_16reverse_iteratorIPS9_EEEEEENS_28__exception_guard_exceptionsIT_EESG_, symObjAddr: 0x464EC, symBinAddr: 0x100046E00, symSize: 0x4C }
  - { offset: 0xA5DCE, size: 0x8, addend: 0x0, symName: __ZNSt3__1neB8ne180100IPNS_10unique_ptrIKN5Catch20IExceptionTranslatorENS_14default_deleteIS4_EEEES8_EEbRKNS_16reverse_iteratorIT_EERKNS9_IT0_EE, symObjAddr: 0x4657C, symBinAddr: 0x100046E90, symSize: 0x48 }
  - { offset: 0xA5E1D, size: 0x8, addend: 0x0, symName: __ZNSt3__112__to_addressB8ne180100INS_16reverse_iteratorIPNS_10unique_ptrIKN5Catch20IExceptionTranslatorENS_14default_deleteIS5_EEEEEEvEEu7__decayIDTclsr19__to_address_helperIT_EE6__callclsr3stdE7declvalIRKSB_EEEEESD_, symObjAddr: 0x465C4, symBinAddr: 0x100046ED8, symSize: 0x24 }
  - { offset: 0xA5E80, size: 0x8, addend: 0x0, symName: __ZNSt3__14prevB8ne180100IPNS_10unique_ptrIKN5Catch20IExceptionTranslatorENS_14default_deleteIS4_EEEELi0EEET_S9_NS_15iterator_traitsIS9_E15difference_typeE, symObjAddr: 0x46778, symBinAddr: 0x10004708C, symSize: 0x3C }
  - { offset: 0xA5ECD, size: 0x8, addend: 0x0, symName: __ZNSt3__19__advanceB8ne180100IPNS_10unique_ptrIKN5Catch20IExceptionTranslatorENS_14default_deleteIS4_EEEEEEvRT_NS_15iterator_traitsIS9_E15difference_typeENS_26random_access_iterator_tagE, symObjAddr: 0x467EC, symBinAddr: 0x100047100, symSize: 0x28 }
  - { offset: 0xA5F19, size: 0x8, addend: 0x0, symName: __ZNSt3__119__allocator_destroyB8ne180100INS_9allocatorINS_10unique_ptrIKN5Catch20IExceptionTranslatorENS_14default_deleteIS5_EEEEEENS_16reverse_iteratorINSA_IPS8_EEEESD_EEvRT_T0_T1_, symObjAddr: 0x46918, symBinAddr: 0x10004722C, symSize: 0x70 }
  - { offset: 0xA5F7F, size: 0x8, addend: 0x0, symName: __ZNSt3__1neB8ne180100INS_16reverse_iteratorIPNS_10unique_ptrIKN5Catch20IExceptionTranslatorENS_14default_deleteIS5_EEEEEESA_EEbRKNS1_IT_EERKNS1_IT0_EE, symObjAddr: 0x469C4, symBinAddr: 0x1000472D8, symSize: 0x60 }
  - { offset: 0xA5FCE, size: 0x8, addend: 0x0, symName: __ZNSt3__112__to_addressB8ne180100INS_16reverse_iteratorINS1_IPNS_10unique_ptrIKN5Catch20IExceptionTranslatorENS_14default_deleteIS5_EEEEEEEEvEEu7__decayIDTclsr19__to_address_helperIT_EE6__callclsr3stdE7declvalIRKSC_EEEEESE_, symObjAddr: 0x46A24, symBinAddr: 0x100047338, symSize: 0x24 }
  - { offset: 0xA6031, size: 0x8, addend: 0x0, symName: __ZNSt3__14prevB8ne180100INS_16reverse_iteratorIPNS_10unique_ptrIKN5Catch20IExceptionTranslatorENS_14default_deleteIS5_EEEEEELi0EEET_SB_NS_15iterator_traitsISB_E15difference_typeE, symObjAddr: 0x46B20, symBinAddr: 0x100047434, symSize: 0x4C }
  - { offset: 0xA607E, size: 0x8, addend: 0x0, symName: __ZNSt3__19__advanceB8ne180100INS_16reverse_iteratorIPNS_10unique_ptrIKN5Catch20IExceptionTranslatorENS_14default_deleteIS5_EEEEEEEEvRT_NS_15iterator_traitsISB_E15difference_typeENS_26random_access_iterator_tagE, symObjAddr: 0x46BA4, symBinAddr: 0x1000474B8, symSize: 0x2C }
  - { offset: 0xA60CB, size: 0x8, addend: 0x0, symName: __ZNSt3__13maxB8ne180100ImNS_6__lessIvvEEEERKT_S5_S5_T0_, symObjAddr: 0x46F28, symBinAddr: 0x10004783C, symSize: 0x54 }
  - { offset: 0xA6238, size: 0x8, addend: 0x0, symName: __ZNSt3__122__make_exception_guardB8ne180100INS_6vectorIN5Catch11MessageInfoENS_9allocatorIS3_EEE16__destroy_vectorEEENS_28__exception_guard_exceptionsIT_EES9_, symObjAddr: 0x472C0, symBinAddr: 0x100047BD4, symSize: 0x40 }
  - { offset: 0xA626F, size: 0x8, addend: 0x0, symName: __ZNSt3__119__allocate_at_leastB8ne180100INS_9allocatorIN5Catch11MessageInfoEEEEENS_19__allocation_resultINS_16allocator_traitsIT_E7pointerEEERS7_m, symObjAddr: 0x475A8, symBinAddr: 0x100047EBC, symSize: 0x40 }
  - { offset: 0xA62B4, size: 0x8, addend: 0x0, symName: __ZNSt3__130__uninitialized_allocator_copyB8ne180100INS_9allocatorIN5Catch11MessageInfoEEEPS3_S5_S5_EET2_RT_T0_T1_S6_, symObjAddr: 0x47778, symBinAddr: 0x10004808C, symSize: 0x80 }
  - { offset: 0xA6352, size: 0x8, addend: 0x0, symName: __ZNSt3__114__unwrap_rangeB8ne180100IPN5Catch11MessageInfoES3_EEDaT_T0_, symObjAddr: 0x47868, symBinAddr: 0x10004817C, symSize: 0x3C }
  - { offset: 0xA63A0, size: 0x8, addend: 0x0, symName: __ZNSt3__135__uninitialized_allocator_copy_implB8ne180100INS_9allocatorIN5Catch11MessageInfoEEEPS3_S5_S5_EET2_RT_T0_T1_S6_, symObjAddr: 0x478A4, symBinAddr: 0x1000481B8, symSize: 0xF4 }
  - { offset: 0xA643F, size: 0x8, addend: 0x0, symName: __ZNSt3__113__unwrap_iterB8ne180100IPN5Catch11MessageInfoENS_18__unwrap_iter_implIS3_Lb1EEELi0EEEDTclsrT0_8__unwrapclsr3stdE7declvalIT_EEEES7_, symObjAddr: 0x47998, symBinAddr: 0x1000482AC, symSize: 0x24 }
  - { offset: 0xA6486, size: 0x8, addend: 0x0, symName: __ZNSt3__113__rewrap_iterB8ne180100IPN5Catch11MessageInfoES3_NS_18__unwrap_iter_implIS3_Lb1EEEEET_S6_T0_, symObjAddr: 0x479BC, symBinAddr: 0x1000482D0, symSize: 0x3C }
  - { offset: 0xA6606, size: 0x8, addend: 0x0, symName: __ZNSt3__122__make_exception_guardB8ne180100INS_29_AllocatorDestroyRangeReverseINS_9allocatorIN5Catch11MessageInfoEEEPS4_EEEENS_28__exception_guard_exceptionsIT_EES9_, symObjAddr: 0x47AC0, symBinAddr: 0x1000483D4, symSize: 0x4C }
  - { offset: 0xA663E, size: 0x8, addend: 0x0, symName: __ZNSt3__112__to_addressB8ne180100IN5Catch11MessageInfoEEEPT_S4_, symObjAddr: 0x47B80, symBinAddr: 0x100048494, symSize: 0x14 }
  - { offset: 0xA6675, size: 0x8, addend: 0x0, symName: __ZNSt3__114__construct_atB8ne180100IN5Catch11MessageInfoEJRS2_EPS2_EEPT_S6_DpOT0_, symObjAddr: 0x47C78, symBinAddr: 0x10004858C, symSize: 0x2C }
  - { offset: 0xA66CE, size: 0x8, addend: 0x0, symName: __ZNSt3__112construct_atB8ne180100IN5Catch11MessageInfoEJRS2_EPS2_EEPT_S6_DpOT0_, symObjAddr: 0x47CA4, symBinAddr: 0x1000485B8, symSize: 0x34 }
  - { offset: 0xA6726, size: 0x8, addend: 0x0, symName: __ZNSt3__119__allocator_destroyB8ne180100INS_9allocatorIN5Catch11MessageInfoEEENS_16reverse_iteratorIPS3_EES7_EEvRT_T0_T1_, symObjAddr: 0x47D90, symBinAddr: 0x1000486A4, symSize: 0x70 }
  - { offset: 0xA678A, size: 0x8, addend: 0x0, symName: __ZNSt3__1neB8ne180100IPN5Catch11MessageInfoES3_EEbRKNS_16reverse_iteratorIT_EERKNS4_IT0_EE, symObjAddr: 0x47E34, symBinAddr: 0x100048748, symSize: 0x48 }
  - { offset: 0xA67D9, size: 0x8, addend: 0x0, symName: __ZNSt3__112__to_addressB8ne180100INS_16reverse_iteratorIPN5Catch11MessageInfoEEEvEEu7__decayIDTclsr19__to_address_helperIT_EE6__callclsr3stdE7declvalIRKS6_EEEEES8_, symObjAddr: 0x47EA4, symBinAddr: 0x1000487B8, symSize: 0x24 }
  - { offset: 0xA6811, size: 0x8, addend: 0x0, symName: __ZNSt3__112__destroy_atB8ne180100IN5Catch11MessageInfoELi0EEEvPT_, symObjAddr: 0x47F00, symBinAddr: 0x100048814, symSize: 0x24 }
  - { offset: 0xA6876, size: 0x8, addend: 0x0, symName: __ZNSt3__14prevB8ne180100IPN5Catch11MessageInfoELi0EEET_S4_NS_15iterator_traitsIS4_E15difference_typeE, symObjAddr: 0x47F88, symBinAddr: 0x10004889C, symSize: 0x3C }
  - { offset: 0xA68C3, size: 0x8, addend: 0x0, symName: __ZNSt3__19__advanceB8ne180100IPN5Catch11MessageInfoEEEvRT_NS_15iterator_traitsIS4_E15difference_typeENS_26random_access_iterator_tagE, symObjAddr: 0x47FFC, symBinAddr: 0x100048910, symSize: 0x28 }
  - { offset: 0xA6968, size: 0x8, addend: 0x0, symName: __ZNSt3__114__construct_atB8ne180100IN5Catch11MessageInfoEJRKS2_EPS2_EEPT_S7_DpOT0_, symObjAddr: 0x48540, symBinAddr: 0x100048E54, symSize: 0x2C }
  - { offset: 0xA69C1, size: 0x8, addend: 0x0, symName: __ZNSt3__112construct_atB8ne180100IN5Catch11MessageInfoEJRKS2_EPS2_EEPT_S7_DpOT0_, symObjAddr: 0x4856C, symBinAddr: 0x100048E80, symSize: 0x34 }
  - { offset: 0xA6A19, size: 0x8, addend: 0x0, symName: __ZNSt3__142__uninitialized_allocator_move_if_noexceptB8ne180100INS_9allocatorIN5Catch11MessageInfoEEENS_16reverse_iteratorIPS3_EES7_S7_EET2_RT_T0_T1_S8_, symObjAddr: 0x48A00, symBinAddr: 0x100049314, symSize: 0x124 }
  - { offset: 0xA6ABA, size: 0x8, addend: 0x0, symName: __ZNSt3__14swapB8ne180100IPN5Catch11MessageInfoEEENS_9enable_ifIXaasr21is_move_constructibleIT_EE5valuesr18is_move_assignableIS5_EE5valueEvE4typeERS5_S8_, symObjAddr: 0x48B24, symBinAddr: 0x100049438, symSize: 0x3C }
  - { offset: 0xA6B0F, size: 0x8, addend: 0x0, symName: __ZNSt3__122__make_exception_guardB8ne180100INS_29_AllocatorDestroyRangeReverseINS_9allocatorIN5Catch11MessageInfoEEENS_16reverse_iteratorIPS4_EEEEEENS_28__exception_guard_exceptionsIT_EESB_, symObjAddr: 0x48B60, symBinAddr: 0x100049474, symSize: 0x4C }
  - { offset: 0xA6B47, size: 0x8, addend: 0x0, symName: __ZNSt3__114__construct_atB8ne180100IN5Catch11MessageInfoEJS2_EPS2_EEPT_S5_DpOT0_, symObjAddr: 0x48D2C, symBinAddr: 0x100049640, symSize: 0x2C }
  - { offset: 0xA6BA0, size: 0x8, addend: 0x0, symName: __ZNSt3__112construct_atB8ne180100IN5Catch11MessageInfoEJS2_EPS2_EEPT_S5_DpOT0_, symObjAddr: 0x48D58, symBinAddr: 0x10004966C, symSize: 0x34 }
  - { offset: 0xA6BF8, size: 0x8, addend: 0x0, symName: __ZNSt3__119__allocator_destroyB8ne180100INS_9allocatorIN5Catch11MessageInfoEEENS_16reverse_iteratorINS5_IPS3_EEEES8_EEvRT_T0_T1_, symObjAddr: 0x48F20, symBinAddr: 0x100049834, symSize: 0x70 }
  - { offset: 0xA6C5E, size: 0x8, addend: 0x0, symName: __ZNSt3__1neB8ne180100INS_16reverse_iteratorIPN5Catch11MessageInfoEEES5_EEbRKNS1_IT_EERKNS1_IT0_EE, symObjAddr: 0x48FCC, symBinAddr: 0x1000498E0, symSize: 0x60 }
  - { offset: 0xA6CAD, size: 0x8, addend: 0x0, symName: __ZNSt3__112__to_addressB8ne180100INS_16reverse_iteratorINS1_IPN5Catch11MessageInfoEEEEEvEEu7__decayIDTclsr19__to_address_helperIT_EE6__callclsr3stdE7declvalIRKS7_EEEEES9_, symObjAddr: 0x4902C, symBinAddr: 0x100049940, symSize: 0x24 }
  - { offset: 0xA6D10, size: 0x8, addend: 0x0, symName: __ZNSt3__14prevB8ne180100INS_16reverse_iteratorIPN5Catch11MessageInfoEEELi0EEET_S6_NS_15iterator_traitsIS6_E15difference_typeE, symObjAddr: 0x49128, symBinAddr: 0x100049A3C, symSize: 0x4C }
  - { offset: 0xA6D5D, size: 0x8, addend: 0x0, symName: __ZNSt3__19__advanceB8ne180100INS_16reverse_iteratorIPN5Catch11MessageInfoEEEEEvRT_NS_15iterator_traitsIS6_E15difference_typeENS_26random_access_iterator_tagE, symObjAddr: 0x491AC, symBinAddr: 0x100049AC0, symSize: 0x2C }
  - { offset: 0xA6DAA, size: 0x8, addend: 0x0, symName: __ZNSt3__1eqB8ne180100IPN5Catch8TestCaseEEEbRKNS_11__wrap_iterIT_EES8_, symObjAddr: 0x49884, symBinAddr: 0x10004A198, symSize: 0x48 }
  - { offset: 0xA6DF0, size: 0x8, addend: 0x0, symName: __ZNSt3__112__to_addressB8ne180100IN5Catch8TestCaseEEEPT_S4_, symObjAddr: 0x4A9DC, symBinAddr: 0x10004B2F0, symSize: 0x14 }
  - { offset: 0xA6E27, size: 0x8, addend: 0x0, symName: __ZNSt3__112__destroy_atB8ne180100IN5Catch8TestCaseELi0EEEvPT_, symObjAddr: 0x4A9F0, symBinAddr: 0x10004B304, symSize: 0x24 }
  - { offset: 0xA6E61, size: 0x8, addend: 0x0, symName: __ZNSt3__1eqB8ne180100IPKNS_12basic_stringIcNS_11char_traitsIcEENS_9allocatorIcEEEEEEbRKNS_11__wrap_iterIT_EESD_, symObjAddr: 0x4AB74, symBinAddr: 0x10004B488, symSize: 0x48 }
  - { offset: 0xA6EDD, size: 0x8, addend: 0x0, symName: __ZNSt3__1neB8ne180100IPKN5Catch5clara8TextFlow6ColumnEEEbRKNS_11__wrap_iterIT_EESB_, symObjAddr: 0x4BDD0, symBinAddr: 0x10004C6E4, symSize: 0x34 }
  - { offset: 0xA6F23, size: 0x8, addend: 0x0, symName: __ZNSt3__119__allocate_at_leastB8ne180100INS_9allocatorIN5Catch5clara8TextFlow6Column8iteratorEEEEENS_19__allocation_resultINS_16allocator_traitsIT_E7pointerEEERSA_m, symObjAddr: 0x4C510, symBinAddr: 0x10004CE24, symSize: 0x40 }
  - { offset: 0xA6F68, size: 0x8, addend: 0x0, symName: __ZNSt3__142__uninitialized_allocator_move_if_noexceptB8ne180100INS_9allocatorIN5Catch5clara8TextFlow6Column8iteratorEEENS_16reverse_iteratorIPS6_EESA_SA_EET2_RT_T0_T1_SB_, symObjAddr: 0x4C6EC, symBinAddr: 0x10004D000, symSize: 0x12C }
  - { offset: 0xA7009, size: 0x8, addend: 0x0, symName: __ZNSt3__14swapB8ne180100IPN5Catch5clara8TextFlow6Column8iteratorEEENS_9enable_ifIXaasr21is_move_constructibleIT_EE5valuesr18is_move_assignableIS8_EE5valueEvE4typeERS8_SB_, symObjAddr: 0x4C864, symBinAddr: 0x10004D178, symSize: 0x3C }
  - { offset: 0xA705E, size: 0x8, addend: 0x0, symName: __ZNSt3__122__make_exception_guardB8ne180100INS_29_AllocatorDestroyRangeReverseINS_9allocatorIN5Catch5clara8TextFlow6Column8iteratorEEENS_16reverse_iteratorIPS7_EEEEEENS_28__exception_guard_exceptionsIT_EESE_, symObjAddr: 0x4C8DC, symBinAddr: 0x10004D1F0, symSize: 0x4C }
  - { offset: 0xA7096, size: 0x8, addend: 0x0, symName: __ZNSt3__1neB8ne180100IPN5Catch5clara8TextFlow6Column8iteratorES6_EEbRKNS_16reverse_iteratorIT_EERKNS7_IT0_EE, symObjAddr: 0x4C96C, symBinAddr: 0x10004D280, symSize: 0x48 }
  - { offset: 0xA70E5, size: 0x8, addend: 0x0, symName: __ZNSt3__112__to_addressB8ne180100INS_16reverse_iteratorIPN5Catch5clara8TextFlow6Column8iteratorEEEvEEu7__decayIDTclsr19__to_address_helperIT_EE6__callclsr3stdE7declvalIRKS9_EEEEESB_, symObjAddr: 0x4C9E4, symBinAddr: 0x10004D2F8, symSize: 0x24 }
  - { offset: 0xA711D, size: 0x8, addend: 0x0, symName: __ZNSt3__114__construct_atB8ne180100IN5Catch5clara8TextFlow6Column8iteratorEJS5_EPS5_EEPT_S8_DpOT0_, symObjAddr: 0x4CB34, symBinAddr: 0x10004D448, symSize: 0x2C }
  - { offset: 0xA7176, size: 0x8, addend: 0x0, symName: __ZNSt3__112construct_atB8ne180100IN5Catch5clara8TextFlow6Column8iteratorEJS5_EPS5_EEPT_S8_DpOT0_, symObjAddr: 0x4CB60, symBinAddr: 0x10004D474, symSize: 0x38 }
  - { offset: 0xA71FA, size: 0x8, addend: 0x0, symName: __ZNSt3__112__to_addressB8ne180100IN5Catch5clara8TextFlow6Column8iteratorEEEPT_S7_, symObjAddr: 0x4CBD0, symBinAddr: 0x10004D4E4, symSize: 0x14 }
  - { offset: 0xA7231, size: 0x8, addend: 0x0, symName: __ZNSt3__14prevB8ne180100IPN5Catch5clara8TextFlow6Column8iteratorELi0EEET_S7_NS_15iterator_traitsIS7_E15difference_typeE, symObjAddr: 0x4CC10, symBinAddr: 0x10004D524, symSize: 0x3C }
  - { offset: 0xA727E, size: 0x8, addend: 0x0, symName: __ZNSt3__19__advanceB8ne180100IPN5Catch5clara8TextFlow6Column8iteratorEEEvRT_NS_15iterator_traitsIS7_E15difference_typeENS_26random_access_iterator_tagE, symObjAddr: 0x4CC84, symBinAddr: 0x10004D598, symSize: 0x30 }
  - { offset: 0xA72CA, size: 0x8, addend: 0x0, symName: __ZNSt3__119__allocator_destroyB8ne180100INS_9allocatorIN5Catch5clara8TextFlow6Column8iteratorEEENS_16reverse_iteratorINS8_IPS6_EEEESB_EEvRT_T0_T1_, symObjAddr: 0x4CDB8, symBinAddr: 0x10004D6CC, symSize: 0x70 }
  - { offset: 0xA7330, size: 0x8, addend: 0x0, symName: __ZNSt3__1neB8ne180100INS_16reverse_iteratorIPN5Catch5clara8TextFlow6Column8iteratorEEES8_EEbRKNS1_IT_EERKNS1_IT0_EE, symObjAddr: 0x4CE64, symBinAddr: 0x10004D778, symSize: 0x60 }
  - { offset: 0xA737F, size: 0x8, addend: 0x0, symName: __ZNSt3__112__to_addressB8ne180100INS_16reverse_iteratorINS1_IPN5Catch5clara8TextFlow6Column8iteratorEEEEEvEEu7__decayIDTclsr19__to_address_helperIT_EE6__callclsr3stdE7declvalIRKSA_EEEEESC_, symObjAddr: 0x4CEEC, symBinAddr: 0x10004D800, symSize: 0x24 }
  - { offset: 0xA73B7, size: 0x8, addend: 0x0, symName: __ZNSt3__112__destroy_atB8ne180100IN5Catch5clara8TextFlow6Column8iteratorELi0EEEvPT_, symObjAddr: 0x4CF64, symBinAddr: 0x10004D878, symSize: 0x10 }
  - { offset: 0xA741C, size: 0x8, addend: 0x0, symName: __ZNSt3__14prevB8ne180100INS_16reverse_iteratorIPN5Catch5clara8TextFlow6Column8iteratorEEELi0EEET_S9_NS_15iterator_traitsIS9_E15difference_typeE, symObjAddr: 0x4CFF8, symBinAddr: 0x10004D90C, symSize: 0x4C }
  - { offset: 0xA7469, size: 0x8, addend: 0x0, symName: __ZNSt3__19__advanceB8ne180100INS_16reverse_iteratorIPN5Catch5clara8TextFlow6Column8iteratorEEEEEvRT_NS_15iterator_traitsIS9_E15difference_typeENS_26random_access_iterator_tagE, symObjAddr: 0x4D07C, symBinAddr: 0x10004D990, symSize: 0x2C }
  - { offset: 0xA74B6, size: 0x8, addend: 0x0, symName: __ZNSt3__1eqB8ne180100IPKN5Catch5clara8TextFlow6ColumnEEEbRKNS_11__wrap_iterIT_EESB_, symObjAddr: 0x4D458, symBinAddr: 0x10004DD6C, symSize: 0x48 }
  - { offset: 0xA74FB, size: 0x8, addend: 0x0, symName: __ZNSt3__1eqB8ne180100IN5Catch5clara8TextFlow6Column8iteratorENS_9allocatorIS5_EEEEbRKNS_6vectorIT_T0_EESD_, symObjAddr: 0x4DAD8, symBinAddr: 0x10004E3EC, symSize: 0x9C }
  - { offset: 0xA755A, size: 0x8, addend: 0x0, symName: __ZNSt3__15equalB8ne180100INS_11__wrap_iterIPKN5Catch5clara8TextFlow6Column8iteratorEEES9_EEbT_SA_T0_, symObjAddr: 0x4DB74, symBinAddr: 0x10004E488, symSize: 0x50 }
  - { offset: 0xA75B8, size: 0x8, addend: 0x0, symName: __ZNSt3__15equalB8ne180100INS_11__wrap_iterIPKN5Catch5clara8TextFlow6Column8iteratorEEES9_NS_10__equal_toEEEbT_SB_T0_T1_, symObjAddr: 0x4DC24, symBinAddr: 0x10004E538, symSize: 0x74 }
  - { offset: 0xA762E, size: 0x8, addend: 0x0, symName: __ZNSt3__117__equal_iter_implB8ne180100IPKN5Catch5clara8TextFlow6Column8iteratorES7_NS_10__equal_toEEEbT_S9_T0_RT1_, symObjAddr: 0x4DC98, symBinAddr: 0x10004E5AC, symSize: 0xAC }
  - { offset: 0xA76A4, size: 0x8, addend: 0x0, symName: __ZNSt3__113__unwrap_iterB8ne180100INS_11__wrap_iterIPKN5Catch5clara8TextFlow6Column8iteratorEEENS_18__unwrap_iter_implIS9_Lb1EEELi0EEEDTclsrT0_8__unwrapclsr3stdE7declvalIT_EEEESD_, symObjAddr: 0x4DD44, symBinAddr: 0x10004E658, symSize: 0x2C }
  - { offset: 0xA77E4, size: 0x8, addend: 0x0, symName: __ZNSt3__112__to_addressB8ne180100INS_11__wrap_iterIPKN5Catch5clara8TextFlow6Column8iteratorEEEvEEu7__decayIDTclsr19__to_address_helperIT_EE6__callclsr3stdE7declvalIRKSA_EEEEESC_, symObjAddr: 0x4DDCC, symBinAddr: 0x10004E6E0, symSize: 0x24 }
  - { offset: 0xA78CB, size: 0x8, addend: 0x0, symName: __ZNSt3__112__to_addressB8ne180100IKN5Catch5clara8TextFlow6Column8iteratorEEEPT_S8_, symObjAddr: 0x4DE4C, symBinAddr: 0x10004E760, symSize: 0x14 }
  - { offset: 0xA7901, size: 0x8, addend: 0x0, symName: __ZNSt3__1plB8ne180100IcNS_11char_traitsIcEENS_9allocatorIcEEEENS_12basic_stringIT_T0_T1_EERKS9_SB_, symObjAddr: 0x4DF6C, symBinAddr: 0x10004E880, symSize: 0x134 }
  - { offset: 0xA79A3, size: 0x8, addend: 0x0, symName: __ZNSt3__112__to_addressB8ne180100IcEEPT_S2_, symObjAddr: 0x4E110, symBinAddr: 0x10004EA24, symSize: 0x14 }
  - { offset: 0xA79DA, size: 0x8, addend: 0x0, symName: __ZNSt3__14copyB8ne180100IPKcPcEET0_T_S5_S4_, symObjAddr: 0x4E774, symBinAddr: 0x10004F088, symSize: 0x40 }
  - { offset: 0xA7A38, size: 0x8, addend: 0x0, symName: __ZNSt3__16__copyB8ne180100INS_17_ClassicAlgPolicyEPKcS3_PcEENS_4pairIT0_T2_EES6_T1_S7_, symObjAddr: 0x4E7B4, symBinAddr: 0x10004F0C8, symSize: 0x44 }
  - { offset: 0xA7AA8, size: 0x8, addend: 0x0, symName: __ZNSt3__123__dispatch_copy_or_moveB8ne180100INS_17_ClassicAlgPolicyENS_11__copy_loopIS1_EENS_14__copy_trivialEPKcS6_PcEENS_4pairIT2_T4_EES9_T3_SA_, symObjAddr: 0x4E7F8, symBinAddr: 0x10004F10C, symSize: 0x44 }
  - { offset: 0xA7B2A, size: 0x8, addend: 0x0, symName: __ZNSt3__121__unwrap_and_dispatchB8ne180100INS_10__overloadINS_11__copy_loopINS_17_ClassicAlgPolicyEEENS_14__copy_trivialEEEPKcS8_PcLi0EEENS_4pairIT0_T2_EESB_T1_SC_, symObjAddr: 0x4E83C, symBinAddr: 0x10004F150, symSize: 0xB4 }
  - { offset: 0xA7BBF, size: 0x8, addend: 0x0, symName: __ZNSt3__114__unwrap_rangeB8ne180100IPKcS2_EEDaT_T0_, symObjAddr: 0x4E8F0, symBinAddr: 0x10004F204, symSize: 0x3C }
  - { offset: 0xA7DA1, size: 0x8, addend: 0x0, symName: __ZNSt3__113__unwrap_iterB8ne180100IPcNS_18__unwrap_iter_implIS1_Lb1EEELi0EEEDTclsrT0_8__unwrapclsr3stdE7declvalIT_EEEES5_, symObjAddr: 0x4E974, symBinAddr: 0x10004F288, symSize: 0x24 }
  - { offset: 0xA7DE7, size: 0x8, addend: 0x0, symName: __ZNSt3__19make_pairB8ne180100IPKcPcEENS_4pairINS_18__unwrap_ref_decayIT_E4typeENS5_IT0_E4typeEEEOS6_OS9_, symObjAddr: 0x4E998, symBinAddr: 0x10004F2AC, symSize: 0x38 }
  - { offset: 0xA7E37, size: 0x8, addend: 0x0, symName: __ZNSt3__114__rewrap_rangeB8ne180100IPKcS2_S2_EET0_S3_T1_, symObjAddr: 0x4E9D0, symBinAddr: 0x10004F2E4, symSize: 0x2C }
  - { offset: 0xA7E8F, size: 0x8, addend: 0x0, symName: __ZNSt3__113__rewrap_iterB8ne180100IPcS1_NS_18__unwrap_iter_implIS1_Lb1EEEEET_S4_T0_, symObjAddr: 0x4E9FC, symBinAddr: 0x10004F310, symSize: 0x3C }
  - { offset: 0xA7F3A, size: 0x8, addend: 0x0, symName: __ZNSt3__113__unwrap_iterB8ne180100IPKcNS_18__unwrap_iter_implIS2_Lb1EEELi0EEEDTclsrT0_8__unwrapclsr3stdE7declvalIT_EEEES6_, symObjAddr: 0x4EA90, symBinAddr: 0x10004F3A4, symSize: 0x24 }
  - { offset: 0xA7FD9, size: 0x8, addend: 0x0, symName: __ZNSt3__119__copy_trivial_implB8ne180100IKccEENS_4pairIPT_PT0_EES4_S4_S6_, symObjAddr: 0x4EB48, symBinAddr: 0x10004F45C, symSize: 0x78 }
  - { offset: 0xA8046, size: 0x8, addend: 0x0, symName: __ZNSt3__119__constexpr_memmoveB8ne180100IcKcLi0EEEPT_S3_PT0_NS_15__element_countE, symObjAddr: 0x4EBC0, symBinAddr: 0x10004F4D4, symSize: 0x64 }
  - { offset: 0xA80B9, size: 0x8, addend: 0x0, symName: __ZNSt3__19make_pairB8ne180100IRPKcPcEENS_4pairINS_18__unwrap_ref_decayIT_E4typeENS6_IT0_E4typeEEEOS7_OSA_, symObjAddr: 0x4EC24, symBinAddr: 0x10004F538, symSize: 0x38 }
  - { offset: 0xA8161, size: 0x8, addend: 0x0, symName: __ZNSt3__113__rewrap_iterB8ne180100IPKcS2_NS_18__unwrap_iter_implIS2_Lb1EEEEET_S5_T0_, symObjAddr: 0x4ED8C, symBinAddr: 0x10004F6A0, symSize: 0x3C }
  - { offset: 0xA81B9, size: 0x8, addend: 0x0, symName: __ZNSt3__16fill_nB8ne180100IPcmcEET_S2_T0_RKT1_, symObjAddr: 0x4EE58, symBinAddr: 0x10004F76C, symSize: 0x44 }
  - { offset: 0xA8220, size: 0x8, addend: 0x0, symName: __ZNSt3__18__fill_nB8ne180100IPcmcEET_S2_T0_RKT1_, symObjAddr: 0x4EE9C, symBinAddr: 0x10004F7B0, symSize: 0x64 }
  - { offset: 0xA8287, size: 0x8, addend: 0x0, symName: __ZNSt3__121__convert_to_integralB8ne180100Em, symObjAddr: 0x4EF00, symBinAddr: 0x10004F814, symSize: 0x14 }
  - { offset: 0xA82B5, size: 0x8, addend: 0x0, symName: __ZNSt3__112__to_addressB8ne180100IN5Catch5clara8TextFlow6ColumnEEEPT_S6_, symObjAddr: 0x4F474, symBinAddr: 0x10004FD88, symSize: 0x14 }
  - { offset: 0xA82EC, size: 0x8, addend: 0x0, symName: __ZNSt3__114__construct_atB8ne180100IN5Catch5clara8TextFlow6ColumnEJRKS4_EPS4_EEPT_S9_DpOT0_, symObjAddr: 0x4F500, symBinAddr: 0x10004FE14, symSize: 0x2C }
  - { offset: 0xA8345, size: 0x8, addend: 0x0, symName: __ZNSt3__112construct_atB8ne180100IN5Catch5clara8TextFlow6ColumnEJRKS4_EPS4_EEPT_S9_DpOT0_, symObjAddr: 0x4F52C, symBinAddr: 0x10004FE40, symSize: 0x34 }
  - { offset: 0xA839E, size: 0x8, addend: 0x0, symName: __ZNSt3__119__allocate_at_leastB8ne180100INS_9allocatorIN5Catch5clara8TextFlow6ColumnEEEEENS_19__allocation_resultINS_16allocator_traitsIT_E7pointerEEERS9_m, symObjAddr: 0x4FAAC, symBinAddr: 0x1000503C0, symSize: 0x40 }
  - { offset: 0xA83E3, size: 0x8, addend: 0x0, symName: __ZNSt3__142__uninitialized_allocator_move_if_noexceptB8ne180100INS_9allocatorIN5Catch5clara8TextFlow6ColumnEEENS_16reverse_iteratorIPS5_EES9_S9_EET2_RT_T0_T1_SA_, symObjAddr: 0x4FC74, symBinAddr: 0x100050588, symSize: 0x12C }
  - { offset: 0xA8484, size: 0x8, addend: 0x0, symName: __ZNSt3__14swapB8ne180100IPN5Catch5clara8TextFlow6ColumnEEENS_9enable_ifIXaasr21is_move_constructibleIT_EE5valuesr18is_move_assignableIS7_EE5valueEvE4typeERS7_SA_, symObjAddr: 0x4FDEC, symBinAddr: 0x100050700, symSize: 0x3C }
  - { offset: 0xA84D9, size: 0x8, addend: 0x0, symName: __ZNSt3__122__make_exception_guardB8ne180100INS_29_AllocatorDestroyRangeReverseINS_9allocatorIN5Catch5clara8TextFlow6ColumnEEENS_16reverse_iteratorIPS6_EEEEEENS_28__exception_guard_exceptionsIT_EESD_, symObjAddr: 0x4FE3C, symBinAddr: 0x100050750, symSize: 0x4C }
  - { offset: 0xA8511, size: 0x8, addend: 0x0, symName: __ZNSt3__1neB8ne180100IPN5Catch5clara8TextFlow6ColumnES5_EEbRKNS_16reverse_iteratorIT_EERKNS6_IT0_EE, symObjAddr: 0x4FECC, symBinAddr: 0x1000507E0, symSize: 0x48 }
  - { offset: 0xA8560, size: 0x8, addend: 0x0, symName: __ZNSt3__112__to_addressB8ne180100INS_16reverse_iteratorIPN5Catch5clara8TextFlow6ColumnEEEvEEu7__decayIDTclsr19__to_address_helperIT_EE6__callclsr3stdE7declvalIRKS8_EEEEESA_, symObjAddr: 0x4FF44, symBinAddr: 0x100050858, symSize: 0x24 }
  - { offset: 0xA8598, size: 0x8, addend: 0x0, symName: __ZNSt3__114__construct_atB8ne180100IN5Catch5clara8TextFlow6ColumnEJS4_EPS4_EEPT_S7_DpOT0_, symObjAddr: 0x50094, symBinAddr: 0x1000509A8, symSize: 0x2C }
  - { offset: 0xA85F1, size: 0x8, addend: 0x0, symName: __ZNSt3__112construct_atB8ne180100IN5Catch5clara8TextFlow6ColumnEJS4_EPS4_EEPT_S7_DpOT0_, symObjAddr: 0x500C0, symBinAddr: 0x1000509D4, symSize: 0x34 }
  - { offset: 0xA8675, size: 0x8, addend: 0x0, symName: __ZNSt3__14prevB8ne180100IPN5Catch5clara8TextFlow6ColumnELi0EEET_S6_NS_15iterator_traitsIS6_E15difference_typeE, symObjAddr: 0x50440, symBinAddr: 0x100050D54, symSize: 0x3C }
  - { offset: 0xA86C2, size: 0x8, addend: 0x0, symName: __ZNSt3__19__advanceB8ne180100IPN5Catch5clara8TextFlow6ColumnEEEvRT_NS_15iterator_traitsIS6_E15difference_typeENS_26random_access_iterator_tagE, symObjAddr: 0x504B4, symBinAddr: 0x100050DC8, symSize: 0x30 }
  - { offset: 0xA870E, size: 0x8, addend: 0x0, symName: __ZNSt3__119__allocator_destroyB8ne180100INS_9allocatorIN5Catch5clara8TextFlow6ColumnEEENS_16reverse_iteratorINS7_IPS5_EEEESA_EEvRT_T0_T1_, symObjAddr: 0x505E8, symBinAddr: 0x100050EFC, symSize: 0x70 }
  - { offset: 0xA8774, size: 0x8, addend: 0x0, symName: __ZNSt3__1neB8ne180100INS_16reverse_iteratorIPN5Catch5clara8TextFlow6ColumnEEES7_EEbRKNS1_IT_EERKNS1_IT0_EE, symObjAddr: 0x50694, symBinAddr: 0x100050FA8, symSize: 0x60 }
  - { offset: 0xA87C3, size: 0x8, addend: 0x0, symName: __ZNSt3__112__to_addressB8ne180100INS_16reverse_iteratorINS1_IPN5Catch5clara8TextFlow6ColumnEEEEEvEEu7__decayIDTclsr19__to_address_helperIT_EE6__callclsr3stdE7declvalIRKS9_EEEEESB_, symObjAddr: 0x5071C, symBinAddr: 0x100051030, symSize: 0x24 }
  - { offset: 0xA87FB, size: 0x8, addend: 0x0, symName: __ZNSt3__112__destroy_atB8ne180100IN5Catch5clara8TextFlow6ColumnELi0EEEvPT_, symObjAddr: 0x50794, symBinAddr: 0x1000510A8, symSize: 0x24 }
  - { offset: 0xA8860, size: 0x8, addend: 0x0, symName: __ZNSt3__14prevB8ne180100INS_16reverse_iteratorIPN5Catch5clara8TextFlow6ColumnEEELi0EEET_S8_NS_15iterator_traitsIS8_E15difference_typeE, symObjAddr: 0x5083C, symBinAddr: 0x100051150, symSize: 0x4C }
  - { offset: 0xA88AD, size: 0x8, addend: 0x0, symName: __ZNSt3__19__advanceB8ne180100INS_16reverse_iteratorIPN5Catch5clara8TextFlow6ColumnEEEEEvRT_NS_15iterator_traitsIS8_E15difference_typeENS_26random_access_iterator_tagE, symObjAddr: 0x508C0, symBinAddr: 0x1000511D4, symSize: 0x2C }
  - { offset: 0xA88F9, size: 0x8, addend: 0x0, symName: __ZNSt3__1eqB8ne180100IcNS_11char_traitsIcEEEEbNS_17basic_string_viewIT_T0_EENS_13type_identityIS6_E4typeE, symObjAddr: 0x50E28, symBinAddr: 0x10005173C, symSize: 0xB0 }
  - { offset: 0xA8948, size: 0x8, addend: 0x0, symName: __ZNSt3__128__char_traits_length_checkedB8ne180100INS_11char_traitsIcEEEEmPKNT_9char_typeE, symObjAddr: 0x51174, symBinAddr: 0x100051A88, symSize: 0x24 }
  - { offset: 0xA8980, size: 0x8, addend: 0x0, symName: __ZNSt3__13maxB8ne180100IdNS_6__lessIvvEEEERKT_S5_S5_T0_, symObjAddr: 0x514B4, symBinAddr: 0x100051DC8, symSize: 0x54 }
  - { offset: 0xA89DE, size: 0x8, addend: 0x0, symName: __ZNSt3__114__construct_atB8ne180100IN5Catch11MessageInfoEJRNS1_9StringRefERKNS1_14SourceLineInfoERNS1_9ResultWas6OfTypeEEPS2_EEPT_SD_DpOT0_, symObjAddr: 0x51BFC, symBinAddr: 0x100052510, symSize: 0x3C }
  - { offset: 0xA8A61, size: 0x8, addend: 0x0, symName: __ZNSt3__112construct_atB8ne180100IN5Catch11MessageInfoEJRNS1_9StringRefERKNS1_14SourceLineInfoERNS1_9ResultWas6OfTypeEEPS2_EEPT_SD_DpOT0_, symObjAddr: 0x51C38, symBinAddr: 0x10005254C, symSize: 0x48 }
  - { offset: 0xA8AE3, size: 0x8, addend: 0x0, symName: __ZNSt3__1neB8ne180100ERKNS_16__deque_iteratorIcPcRcPS1_lLl4096EEES6_, symObjAddr: 0x521E8, symBinAddr: 0x100052AFC, symSize: 0x34 }
  - { offset: 0xA8B20, size: 0x8, addend: 0x0, symName: __ZNSt3__1eqB8ne180100ERKNS_16__deque_iteratorIcPcRcPS1_lLl4096EEES6_, symObjAddr: 0x52484, symBinAddr: 0x100052D98, symSize: 0x30 }
  - { offset: 0xA8B5E, size: 0x8, addend: 0x0, symName: __ZNSt3__112__destroy_atB8ne180100IcLi0EEEvPT_, symObjAddr: 0x524B4, symBinAddr: 0x100052DC8, symSize: 0x10 }
  - { offset: 0xA8B98, size: 0x8, addend: 0x0, symName: __ZNSt3__112__to_addressB8ne180100IPcEEPT_S3_, symObjAddr: 0x5277C, symBinAddr: 0x100053090, symSize: 0x14 }
  - { offset: 0xA8BCF, size: 0x8, addend: 0x0, symName: __ZNSt3__112__destroy_atB8ne180100IPcLi0EEEvPT_, symObjAddr: 0x52790, symBinAddr: 0x1000530A4, symSize: 0x10 }
  - { offset: 0xA8C09, size: 0x8, addend: 0x0, symName: __ZNSt3__112__to_addressB8ne180100INS_10shared_ptrIN5Catch16IReporterFactoryEEEEEPT_S6_, symObjAddr: 0x52BA4, symBinAddr: 0x1000534B8, symSize: 0x14 }
  - { offset: 0xA8C40, size: 0x8, addend: 0x0, symName: __ZNSt3__112__destroy_atB8ne180100INS_10shared_ptrIN5Catch16IReporterFactoryEEELi0EEEvPT_, symObjAddr: 0x52BB8, symBinAddr: 0x1000534CC, symSize: 0x24 }
  - { offset: 0xA8C7A, size: 0x8, addend: 0x0, symName: __ZNSt3__114__construct_atB8ne180100INS_10shared_ptrIN5Catch16IReporterFactoryEEEJRKS4_EPS4_EEPT_S9_DpOT0_, symObjAddr: 0x530FC, symBinAddr: 0x100053A10, symSize: 0x2C }
  - { offset: 0xA8CD3, size: 0x8, addend: 0x0, symName: __ZNSt3__112construct_atB8ne180100INS_10shared_ptrIN5Catch16IReporterFactoryEEEJRKS4_EPS4_EEPT_S9_DpOT0_, symObjAddr: 0x53128, symBinAddr: 0x100053A3C, symSize: 0x34 }
  - { offset: 0xA8D2C, size: 0x8, addend: 0x0, symName: __ZNSt3__119__allocate_at_leastB8ne180100INS_9allocatorINS_10shared_ptrIN5Catch16IReporterFactoryEEEEEEENS_19__allocation_resultINS_16allocator_traitsIT_E7pointerEEERS9_m, symObjAddr: 0x53690, symBinAddr: 0x100053FA4, symSize: 0x40 }
  - { offset: 0xA8D71, size: 0x8, addend: 0x0, symName: __ZNSt3__142__uninitialized_allocator_move_if_noexceptB8ne180100INS_9allocatorINS_10shared_ptrIN5Catch16IReporterFactoryEEEEENS_16reverse_iteratorIPS5_EES9_S9_EET2_RT_T0_T1_SA_, symObjAddr: 0x53860, symBinAddr: 0x100054174, symSize: 0x12C }
  - { offset: 0xA8E12, size: 0x8, addend: 0x0, symName: __ZNSt3__14swapB8ne180100IPNS_10shared_ptrIN5Catch16IReporterFactoryEEEEENS_9enable_ifIXaasr21is_move_constructibleIT_EE5valuesr18is_move_assignableIS7_EE5valueEvE4typeERS7_SA_, symObjAddr: 0x539D8, symBinAddr: 0x1000542EC, symSize: 0x3C }
  - { offset: 0xA8E67, size: 0x8, addend: 0x0, symName: __ZNSt3__122__make_exception_guardB8ne180100INS_29_AllocatorDestroyRangeReverseINS_9allocatorINS_10shared_ptrIN5Catch16IReporterFactoryEEEEENS_16reverse_iteratorIPS6_EEEEEENS_28__exception_guard_exceptionsIT_EESD_, symObjAddr: 0x53A28, symBinAddr: 0x10005433C, symSize: 0x4C }
  - { offset: 0xA8E9F, size: 0x8, addend: 0x0, symName: __ZNSt3__1neB8ne180100IPNS_10shared_ptrIN5Catch16IReporterFactoryEEES5_EEbRKNS_16reverse_iteratorIT_EERKNS6_IT0_EE, symObjAddr: 0x53AB8, symBinAddr: 0x1000543CC, symSize: 0x48 }
  - { offset: 0xA8EEE, size: 0x8, addend: 0x0, symName: __ZNSt3__112__to_addressB8ne180100INS_16reverse_iteratorIPNS_10shared_ptrIN5Catch16IReporterFactoryEEEEEvEEu7__decayIDTclsr19__to_address_helperIT_EE6__callclsr3stdE7declvalIRKS8_EEEEESA_, symObjAddr: 0x53B30, symBinAddr: 0x100054444, symSize: 0x24 }
  - { offset: 0xA8F26, size: 0x8, addend: 0x0, symName: __ZNSt3__114__construct_atB8ne180100INS_10shared_ptrIN5Catch16IReporterFactoryEEEJS4_EPS4_EEPT_S7_DpOT0_, symObjAddr: 0x53C80, symBinAddr: 0x100054594, symSize: 0x2C }
  - { offset: 0xA8F7F, size: 0x8, addend: 0x0, symName: __ZNSt3__112construct_atB8ne180100INS_10shared_ptrIN5Catch16IReporterFactoryEEEJS4_EPS4_EEPT_S7_DpOT0_, symObjAddr: 0x53CAC, symBinAddr: 0x1000545C0, symSize: 0x34 }
  - { offset: 0xA9003, size: 0x8, addend: 0x0, symName: __ZNSt3__14prevB8ne180100IPNS_10shared_ptrIN5Catch16IReporterFactoryEEELi0EEET_S6_NS_15iterator_traitsIS6_E15difference_typeE, symObjAddr: 0x53DB8, symBinAddr: 0x1000546CC, symSize: 0x3C }
  - { offset: 0xA9050, size: 0x8, addend: 0x0, symName: __ZNSt3__19__advanceB8ne180100IPNS_10shared_ptrIN5Catch16IReporterFactoryEEEEEvRT_NS_15iterator_traitsIS6_E15difference_typeENS_26random_access_iterator_tagE, symObjAddr: 0x53E2C, symBinAddr: 0x100054740, symSize: 0x28 }
  - { offset: 0xA909C, size: 0x8, addend: 0x0, symName: __ZNSt3__119__allocator_destroyB8ne180100INS_9allocatorINS_10shared_ptrIN5Catch16IReporterFactoryEEEEENS_16reverse_iteratorINS7_IPS5_EEEESA_EEvRT_T0_T1_, symObjAddr: 0x53F58, symBinAddr: 0x10005486C, symSize: 0x70 }
  - { offset: 0xA9102, size: 0x8, addend: 0x0, symName: __ZNSt3__1neB8ne180100INS_16reverse_iteratorIPNS_10shared_ptrIN5Catch16IReporterFactoryEEEEES7_EEbRKNS1_IT_EERKNS1_IT0_EE, symObjAddr: 0x54004, symBinAddr: 0x100054918, symSize: 0x60 }
  - { offset: 0xA9151, size: 0x8, addend: 0x0, symName: __ZNSt3__112__to_addressB8ne180100INS_16reverse_iteratorINS1_IPNS_10shared_ptrIN5Catch16IReporterFactoryEEEEEEEvEEu7__decayIDTclsr19__to_address_helperIT_EE6__callclsr3stdE7declvalIRKS9_EEEEESB_, symObjAddr: 0x54064, symBinAddr: 0x100054978, symSize: 0x24 }
  - { offset: 0xA91B4, size: 0x8, addend: 0x0, symName: __ZNSt3__14prevB8ne180100INS_16reverse_iteratorIPNS_10shared_ptrIN5Catch16IReporterFactoryEEEEELi0EEET_S8_NS_15iterator_traitsIS8_E15difference_typeE, symObjAddr: 0x54160, symBinAddr: 0x100054A74, symSize: 0x4C }
  - { offset: 0xA9201, size: 0x8, addend: 0x0, symName: __ZNSt3__19__advanceB8ne180100INS_16reverse_iteratorIPNS_10shared_ptrIN5Catch16IReporterFactoryEEEEEEEvRT_NS_15iterator_traitsIS8_E15difference_typeENS_26random_access_iterator_tagE, symObjAddr: 0x541E4, symBinAddr: 0x100054AF8, symSize: 0x2C }
  - { offset: 0xA924E, size: 0x8, addend: 0x0, symName: __ZNSt3__112__to_addressB8ne180100INS_10shared_ptrIN5Catch16TestCaseTracking8ITrackerEEEEEPT_S7_, symObjAddr: 0x5477C, symBinAddr: 0x100055090, symSize: 0x14 }
  - { offset: 0xA9285, size: 0x8, addend: 0x0, symName: __ZNSt3__112__destroy_atB8ne180100INS_10shared_ptrIN5Catch16TestCaseTracking8ITrackerEEELi0EEEvPT_, symObjAddr: 0x54790, symBinAddr: 0x1000550A4, symSize: 0x24 }
  - { offset: 0xA92BF, size: 0x8, addend: 0x0, symName: __ZNSt3__112__to_addressB8ne180100IPN5Catch16TestCaseTracking8ITrackerEEEPT_S6_, symObjAddr: 0x54FF8, symBinAddr: 0x10005590C, symSize: 0x14 }
  - { offset: 0xA92F6, size: 0x8, addend: 0x0, symName: __ZNSt3__112__destroy_atB8ne180100IPN5Catch16TestCaseTracking8ITrackerELi0EEEvPT_, symObjAddr: 0x5500C, symBinAddr: 0x100055920, symSize: 0x10 }
  - { offset: 0xA9330, size: 0x8, addend: 0x0, symName: __ZNSt3__112__to_addressB8ne180100IN5Catch14SectionEndInfoEEEPT_S4_, symObjAddr: 0x553A4, symBinAddr: 0x100055CB8, symSize: 0x14 }
  - { offset: 0xA9367, size: 0x8, addend: 0x0, symName: __ZNSt3__112__destroy_atB8ne180100IN5Catch14SectionEndInfoELi0EEEvPT_, symObjAddr: 0x553B8, symBinAddr: 0x100055CCC, symSize: 0x24 }
  - { offset: 0xA93A1, size: 0x8, addend: 0x0, symName: __ZNSt3__112__to_addressB8ne180100IN5Catch13ScopedMessageEEEPT_S4_, symObjAddr: 0x55768, symBinAddr: 0x10005607C, symSize: 0x14 }
  - { offset: 0xA93D8, size: 0x8, addend: 0x0, symName: __ZNSt3__112__destroy_atB8ne180100IN5Catch13ScopedMessageELi0EEEvPT_, symObjAddr: 0x5577C, symBinAddr: 0x100056090, symSize: 0x24 }
  - { offset: 0xA9412, size: 0x8, addend: 0x0, symName: __ZNSt3__114__construct_atB8ne180100IPN5Catch16TestCaseTracking8ITrackerEJS4_EPS4_EEPT_S7_DpOT0_, symObjAddr: 0x55B98, symBinAddr: 0x1000564AC, symSize: 0x2C }
  - { offset: 0xA946B, size: 0x8, addend: 0x0, symName: __ZNSt3__112construct_atB8ne180100IPN5Catch16TestCaseTracking8ITrackerEJS4_EPS4_EEPT_S7_DpOT0_, symObjAddr: 0x55BC4, symBinAddr: 0x1000564D8, symSize: 0x24 }
  - { offset: 0xA94C4, size: 0x8, addend: 0x0, symName: __ZNSt3__119__allocate_at_leastB8ne180100INS_9allocatorIPN5Catch16TestCaseTracking8ITrackerEEEEENS_19__allocation_resultINS_16allocator_traitsIT_E7pointerEEERS9_m, symObjAddr: 0x56078, symBinAddr: 0x10005698C, symSize: 0x40 }
  - { offset: 0xA9509, size: 0x8, addend: 0x0, symName: __ZNSt3__142__uninitialized_allocator_move_if_noexceptB8ne180100INS_9allocatorIPN5Catch16TestCaseTracking8ITrackerEEENS_16reverse_iteratorIPS5_EES9_S5_vEET1_RT_T0_SD_SA_, symObjAddr: 0x5622C, symBinAddr: 0x100056B40, symSize: 0x78 }
  - { offset: 0xA9587, size: 0x8, addend: 0x0, symName: __ZNSt3__14swapB8ne180100IPPN5Catch16TestCaseTracking8ITrackerEEENS_9enable_ifIXaasr21is_move_constructibleIT_EE5valuesr18is_move_assignableIS7_EE5valueEvE4typeERS7_SA_, symObjAddr: 0x562F0, symBinAddr: 0x100056C04, symSize: 0x3C }
  - { offset: 0xA95DC, size: 0x8, addend: 0x0, symName: __ZNSt3__14moveB8ne180100INS_16reverse_iteratorIPPN5Catch16TestCaseTracking8ITrackerEEES7_EET0_T_S9_S8_, symObjAddr: 0x56340, symBinAddr: 0x100056C54, symSize: 0x78 }
  - { offset: 0xA963A, size: 0x8, addend: 0x0, symName: __ZNSt3__16__moveB8ne180100INS_17_ClassicAlgPolicyENS_16reverse_iteratorIPPN5Catch16TestCaseTracking8ITrackerEEES8_S8_EENS_4pairIT0_T2_EESA_T1_SB_, symObjAddr: 0x563B8, symBinAddr: 0x100056CCC, symSize: 0x64 }
  - { offset: 0xA96AA, size: 0x8, addend: 0x0, symName: __ZNSt3__123__dispatch_copy_or_moveB8ne180100INS_17_ClassicAlgPolicyENS_11__move_loopIS1_EENS_14__move_trivialENS_16reverse_iteratorIPPN5Catch16TestCaseTracking8ITrackerEEESB_SB_EENS_4pairIT2_T4_EESD_T3_SE_, symObjAddr: 0x5641C, symBinAddr: 0x100056D30, symSize: 0x64 }
  - { offset: 0xA972C, size: 0x8, addend: 0x0, symName: __ZNSt3__121__unwrap_and_dispatchB8ne180100INS_10__overloadINS_11__move_loopINS_17_ClassicAlgPolicyEEENS_14__move_trivialEEENS_16reverse_iteratorIPPN5Catch16TestCaseTracking8ITrackerEEESD_SD_Li0EEENS_4pairIT0_T2_EESF_T1_SG_, symObjAddr: 0x56480, symBinAddr: 0x100056D94, symSize: 0x12C }
  - { offset: 0xA97C3, size: 0x8, addend: 0x0, symName: __ZNSt3__114__unwrap_rangeB8ne180100INS_16reverse_iteratorIPPN5Catch16TestCaseTracking8ITrackerEEES7_EEDaT_T0_, symObjAddr: 0x565AC, symBinAddr: 0x100056EC0, symSize: 0x4C }
  - { offset: 0xA98ED, size: 0x8, addend: 0x0, symName: __ZNSt3__113__unwrap_iterB8ne180100INS_16reverse_iteratorIPPN5Catch16TestCaseTracking8ITrackerEEENS_18__unwrap_iter_implIS7_Lb0EEELi0EEEDTclsrT0_8__unwrapclsr3stdE7declvalIT_EEEESB_, symObjAddr: 0x56698, symBinAddr: 0x100056FAC, symSize: 0x44 }
  - { offset: 0xA9933, size: 0x8, addend: 0x0, symName: __ZNSt3__19make_pairB8ne180100INS_16reverse_iteratorIPPN5Catch16TestCaseTracking8ITrackerEEES7_EENS_4pairINS_18__unwrap_ref_decayIT_E4typeENS9_IT0_E4typeEEEOSA_OSD_, symObjAddr: 0x566DC, symBinAddr: 0x100056FF0, symSize: 0x38 }
  - { offset: 0xA9983, size: 0x8, addend: 0x0, symName: __ZNSt3__114__rewrap_rangeB8ne180100INS_16reverse_iteratorIPPN5Catch16TestCaseTracking8ITrackerEEES7_S7_EET0_S8_T1_, symObjAddr: 0x56714, symBinAddr: 0x100057028, symSize: 0x5C }
  - { offset: 0xA99DB, size: 0x8, addend: 0x0, symName: __ZNSt3__113__rewrap_iterB8ne180100INS_16reverse_iteratorIPPN5Catch16TestCaseTracking8ITrackerEEES7_NS_18__unwrap_iter_implIS7_Lb0EEEEET_SA_T0_, symObjAddr: 0x56770, symBinAddr: 0x100057084, symSize: 0x74 }
  - { offset: 0xA9A86, size: 0x8, addend: 0x0, symName: __ZNSt3__1neB8ne180100IPPN5Catch16TestCaseTracking8ITrackerES5_EEbRKNS_16reverse_iteratorIT_EERKNS6_IT0_EE, symObjAddr: 0x568D8, symBinAddr: 0x1000571EC, symSize: 0x48 }
  - { offset: 0xA9B2C, size: 0x8, addend: 0x0, symName: __ZNSt3__119static_pointer_castB8ne180100IN5Catch10Generators16GeneratorTrackerENS1_16TestCaseTracking8ITrackerEEENS_10shared_ptrIT_EERKNS6_IT0_EE, symObjAddr: 0x56CF8, symBinAddr: 0x10005760C, symSize: 0x44 }
  - { offset: 0xA9B6C, size: 0x8, addend: 0x0, symName: __ZNSt3__111make_sharedB8ne180100IN5Catch10Generators16GeneratorTrackerEJRKNS1_16TestCaseTracking15NameAndLocationERNS4_14TrackerContextEPNS4_8ITrackerEEvEENS_10shared_ptrIT_EEDpOT0_, symObjAddr: 0x56DB8, symBinAddr: 0x1000576CC, symSize: 0x50 }
  - { offset: 0xA9BDC, size: 0x8, addend: 0x0, symName: __ZNSt3__14swapB8ne180100IPN5Catch10Generators16GeneratorTrackerEEENS_9enable_ifIXaasr21is_move_constructibleIT_EE5valuesr18is_move_assignableIS6_EE5valueEvE4typeERS6_S9_, symObjAddr: 0x56FEC, symBinAddr: 0x100057900, symSize: 0x3C }
  - { offset: 0xA9C30, size: 0x8, addend: 0x0, symName: __ZNSt3__115allocate_sharedB8ne180100IN5Catch10Generators16GeneratorTrackerENS_9allocatorIS3_EEJRKNS1_16TestCaseTracking15NameAndLocationERNS6_14TrackerContextEPNS6_8ITrackerEEvEENS_10shared_ptrIT_EERKT0_DpOT1_, symObjAddr: 0x5707C, symBinAddr: 0x100057990, symSize: 0xA8 }
  - { offset: 0xAA01B, size: 0x8, addend: 0x0, symName: __ZNSt3__114__construct_atB8ne180100IN5Catch10Generators16GeneratorTrackerEJRKNS1_16TestCaseTracking15NameAndLocationERNS4_14TrackerContextEPNS4_8ITrackerEEPS3_EEPT_SE_DpOT0_, symObjAddr: 0x57764, symBinAddr: 0x100058078, symSize: 0x3C }
  - { offset: 0xAA09E, size: 0x8, addend: 0x0, symName: __ZNSt3__112construct_atB8ne180100IN5Catch10Generators16GeneratorTrackerEJRKNS1_16TestCaseTracking15NameAndLocationERNS4_14TrackerContextEPNS4_8ITrackerEEPS3_EEPT_SE_DpOT0_, symObjAddr: 0x577A0, symBinAddr: 0x1000580B4, symSize: 0x48 }
  - { offset: 0xAA121, size: 0x8, addend: 0x0, symName: __ZNSt3__112__destroy_atB8ne180100IN5Catch10Generators16GeneratorTrackerELi0EEEvPT_, symObjAddr: 0x57AB0, symBinAddr: 0x1000583C4, symSize: 0x2C }
  - { offset: 0xAA191, size: 0x8, addend: 0x0, symName: __ZNSt3__114__construct_atB8ne180100IN5Catch14SectionEndInfoEJRKS2_EPS2_EEPT_S7_DpOT0_, symObjAddr: 0x58020, symBinAddr: 0x100058934, symSize: 0x2C }
  - { offset: 0xAA1EA, size: 0x8, addend: 0x0, symName: __ZNSt3__112construct_atB8ne180100IN5Catch14SectionEndInfoEJRKS2_EPS2_EEPT_S7_DpOT0_, symObjAddr: 0x5804C, symBinAddr: 0x100058960, symSize: 0x34 }
  - { offset: 0xAA243, size: 0x8, addend: 0x0, symName: __ZNSt3__119__allocate_at_leastB8ne180100INS_9allocatorIN5Catch14SectionEndInfoEEEEENS_19__allocation_resultINS_16allocator_traitsIT_E7pointerEEERS7_m, symObjAddr: 0x58598, symBinAddr: 0x100058EAC, symSize: 0x40 }
  - { offset: 0xAA288, size: 0x8, addend: 0x0, symName: __ZNSt3__142__uninitialized_allocator_move_if_noexceptB8ne180100INS_9allocatorIN5Catch14SectionEndInfoEEENS_16reverse_iteratorIPS3_EES7_S7_EET2_RT_T0_T1_S8_, symObjAddr: 0x58750, symBinAddr: 0x100059064, symSize: 0x12C }
  - { offset: 0xAA329, size: 0x8, addend: 0x0, symName: __ZNSt3__14swapB8ne180100IPN5Catch14SectionEndInfoEEENS_9enable_ifIXaasr21is_move_constructibleIT_EE5valuesr18is_move_assignableIS5_EE5valueEvE4typeERS5_S8_, symObjAddr: 0x588C8, symBinAddr: 0x1000591DC, symSize: 0x3C }
  - { offset: 0xAA37E, size: 0x8, addend: 0x0, symName: __ZNSt3__122__make_exception_guardB8ne180100INS_29_AllocatorDestroyRangeReverseINS_9allocatorIN5Catch14SectionEndInfoEEENS_16reverse_iteratorIPS4_EEEEEENS_28__exception_guard_exceptionsIT_EESB_, symObjAddr: 0x58918, symBinAddr: 0x10005922C, symSize: 0x4C }
  - { offset: 0xAA3B6, size: 0x8, addend: 0x0, symName: __ZNSt3__1neB8ne180100IPN5Catch14SectionEndInfoES3_EEbRKNS_16reverse_iteratorIT_EERKNS4_IT0_EE, symObjAddr: 0x589A8, symBinAddr: 0x1000592BC, symSize: 0x48 }
  - { offset: 0xAA405, size: 0x8, addend: 0x0, symName: __ZNSt3__112__to_addressB8ne180100INS_16reverse_iteratorIPN5Catch14SectionEndInfoEEEvEEu7__decayIDTclsr19__to_address_helperIT_EE6__callclsr3stdE7declvalIRKS6_EEEEES8_, symObjAddr: 0x58A20, symBinAddr: 0x100059334, symSize: 0x24 }
  - { offset: 0xAA43D, size: 0x8, addend: 0x0, symName: __ZNSt3__114__construct_atB8ne180100IN5Catch14SectionEndInfoEJS2_EPS2_EEPT_S5_DpOT0_, symObjAddr: 0x58B70, symBinAddr: 0x100059484, symSize: 0x2C }
  - { offset: 0xAA496, size: 0x8, addend: 0x0, symName: __ZNSt3__112construct_atB8ne180100IN5Catch14SectionEndInfoEJS2_EPS2_EEPT_S5_DpOT0_, symObjAddr: 0x58B9C, symBinAddr: 0x1000594B0, symSize: 0x34 }
  - { offset: 0xAA51A, size: 0x8, addend: 0x0, symName: __ZNSt3__14prevB8ne180100IPN5Catch14SectionEndInfoELi0EEET_S4_NS_15iterator_traitsIS4_E15difference_typeE, symObjAddr: 0x58D38, symBinAddr: 0x10005964C, symSize: 0x3C }
  - { offset: 0xAA567, size: 0x8, addend: 0x0, symName: __ZNSt3__19__advanceB8ne180100IPN5Catch14SectionEndInfoEEEvRT_NS_15iterator_traitsIS4_E15difference_typeENS_26random_access_iterator_tagE, symObjAddr: 0x58DAC, symBinAddr: 0x1000596C0, symSize: 0x30 }
  - { offset: 0xAA5B3, size: 0x8, addend: 0x0, symName: __ZNSt3__119__allocator_destroyB8ne180100INS_9allocatorIN5Catch14SectionEndInfoEEENS_16reverse_iteratorINS5_IPS3_EEEES8_EEvRT_T0_T1_, symObjAddr: 0x58EE0, symBinAddr: 0x1000597F4, symSize: 0x70 }
  - { offset: 0xAA619, size: 0x8, addend: 0x0, symName: __ZNSt3__1neB8ne180100INS_16reverse_iteratorIPN5Catch14SectionEndInfoEEES5_EEbRKNS1_IT_EERKNS1_IT0_EE, symObjAddr: 0x58F8C, symBinAddr: 0x1000598A0, symSize: 0x60 }
  - { offset: 0xAA668, size: 0x8, addend: 0x0, symName: __ZNSt3__112__to_addressB8ne180100INS_16reverse_iteratorINS1_IPN5Catch14SectionEndInfoEEEEEvEEu7__decayIDTclsr19__to_address_helperIT_EE6__callclsr3stdE7declvalIRKS7_EEEEES9_, symObjAddr: 0x58FEC, symBinAddr: 0x100059900, symSize: 0x24 }
  - { offset: 0xAA6CB, size: 0x8, addend: 0x0, symName: __ZNSt3__14prevB8ne180100INS_16reverse_iteratorIPN5Catch14SectionEndInfoEEELi0EEET_S6_NS_15iterator_traitsIS6_E15difference_typeE, symObjAddr: 0x590E8, symBinAddr: 0x1000599FC, symSize: 0x4C }
  - { offset: 0xAA718, size: 0x8, addend: 0x0, symName: __ZNSt3__19__advanceB8ne180100INS_16reverse_iteratorIPN5Catch14SectionEndInfoEEEEEvRT_NS_15iterator_traitsIS6_E15difference_typeENS_26random_access_iterator_tagE, symObjAddr: 0x5916C, symBinAddr: 0x100059A80, symSize: 0x2C }
  - { offset: 0xAA765, size: 0x8, addend: 0x0, symName: __ZNSt3__1miB8ne180100IPKN5Catch11MessageInfoEPS2_EEDTmicldtfp_4baseEcldtfp0_4baseEERKNS_11__wrap_iterIT_EERKNS7_IT0_EE, symObjAddr: 0x59428, symBinAddr: 0x100059D3C, symSize: 0x48 }
  - { offset: 0xAA7B4, size: 0x8, addend: 0x0, symName: __ZNSt3__14moveB8ne180100IPN5Catch11MessageInfoES3_EET0_T_S5_S4_, symObjAddr: 0x594BC, symBinAddr: 0x100059DD0, symSize: 0x40 }
  - { offset: 0xAA812, size: 0x8, addend: 0x0, symName: __ZNSt3__1miB8ne180100IPKN5Catch11MessageInfoES4_EEDTmicldtfp_4baseEcldtfp0_4baseEERKNS_11__wrap_iterIT_EERKNS6_IT0_EE, symObjAddr: 0x594FC, symBinAddr: 0x100059E10, symSize: 0x48 }
  - { offset: 0xAA861, size: 0x8, addend: 0x0, symName: __ZNSt3__16__moveB8ne180100INS_17_ClassicAlgPolicyEPN5Catch11MessageInfoES4_S4_EENS_4pairIT0_T2_EES6_T1_S7_, symObjAddr: 0x595A4, symBinAddr: 0x100059EB8, symSize: 0x44 }
  - { offset: 0xAA8D1, size: 0x8, addend: 0x0, symName: __ZNSt3__123__dispatch_copy_or_moveB8ne180100INS_17_ClassicAlgPolicyENS_11__move_loopIS1_EENS_14__move_trivialEPN5Catch11MessageInfoES7_S7_EENS_4pairIT2_T4_EES9_T3_SA_, symObjAddr: 0x595E8, symBinAddr: 0x100059EFC, symSize: 0x44 }
  - { offset: 0xAA953, size: 0x8, addend: 0x0, symName: __ZNSt3__121__unwrap_and_dispatchB8ne180100INS_10__overloadINS_11__move_loopINS_17_ClassicAlgPolicyEEENS_14__move_trivialEEEPN5Catch11MessageInfoES9_S9_Li0EEENS_4pairIT0_T2_EESB_T1_SC_, symObjAddr: 0x5962C, symBinAddr: 0x100059F40, symSize: 0xB4 }
  - { offset: 0xAA9E7, size: 0x8, addend: 0x0, symName: __ZNSt3__19make_pairB8ne180100IPN5Catch11MessageInfoES3_EENS_4pairINS_18__unwrap_ref_decayIT_E4typeENS5_IT0_E4typeEEEOS6_OS9_, symObjAddr: 0x59770, symBinAddr: 0x10005A084, symSize: 0x38 }
  - { offset: 0xAAA37, size: 0x8, addend: 0x0, symName: __ZNSt3__114__rewrap_rangeB8ne180100IPN5Catch11MessageInfoES3_S3_EET0_S4_T1_, symObjAddr: 0x597A8, symBinAddr: 0x10005A0BC, symSize: 0x2C }
  - { offset: 0xAAA9B, size: 0x8, addend: 0x0, symName: __ZNSt3__14findB8ne180100INS_11__wrap_iterIPN5Catch11MessageInfoEEES3_EET_S6_S6_RKT0_, symObjAddr: 0x598DC, symBinAddr: 0x10005A1F0, symSize: 0x78 }
  - { offset: 0xAAB08, size: 0x8, addend: 0x0, symName: __ZNSt3__1neB8ne180100IPN5Catch11MessageInfoEEEbRKNS_11__wrap_iterIT_EES8_, symObjAddr: 0x59954, symBinAddr: 0x10005A268, symSize: 0x34 }
  - { offset: 0xAAB4E, size: 0x8, addend: 0x0, symName: __ZNSt3__113__rewrap_iterB8ne180100INS_11__wrap_iterIPN5Catch11MessageInfoEEES4_NS_18__unwrap_iter_implIS5_Lb1EEEEET_S8_T0_, symObjAddr: 0x599C0, symBinAddr: 0x10005A2D4, symSize: 0x4C }
  - { offset: 0xAABA6, size: 0x8, addend: 0x0, symName: __ZNSt3__111__find_implB8ne180100IPN5Catch11MessageInfoES3_S2_NS_10__identityEEET_S5_T0_RKT1_RT2_, symObjAddr: 0x59A0C, symBinAddr: 0x10005A320, symSize: 0x7C }
  - { offset: 0xAAC25, size: 0x8, addend: 0x0, symName: __ZNSt3__113__unwrap_iterB8ne180100INS_11__wrap_iterIPN5Catch11MessageInfoEEENS_18__unwrap_iter_implIS5_Lb1EEELi0EEEDTclsrT0_8__unwrapclsr3stdE7declvalIT_EEEES9_, symObjAddr: 0x59A88, symBinAddr: 0x10005A39C, symSize: 0x2C }
  - { offset: 0xAACC4, size: 0x8, addend: 0x0, symName: __ZNSt3__112__to_addressB8ne180100INS_11__wrap_iterIPN5Catch11MessageInfoEEEvEEu7__decayIDTclsr19__to_address_helperIT_EE6__callclsr3stdE7declvalIRKS6_EEEEES8_, symObjAddr: 0x59B4C, symBinAddr: 0x10005A460, symSize: 0x24 }
  - { offset: 0xAAD68, size: 0x8, addend: 0x0, symName: __ZNSt3__18__invokeB8ne180100IRNS_10__identityEJRN5Catch11MessageInfoEEEEDTclclsr3stdE7declvalIT_EEspclsr3stdE7declvalIT0_EEEEOS6_DpOS7_, symObjAddr: 0x59BF4, symBinAddr: 0x10005A508, symSize: 0x2C }
  - { offset: 0xAAE57, size: 0x8, addend: 0x0, symName: __ZNSt3__1eqB8ne180100IPN5Catch11MessageInfoEEEbRKNS_11__wrap_iterIT_EES8_, symObjAddr: 0x59C60, symBinAddr: 0x10005A574, symSize: 0x48 }
  - { offset: 0xAAE9D, size: 0x8, addend: 0x0, symName: __ZNSt3__114__construct_atB8ne180100IN5Catch13ScopedMessageEJRKNS1_14MessageBuilderEEPS2_EEPT_S8_DpOT0_, symObjAddr: 0x59FA0, symBinAddr: 0x10005A8B4, symSize: 0x2C }
  - { offset: 0xAAEF6, size: 0x8, addend: 0x0, symName: __ZNSt3__112construct_atB8ne180100IN5Catch13ScopedMessageEJRKNS1_14MessageBuilderEEPS2_EEPT_S8_DpOT0_, symObjAddr: 0x59FCC, symBinAddr: 0x10005A8E0, symSize: 0x34 }
  - { offset: 0xAAF4F, size: 0x8, addend: 0x0, symName: __ZNSt3__119__allocate_at_leastB8ne180100INS_9allocatorIN5Catch13ScopedMessageEEEEENS_19__allocation_resultINS_16allocator_traitsIT_E7pointerEEERS7_m, symObjAddr: 0x5A474, symBinAddr: 0x10005AD88, symSize: 0x40 }
  - { offset: 0xAAF94, size: 0x8, addend: 0x0, symName: __ZNSt3__142__uninitialized_allocator_move_if_noexceptB8ne180100INS_9allocatorIN5Catch13ScopedMessageEEENS_16reverse_iteratorIPS3_EES7_S7_EET2_RT_T0_T1_S8_, symObjAddr: 0x5A62C, symBinAddr: 0x10005AF40, symSize: 0x12C }
  - { offset: 0xAB035, size: 0x8, addend: 0x0, symName: __ZNSt3__14swapB8ne180100IPN5Catch13ScopedMessageEEENS_9enable_ifIXaasr21is_move_constructibleIT_EE5valuesr18is_move_assignableIS5_EE5valueEvE4typeERS5_S8_, symObjAddr: 0x5A7A4, symBinAddr: 0x10005B0B8, symSize: 0x3C }
  - { offset: 0xAB08A, size: 0x8, addend: 0x0, symName: __ZNSt3__122__make_exception_guardB8ne180100INS_29_AllocatorDestroyRangeReverseINS_9allocatorIN5Catch13ScopedMessageEEENS_16reverse_iteratorIPS4_EEEEEENS_28__exception_guard_exceptionsIT_EESB_, symObjAddr: 0x5A7F4, symBinAddr: 0x10005B108, symSize: 0x4C }
  - { offset: 0xAB0C2, size: 0x8, addend: 0x0, symName: __ZNSt3__1neB8ne180100IPN5Catch13ScopedMessageES3_EEbRKNS_16reverse_iteratorIT_EERKNS4_IT0_EE, symObjAddr: 0x5A884, symBinAddr: 0x10005B198, symSize: 0x48 }
  - { offset: 0xAB111, size: 0x8, addend: 0x0, symName: __ZNSt3__112__to_addressB8ne180100INS_16reverse_iteratorIPN5Catch13ScopedMessageEEEvEEu7__decayIDTclsr19__to_address_helperIT_EE6__callclsr3stdE7declvalIRKS6_EEEEES8_, symObjAddr: 0x5A8FC, symBinAddr: 0x10005B210, symSize: 0x24 }
  - { offset: 0xAB149, size: 0x8, addend: 0x0, symName: __ZNSt3__114__construct_atB8ne180100IN5Catch13ScopedMessageEJS2_EPS2_EEPT_S5_DpOT0_, symObjAddr: 0x5AA4C, symBinAddr: 0x10005B360, symSize: 0x2C }
  - { offset: 0xAB1A2, size: 0x8, addend: 0x0, symName: __ZNSt3__112construct_atB8ne180100IN5Catch13ScopedMessageEJS2_EPS2_EEPT_S5_DpOT0_, symObjAddr: 0x5AA78, symBinAddr: 0x10005B38C, symSize: 0x34 }
  - { offset: 0xAB226, size: 0x8, addend: 0x0, symName: __ZNSt3__14prevB8ne180100IPN5Catch13ScopedMessageELi0EEET_S4_NS_15iterator_traitsIS4_E15difference_typeE, symObjAddr: 0x5AB10, symBinAddr: 0x10005B424, symSize: 0x3C }
  - { offset: 0xAB273, size: 0x8, addend: 0x0, symName: __ZNSt3__19__advanceB8ne180100IPN5Catch13ScopedMessageEEEvRT_NS_15iterator_traitsIS4_E15difference_typeENS_26random_access_iterator_tagE, symObjAddr: 0x5AB84, symBinAddr: 0x10005B498, symSize: 0x30 }
  - { offset: 0xAB2BF, size: 0x8, addend: 0x0, symName: __ZNSt3__119__allocator_destroyB8ne180100INS_9allocatorIN5Catch13ScopedMessageEEENS_16reverse_iteratorINS5_IPS3_EEEES8_EEvRT_T0_T1_, symObjAddr: 0x5ACB8, symBinAddr: 0x10005B5CC, symSize: 0x70 }
  - { offset: 0xAB325, size: 0x8, addend: 0x0, symName: __ZNSt3__1neB8ne180100INS_16reverse_iteratorIPN5Catch13ScopedMessageEEES5_EEbRKNS1_IT_EERKNS1_IT0_EE, symObjAddr: 0x5AD64, symBinAddr: 0x10005B678, symSize: 0x60 }
  - { offset: 0xAB374, size: 0x8, addend: 0x0, symName: __ZNSt3__112__to_addressB8ne180100INS_16reverse_iteratorINS1_IPN5Catch13ScopedMessageEEEEEvEEu7__decayIDTclsr19__to_address_helperIT_EE6__callclsr3stdE7declvalIRKS7_EEEEES9_, symObjAddr: 0x5ADC4, symBinAddr: 0x10005B6D8, symSize: 0x24 }
  - { offset: 0xAB3D7, size: 0x8, addend: 0x0, symName: __ZNSt3__14prevB8ne180100INS_16reverse_iteratorIPN5Catch13ScopedMessageEEELi0EEET_S6_NS_15iterator_traitsIS6_E15difference_typeE, symObjAddr: 0x5AEC0, symBinAddr: 0x10005B7D4, symSize: 0x4C }
  - { offset: 0xAB424, size: 0x8, addend: 0x0, symName: __ZNSt3__19__advanceB8ne180100INS_16reverse_iteratorIPN5Catch13ScopedMessageEEEEEvRT_NS_15iterator_traitsIS6_E15difference_typeENS_26random_access_iterator_tagE, symObjAddr: 0x5AF44, symBinAddr: 0x10005B858, symSize: 0x2C }
  - { offset: 0xAB471, size: 0x8, addend: 0x0, symName: __ZNSt3__1neB8ne180100IPN5Catch14SectionEndInfoEEEbRKNS_11__wrap_iterIT_EES8_, symObjAddr: 0x5B528, symBinAddr: 0x10005BE3C, symSize: 0x34 }
  - { offset: 0xAB4B7, size: 0x8, addend: 0x0, symName: __ZNSt3__1eqB8ne180100IPN5Catch14SectionEndInfoEEEbRKNS_11__wrap_iterIT_EES8_, symObjAddr: 0x5B57C, symBinAddr: 0x10005BE90, symSize: 0x48 }
  - { offset: 0xAB4FD, size: 0x8, addend: 0x0, symName: __ZNSt3__1eqB8ne180100IPKSt13exception_ptrEEbRKNS_11__wrap_iterIT_EES8_, symObjAddr: 0x5BBB0, symBinAddr: 0x10005C4C4, symSize: 0x48 }
  - { offset: 0xAB543, size: 0x8, addend: 0x0, symName: __ZNSt3__14swapB8ne180100IPNS_12basic_stringIcNS_11char_traitsIcEENS_9allocatorIcEEEEEENS_9enable_ifIXaasr21is_move_constructibleIT_EE5valuesr18is_move_assignableIS9_EE5valueEvE4typeERS9_SC_, symObjAddr: 0x5BE78, symBinAddr: 0x10005C78C, symSize: 0x3C }
  - { offset: 0xAB598, size: 0x8, addend: 0x0, symName: __ZNSt3__1neB8ne180100IPN5Catch5clara6detail11HelpColumnsEEEbRKNS_11__wrap_iterIT_EESA_, symObjAddr: 0x5CBC0, symBinAddr: 0x10005D4D4, symSize: 0x34 }
  - { offset: 0xAB5DE, size: 0x8, addend: 0x0, symName: __ZNSt3__122__make_exception_guardB8ne180100INS_6vectorIN5Catch5clara6detail11HelpColumnsENS_9allocatorIS5_EEE16__destroy_vectorEEENS_28__exception_guard_exceptionsIT_EESB_, symObjAddr: 0x5D70C, symBinAddr: 0x10005E020, symSize: 0x40 }
  - { offset: 0xAB615, size: 0x8, addend: 0x0, symName: __ZNSt3__119__allocate_at_leastB8ne180100INS_9allocatorIN5Catch5clara6detail11HelpColumnsEEEEENS_19__allocation_resultINS_16allocator_traitsIT_E7pointerEEERS9_m, symObjAddr: 0x5DA54, symBinAddr: 0x10005E368, symSize: 0x40 }
  - { offset: 0xAB65A, size: 0x8, addend: 0x0, symName: __ZNSt3__130__uninitialized_allocator_copyB8ne180100INS_9allocatorIN5Catch5clara6detail11HelpColumnsEEEPKS5_S8_PS5_EET2_RT_T0_T1_SA_, symObjAddr: 0x5DC88, symBinAddr: 0x10005E59C, symSize: 0x80 }
  - { offset: 0xAB6F8, size: 0x8, addend: 0x0, symName: __ZNSt3__114__unwrap_rangeB8ne180100IPKN5Catch5clara6detail11HelpColumnsES6_EEDaT_T0_, symObjAddr: 0x5DD80, symBinAddr: 0x10005E694, symSize: 0x3C }
  - { offset: 0xAB746, size: 0x8, addend: 0x0, symName: __ZNSt3__135__uninitialized_allocator_copy_implB8ne180100INS_9allocatorIN5Catch5clara6detail11HelpColumnsEEEPKS5_S8_PS5_EET2_RT_T0_T1_SA_, symObjAddr: 0x5DDBC, symBinAddr: 0x10005E6D0, symSize: 0xF4 }
  - { offset: 0xAB7E5, size: 0x8, addend: 0x0, symName: __ZNSt3__113__unwrap_iterB8ne180100IPN5Catch5clara6detail11HelpColumnsENS_18__unwrap_iter_implIS5_Lb1EEELi0EEEDTclsrT0_8__unwrapclsr3stdE7declvalIT_EEEES9_, symObjAddr: 0x5DEB0, symBinAddr: 0x10005E7C4, symSize: 0x24 }
  - { offset: 0xAB82C, size: 0x8, addend: 0x0, symName: __ZNSt3__113__rewrap_iterB8ne180100IPN5Catch5clara6detail11HelpColumnsES5_NS_18__unwrap_iter_implIS5_Lb1EEEEET_S8_T0_, symObjAddr: 0x5DED4, symBinAddr: 0x10005E7E8, symSize: 0x3C }
  - { offset: 0xAB991, size: 0x8, addend: 0x0, symName: __ZNSt3__113__unwrap_iterB8ne180100IPKN5Catch5clara6detail11HelpColumnsENS_18__unwrap_iter_implIS6_Lb1EEELi0EEEDTclsrT0_8__unwrapclsr3stdE7declvalIT_EEEESA_, symObjAddr: 0x5DF68, symBinAddr: 0x10005E87C, symSize: 0x24 }
  - { offset: 0xABA30, size: 0x8, addend: 0x0, symName: __ZNSt3__112__to_addressB8ne180100IKN5Catch5clara6detail11HelpColumnsEEEPT_S7_, symObjAddr: 0x5DFEC, symBinAddr: 0x10005E900, symSize: 0x14 }
  - { offset: 0xABA67, size: 0x8, addend: 0x0, symName: __ZNSt3__122__make_exception_guardB8ne180100INS_29_AllocatorDestroyRangeReverseINS_9allocatorIN5Catch5clara6detail11HelpColumnsEEEPS6_EEEENS_28__exception_guard_exceptionsIT_EESB_, symObjAddr: 0x5E034, symBinAddr: 0x10005E948, symSize: 0x4C }
  - { offset: 0xABA9F, size: 0x8, addend: 0x0, symName: __ZNSt3__112__to_addressB8ne180100IN5Catch5clara6detail11HelpColumnsEEEPT_S6_, symObjAddr: 0x5E0F4, symBinAddr: 0x10005EA08, symSize: 0x14 }
  - { offset: 0xABAD6, size: 0x8, addend: 0x0, symName: __ZNSt3__114__construct_atB8ne180100IN5Catch5clara6detail11HelpColumnsEJRKS4_EPS4_EEPT_S9_DpOT0_, symObjAddr: 0x5E1EC, symBinAddr: 0x10005EB00, symSize: 0x2C }
  - { offset: 0xABB2F, size: 0x8, addend: 0x0, symName: __ZNSt3__112construct_atB8ne180100IN5Catch5clara6detail11HelpColumnsEJRKS4_EPS4_EEPT_S9_DpOT0_, symObjAddr: 0x5E218, symBinAddr: 0x10005EB2C, symSize: 0x34 }
  - { offset: 0xABB87, size: 0x8, addend: 0x0, symName: __ZNSt3__119__allocator_destroyB8ne180100INS_9allocatorIN5Catch5clara6detail11HelpColumnsEEENS_16reverse_iteratorIPS5_EES9_EEvRT_T0_T1_, symObjAddr: 0x5E3A8, symBinAddr: 0x10005ECBC, symSize: 0x70 }
  - { offset: 0xABBEB, size: 0x8, addend: 0x0, symName: __ZNSt3__1neB8ne180100IPN5Catch5clara6detail11HelpColumnsES5_EEbRKNS_16reverse_iteratorIT_EERKNS6_IT0_EE, symObjAddr: 0x5E44C, symBinAddr: 0x10005ED60, symSize: 0x48 }
  - { offset: 0xABC3A, size: 0x8, addend: 0x0, symName: __ZNSt3__112__to_addressB8ne180100INS_16reverse_iteratorIPN5Catch5clara6detail11HelpColumnsEEEvEEu7__decayIDTclsr19__to_address_helperIT_EE6__callclsr3stdE7declvalIRKS8_EEEEESA_, symObjAddr: 0x5E4BC, symBinAddr: 0x10005EDD0, symSize: 0x24 }
  - { offset: 0xABC72, size: 0x8, addend: 0x0, symName: __ZNSt3__112__destroy_atB8ne180100IN5Catch5clara6detail11HelpColumnsELi0EEEvPT_, symObjAddr: 0x5E518, symBinAddr: 0x10005EE2C, symSize: 0x24 }
  - { offset: 0xABCD7, size: 0x8, addend: 0x0, symName: __ZNSt3__14prevB8ne180100IPN5Catch5clara6detail11HelpColumnsELi0EEET_S6_NS_15iterator_traitsIS6_E15difference_typeE, symObjAddr: 0x5E5A0, symBinAddr: 0x10005EEB4, symSize: 0x3C }
  - { offset: 0xABD24, size: 0x8, addend: 0x0, symName: __ZNSt3__19__advanceB8ne180100IPN5Catch5clara6detail11HelpColumnsEEEvRT_NS_15iterator_traitsIS6_E15difference_typeENS_26random_access_iterator_tagE, symObjAddr: 0x5E614, symBinAddr: 0x10005EF28, symSize: 0x30 }
  - { offset: 0xABDC9, size: 0x8, addend: 0x0, symName: __ZNSt3__18distanceB8ne180100INS_11__wrap_iterIPN5Catch5clara6detail11HelpColumnsEEEEENS_15iterator_traitsIT_E15difference_typeES9_S9_, symObjAddr: 0x5ED70, symBinAddr: 0x10005F684, symSize: 0x3C }
  - { offset: 0xABE0F, size: 0x8, addend: 0x0, symName: __ZNSt3__1miB8ne180100IPKN5Catch5clara6detail11HelpColumnsEPS4_EEDTmicldtfp_4baseEcldtfp0_4baseEERKNS_11__wrap_iterIT_EERKNS9_IT0_EE, symObjAddr: 0x5EDAC, symBinAddr: 0x10005F6C0, symSize: 0x48 }
  - { offset: 0xABE5E, size: 0x8, addend: 0x0, symName: __ZNSt3__14nextB8ne180100INS_11__wrap_iterIPN5Catch5clara6detail11HelpColumnsEEELi0EEET_S8_NS_15iterator_traitsIS8_E15difference_typeE, symObjAddr: 0x5EDF4, symBinAddr: 0x10005F708, symSize: 0x3C }
  - { offset: 0xABEAB, size: 0x8, addend: 0x0, symName: __ZNSt3__14copyB8ne180100INS_11__wrap_iterIPN5Catch5clara6detail11HelpColumnsEEES6_EET0_T_S9_S8_, symObjAddr: 0x5F040, symBinAddr: 0x10005F954, symSize: 0x50 }
  - { offset: 0xABF09, size: 0x8, addend: 0x0, symName: __ZNSt3__19__advanceB8ne180100INS_11__wrap_iterIPN5Catch5clara6detail11HelpColumnsEEEEEvRT_NS_15iterator_traitsIS8_E15difference_typeENS_26random_access_iterator_tagE, symObjAddr: 0x5F458, symBinAddr: 0x10005FD6C, symSize: 0x2C }
  - { offset: 0xABF55, size: 0x8, addend: 0x0, symName: __ZNSt3__130__uninitialized_allocator_copyB8ne180100INS_9allocatorIN5Catch5clara6detail11HelpColumnsEEENS_11__wrap_iterIPS5_EES9_S8_EET2_RT_T0_T1_SA_, symObjAddr: 0x5F4B4, symBinAddr: 0x10005FDC8, symSize: 0x90 }
  - { offset: 0xABFF3, size: 0x8, addend: 0x0, symName: __ZNSt3__114__unwrap_rangeB8ne180100INS_11__wrap_iterIPN5Catch5clara6detail11HelpColumnsEEES7_EEDaT_T0_, symObjAddr: 0x5F544, symBinAddr: 0x10005FE58, symSize: 0x4C }
  - { offset: 0xAC041, size: 0x8, addend: 0x0, symName: __ZNSt3__135__uninitialized_allocator_copy_implB8ne180100INS_9allocatorIN5Catch5clara6detail11HelpColumnsEEEPS5_S7_S7_EET2_RT_T0_T1_S8_, symObjAddr: 0x5F590, symBinAddr: 0x10005FEA4, symSize: 0xF4 }
  - { offset: 0xAC208, size: 0x8, addend: 0x0, symName: __ZNSt3__113__unwrap_iterB8ne180100INS_11__wrap_iterIPN5Catch5clara6detail11HelpColumnsEEENS_18__unwrap_iter_implIS7_Lb1EEELi0EEEDTclsrT0_8__unwrapclsr3stdE7declvalIT_EEEESB_, symObjAddr: 0x5F6EC, symBinAddr: 0x100060000, symSize: 0x2C }
  - { offset: 0xAC2A7, size: 0x8, addend: 0x0, symName: __ZNSt3__112__to_addressB8ne180100INS_11__wrap_iterIPN5Catch5clara6detail11HelpColumnsEEEvEEu7__decayIDTclsr19__to_address_helperIT_EE6__callclsr3stdE7declvalIRKS8_EEEEESA_, symObjAddr: 0x5F77C, symBinAddr: 0x100060090, symSize: 0x24 }
  - { offset: 0xAC34C, size: 0x8, addend: 0x0, symName: __ZNSt3__114__construct_atB8ne180100IN5Catch5clara6detail11HelpColumnsEJRS4_EPS4_EEPT_S8_DpOT0_, symObjAddr: 0x5F860, symBinAddr: 0x100060174, symSize: 0x2C }
  - { offset: 0xAC3A5, size: 0x8, addend: 0x0, symName: __ZNSt3__112construct_atB8ne180100IN5Catch5clara6detail11HelpColumnsEJRS4_EPS4_EEPT_S8_DpOT0_, symObjAddr: 0x5F88C, symBinAddr: 0x1000601A0, symSize: 0x34 }
  - { offset: 0xAC3FE, size: 0x8, addend: 0x0, symName: __ZNSt3__113move_backwardB8ne180100IPN5Catch5clara6detail11HelpColumnsES5_EET0_T_S7_S6_, symObjAddr: 0x5F8F0, symBinAddr: 0x100060204, symSize: 0x40 }
  - { offset: 0xAC45C, size: 0x8, addend: 0x0, symName: __ZNSt3__114__construct_atB8ne180100IN5Catch5clara6detail11HelpColumnsEJS4_EPS4_EEPT_S7_DpOT0_, symObjAddr: 0x5F930, symBinAddr: 0x100060244, symSize: 0x2C }
  - { offset: 0xAC4B5, size: 0x8, addend: 0x0, symName: __ZNSt3__112construct_atB8ne180100IN5Catch5clara6detail11HelpColumnsEJS4_EPS4_EEPT_S7_DpOT0_, symObjAddr: 0x5F95C, symBinAddr: 0x100060270, symSize: 0x34 }
  - { offset: 0xAC50E, size: 0x8, addend: 0x0, symName: __ZNSt3__115__move_backwardB8ne180100INS_17_ClassicAlgPolicyEPN5Catch5clara6detail11HelpColumnsES6_S6_EENS_4pairIT0_T2_EES8_T1_S9_, symObjAddr: 0x5FA0C, symBinAddr: 0x100060320, symSize: 0x44 }
  - { offset: 0xAC57E, size: 0x8, addend: 0x0, symName: __ZNSt3__123__dispatch_copy_or_moveB8ne180100INS_17_ClassicAlgPolicyENS_20__move_backward_loopIS1_EENS_23__move_backward_trivialEPN5Catch5clara6detail11HelpColumnsES9_S9_EENS_4pairIT2_T4_EESB_T3_SC_, symObjAddr: 0x5FA50, symBinAddr: 0x100060364, symSize: 0x44 }
  - { offset: 0xAC600, size: 0x8, addend: 0x0, symName: __ZNSt3__121__unwrap_and_dispatchB8ne180100INS_10__overloadINS_20__move_backward_loopINS_17_ClassicAlgPolicyEEENS_23__move_backward_trivialEEEPN5Catch5clara6detail11HelpColumnsESB_SB_Li0EEENS_4pairIT0_T2_EESD_T1_SE_, symObjAddr: 0x5FA94, symBinAddr: 0x1000603A8, symSize: 0xB4 }
  - { offset: 0xAC695, size: 0x8, addend: 0x0, symName: __ZNSt3__114__unwrap_rangeB8ne180100IPN5Catch5clara6detail11HelpColumnsES5_EEDaT_T0_, symObjAddr: 0x5FB48, symBinAddr: 0x10006045C, symSize: 0x3C }
  - { offset: 0xAC777, size: 0x8, addend: 0x0, symName: __ZNSt3__19make_pairB8ne180100IPN5Catch5clara6detail11HelpColumnsES5_EENS_4pairINS_18__unwrap_ref_decayIT_E4typeENS7_IT0_E4typeEEEOS8_OSB_, symObjAddr: 0x5FC28, symBinAddr: 0x10006053C, symSize: 0x38 }
  - { offset: 0xAC7C7, size: 0x8, addend: 0x0, symName: __ZNSt3__114__rewrap_rangeB8ne180100IPN5Catch5clara6detail11HelpColumnsES5_S5_EET0_S6_T1_, symObjAddr: 0x5FC60, symBinAddr: 0x100060574, symSize: 0x2C }
  - { offset: 0xAC87E, size: 0x8, addend: 0x0, symName: __ZNSt3__16__copyB8ne180100INS_17_ClassicAlgPolicyENS_11__wrap_iterIPN5Catch5clara6detail11HelpColumnsEEES8_S7_EENS_4pairIT0_T2_EESA_T1_SB_, symObjAddr: 0x5FD9C, symBinAddr: 0x1000606B0, symSize: 0x54 }
  - { offset: 0xAC8EE, size: 0x8, addend: 0x0, symName: __ZNSt3__123__dispatch_copy_or_moveB8ne180100INS_17_ClassicAlgPolicyENS_11__copy_loopIS1_EENS_14__copy_trivialENS_11__wrap_iterIPN5Catch5clara6detail11HelpColumnsEEESB_SA_EENS_4pairIT2_T4_EESD_T3_SE_, symObjAddr: 0x5FDF0, symBinAddr: 0x100060704, symSize: 0x54 }
  - { offset: 0xAC970, size: 0x8, addend: 0x0, symName: __ZNSt3__121__unwrap_and_dispatchB8ne180100INS_10__overloadINS_11__copy_loopINS_17_ClassicAlgPolicyEEENS_14__copy_trivialEEENS_11__wrap_iterIPN5Catch5clara6detail11HelpColumnsEEESD_SC_Li0EEENS_4pairIT0_T2_EESF_T1_SG_, symObjAddr: 0x5FE44, symBinAddr: 0x100060758, symSize: 0xCC }
  - { offset: 0xACBD8, size: 0x8, addend: 0x0, symName: __ZNSt3__19make_pairB8ne180100INS_11__wrap_iterIPN5Catch5clara6detail11HelpColumnsEEES6_EENS_4pairINS_18__unwrap_ref_decayIT_E4typeENS9_IT0_E4typeEEEOSA_OSD_, symObjAddr: 0x5FF98, symBinAddr: 0x1000608AC, symSize: 0x38 }
  - { offset: 0xACC28, size: 0x8, addend: 0x0, symName: __ZNSt3__114__rewrap_rangeB8ne180100INS_11__wrap_iterIPN5Catch5clara6detail11HelpColumnsEEES7_S6_EET0_S8_T1_, symObjAddr: 0x5FFD0, symBinAddr: 0x1000608E4, symSize: 0x3C }
  - { offset: 0xACD5B, size: 0x8, addend: 0x0, symName: __ZNSt3__113__rewrap_iterB8ne180100INS_11__wrap_iterIPN5Catch5clara6detail11HelpColumnsEEES6_NS_18__unwrap_iter_implIS7_Lb1EEEEET_SA_T0_, symObjAddr: 0x60100, symBinAddr: 0x100060A14, symSize: 0x4C }
  - { offset: 0xACDB2, size: 0x8, addend: 0x0, symName: __ZNSt3__142__uninitialized_allocator_move_if_noexceptB8ne180100INS_9allocatorIN5Catch5clara6detail11HelpColumnsEEENS_16reverse_iteratorIPS5_EES9_S9_EET2_RT_T0_T1_SA_, symObjAddr: 0x604F0, symBinAddr: 0x100060E04, symSize: 0x124 }
  - { offset: 0xACE52, size: 0x8, addend: 0x0, symName: __ZNSt3__142__uninitialized_allocator_move_if_noexceptB8ne180100INS_9allocatorIN5Catch5clara6detail11HelpColumnsEEEPS5_S7_S7_EET2_RT_T0_T1_S8_, symObjAddr: 0x60614, symBinAddr: 0x100060F28, symSize: 0xF4 }
  - { offset: 0xACEF1, size: 0x8, addend: 0x0, symName: __ZNSt3__14swapB8ne180100IPN5Catch5clara6detail11HelpColumnsEEENS_9enable_ifIXaasr21is_move_constructibleIT_EE5valuesr18is_move_assignableIS7_EE5valueEvE4typeERS7_SA_, symObjAddr: 0x60708, symBinAddr: 0x10006101C, symSize: 0x3C }
  - { offset: 0xACF46, size: 0x8, addend: 0x0, symName: __ZNSt3__122__make_exception_guardB8ne180100INS_29_AllocatorDestroyRangeReverseINS_9allocatorIN5Catch5clara6detail11HelpColumnsEEENS_16reverse_iteratorIPS6_EEEEEENS_28__exception_guard_exceptionsIT_EESD_, symObjAddr: 0x60744, symBinAddr: 0x100061058, symSize: 0x4C }
  - { offset: 0xACF7D, size: 0x8, addend: 0x0, symName: __ZNSt3__119__allocator_destroyB8ne180100INS_9allocatorIN5Catch5clara6detail11HelpColumnsEEENS_16reverse_iteratorINS7_IPS5_EEEESA_EEvRT_T0_T1_, symObjAddr: 0x609E4, symBinAddr: 0x1000612F8, symSize: 0x70 }
  - { offset: 0xACFE3, size: 0x8, addend: 0x0, symName: __ZNSt3__1neB8ne180100INS_16reverse_iteratorIPN5Catch5clara6detail11HelpColumnsEEES7_EEbRKNS1_IT_EERKNS1_IT0_EE, symObjAddr: 0x60A90, symBinAddr: 0x1000613A4, symSize: 0x60 }
  - { offset: 0xAD032, size: 0x8, addend: 0x0, symName: __ZNSt3__112__to_addressB8ne180100INS_16reverse_iteratorINS1_IPN5Catch5clara6detail11HelpColumnsEEEEEvEEu7__decayIDTclsr19__to_address_helperIT_EE6__callclsr3stdE7declvalIRKS9_EEEEESB_, symObjAddr: 0x60AF0, symBinAddr: 0x100061404, symSize: 0x24 }
  - { offset: 0xAD095, size: 0x8, addend: 0x0, symName: __ZNSt3__14prevB8ne180100INS_16reverse_iteratorIPN5Catch5clara6detail11HelpColumnsEEELi0EEET_S8_NS_15iterator_traitsIS8_E15difference_typeE, symObjAddr: 0x60BEC, symBinAddr: 0x100061500, symSize: 0x4C }
  - { offset: 0xAD0E2, size: 0x8, addend: 0x0, symName: __ZNSt3__19__advanceB8ne180100INS_16reverse_iteratorIPN5Catch5clara6detail11HelpColumnsEEEEEvRT_NS_15iterator_traitsIS8_E15difference_typeENS_26random_access_iterator_tagE, symObjAddr: 0x60C70, symBinAddr: 0x100061584, symSize: 0x2C }
  - { offset: 0xAD12F, size: 0x8, addend: 0x0, symName: __ZNSt3__110__distanceB8ne180100INS_11__wrap_iterIPN5Catch5clara6detail11HelpColumnsEEEEENS_15iterator_traitsIT_E15difference_typeES9_S9_NS_26random_access_iterator_tagE, symObjAddr: 0x60F58, symBinAddr: 0x10006186C, symSize: 0x30 }
  - { offset: 0xAD180, size: 0x8, addend: 0x0, symName: __ZNSt3__1miB8ne180100IPN5Catch5clara6detail11HelpColumnsES5_EEDTmicldtfp_4baseEcldtfp0_4baseEERKNS_11__wrap_iterIT_EERKNS7_IT0_EE, symObjAddr: 0x60F88, symBinAddr: 0x10006189C, symSize: 0x48 }
  - { offset: 0xAD1CF, size: 0x8, addend: 0x0, symName: __ZNSt3__1eqB8ne180100IPN5Catch5clara6detail11HelpColumnsEEEbRKNS_11__wrap_iterIT_EESA_, symObjAddr: 0x6100C, symBinAddr: 0x100061920, symSize: 0x48 }
  - { offset: 0xAD215, size: 0x8, addend: 0x0, symName: __ZNSt3__122__make_exception_guardB8ne180100INS_6vectorIN5Catch5clara8TextFlow6ColumnENS_9allocatorIS5_EEE16__destroy_vectorEEENS_28__exception_guard_exceptionsIT_EESB_, symObjAddr: 0x61388, symBinAddr: 0x100061C9C, symSize: 0x40 }
  - { offset: 0xAD24B, size: 0x8, addend: 0x0, symName: __ZNSt3__130__uninitialized_allocator_copyB8ne180100INS_9allocatorIN5Catch5clara8TextFlow6ColumnEEEPS5_S7_S7_EET2_RT_T0_T1_S8_, symObjAddr: 0x615A8, symBinAddr: 0x100061EBC, symSize: 0x80 }
  - { offset: 0xAD2E9, size: 0x8, addend: 0x0, symName: __ZNSt3__114__unwrap_rangeB8ne180100IPN5Catch5clara8TextFlow6ColumnES5_EEDaT_T0_, symObjAddr: 0x61628, symBinAddr: 0x100061F3C, symSize: 0x3C }
  - { offset: 0xAD337, size: 0x8, addend: 0x0, symName: __ZNSt3__135__uninitialized_allocator_copy_implB8ne180100INS_9allocatorIN5Catch5clara8TextFlow6ColumnEEEPS5_S7_S7_EET2_RT_T0_T1_S8_, symObjAddr: 0x61664, symBinAddr: 0x100061F78, symSize: 0xF4 }
  - { offset: 0xAD3D6, size: 0x8, addend: 0x0, symName: __ZNSt3__113__unwrap_iterB8ne180100IPN5Catch5clara8TextFlow6ColumnENS_18__unwrap_iter_implIS5_Lb1EEELi0EEEDTclsrT0_8__unwrapclsr3stdE7declvalIT_EEEES9_, symObjAddr: 0x61758, symBinAddr: 0x10006206C, symSize: 0x24 }
  - { offset: 0xAD41D, size: 0x8, addend: 0x0, symName: __ZNSt3__113__rewrap_iterB8ne180100IPN5Catch5clara8TextFlow6ColumnES5_NS_18__unwrap_iter_implIS5_Lb1EEEEET_S8_T0_, symObjAddr: 0x6177C, symBinAddr: 0x100062090, symSize: 0x3C }
  - { offset: 0xAD582, size: 0x8, addend: 0x0, symName: __ZNSt3__122__make_exception_guardB8ne180100INS_29_AllocatorDestroyRangeReverseINS_9allocatorIN5Catch5clara8TextFlow6ColumnEEEPS6_EEEENS_28__exception_guard_exceptionsIT_EESB_, symObjAddr: 0x61880, symBinAddr: 0x100062194, symSize: 0x4C }
  - { offset: 0xAD5BA, size: 0x8, addend: 0x0, symName: __ZNSt3__114__construct_atB8ne180100IN5Catch5clara8TextFlow6ColumnEJRS4_EPS4_EEPT_S8_DpOT0_, symObjAddr: 0x61A24, symBinAddr: 0x100062338, symSize: 0x2C }
  - { offset: 0xAD613, size: 0x8, addend: 0x0, symName: __ZNSt3__112construct_atB8ne180100IN5Catch5clara8TextFlow6ColumnEJRS4_EPS4_EEPT_S8_DpOT0_, symObjAddr: 0x61A50, symBinAddr: 0x100062364, symSize: 0x34 }
  - { offset: 0xAD66B, size: 0x8, addend: 0x0, symName: __ZNSt3__119__allocator_destroyB8ne180100INS_9allocatorIN5Catch5clara8TextFlow6ColumnEEENS_16reverse_iteratorIPS5_EES9_EEvRT_T0_T1_, symObjAddr: 0x61B3C, symBinAddr: 0x100062450, symSize: 0x70 }
  - { offset: 0xAD727, size: 0x8, addend: 0x0, symName: __ZNSt3__18distanceB8ne180100IPKPKcEENS_15iterator_traitsIT_E15difference_typeES6_S6_, symObjAddr: 0x6217C, symBinAddr: 0x100062A90, symSize: 0x2C }
  - { offset: 0xAD76D, size: 0x8, addend: 0x0, symName: __ZNSt3__110__distanceB8ne180100IPKPKcEENS_15iterator_traitsIT_E15difference_typeES6_S6_NS_26random_access_iterator_tagE, symObjAddr: 0x622CC, symBinAddr: 0x100062BE0, symSize: 0x28 }
  - { offset: 0xAD7BE, size: 0x8, addend: 0x0, symName: __ZNSt3__122__make_exception_guardB8ne180100INS_6vectorINS_12basic_stringIcNS_11char_traitsIcEENS_9allocatorIcEEEENS5_IS7_EEE16__destroy_vectorEEENS_28__exception_guard_exceptionsIT_EESC_, symObjAddr: 0x622F4, symBinAddr: 0x100062C08, symSize: 0x40 }
  - { offset: 0xAD7F5, size: 0x8, addend: 0x0, symName: __ZNSt3__119__allocate_at_leastB8ne180100INS_9allocatorINS_12basic_stringIcNS_11char_traitsIcEENS1_IcEEEEEEEENS_19__allocation_resultINS_16allocator_traitsIT_E7pointerEEERSA_m, symObjAddr: 0x625E4, symBinAddr: 0x100062EF8, symSize: 0x40 }
  - { offset: 0xAD83A, size: 0x8, addend: 0x0, symName: __ZNSt3__130__uninitialized_allocator_copyB8ne180100INS_9allocatorINS_12basic_stringIcNS_11char_traitsIcEENS1_IcEEEEEEPKPKcSB_PS6_EET2_RT_T0_T1_SD_, symObjAddr: 0x62758, symBinAddr: 0x10006306C, symSize: 0x80 }
  - { offset: 0xAD8D8, size: 0x8, addend: 0x0, symName: __ZNSt3__114__unwrap_rangeB8ne180100IPKPKcS4_EEDaT_T0_, symObjAddr: 0x62850, symBinAddr: 0x100063164, symSize: 0x3C }
  - { offset: 0xAD926, size: 0x8, addend: 0x0, symName: __ZNSt3__135__uninitialized_allocator_copy_implB8ne180100INS_9allocatorINS_12basic_stringIcNS_11char_traitsIcEENS1_IcEEEEEEPKPKcSB_PS6_EET2_RT_T0_T1_SD_, symObjAddr: 0x6288C, symBinAddr: 0x1000631A0, symSize: 0xF4 }
  - { offset: 0xAD9C5, size: 0x8, addend: 0x0, symName: __ZNSt3__113__unwrap_iterB8ne180100IPNS_12basic_stringIcNS_11char_traitsIcEENS_9allocatorIcEEEENS_18__unwrap_iter_implIS7_Lb1EEELi0EEEDTclsrT0_8__unwrapclsr3stdE7declvalIT_EEEESB_, symObjAddr: 0x62980, symBinAddr: 0x100063294, symSize: 0x24 }
  - { offset: 0xADA0C, size: 0x8, addend: 0x0, symName: __ZNSt3__113__rewrap_iterB8ne180100IPNS_12basic_stringIcNS_11char_traitsIcEENS_9allocatorIcEEEES7_NS_18__unwrap_iter_implIS7_Lb1EEEEET_SA_T0_, symObjAddr: 0x629A4, symBinAddr: 0x1000632B8, symSize: 0x3C }
  - { offset: 0xADB71, size: 0x8, addend: 0x0, symName: __ZNSt3__113__unwrap_iterB8ne180100IPKPKcNS_18__unwrap_iter_implIS4_Lb1EEELi0EEEDTclsrT0_8__unwrapclsr3stdE7declvalIT_EEEES8_, symObjAddr: 0x62A38, symBinAddr: 0x10006334C, symSize: 0x24 }
  - { offset: 0xADC10, size: 0x8, addend: 0x0, symName: __ZNSt3__112__to_addressB8ne180100IKPKcEEPT_S5_, symObjAddr: 0x62ABC, symBinAddr: 0x1000633D0, symSize: 0x14 }
  - { offset: 0xADC47, size: 0x8, addend: 0x0, symName: __ZNSt3__122__make_exception_guardB8ne180100INS_29_AllocatorDestroyRangeReverseINS_9allocatorINS_12basic_stringIcNS_11char_traitsIcEENS2_IcEEEEEEPS7_EEEENS_28__exception_guard_exceptionsIT_EESC_, symObjAddr: 0x62B04, symBinAddr: 0x100063418, symSize: 0x4C }
  - { offset: 0xADC7F, size: 0x8, addend: 0x0, symName: __ZNSt3__112__to_addressB8ne180100INS_12basic_stringIcNS_11char_traitsIcEENS_9allocatorIcEEEEEEPT_S8_, symObjAddr: 0x62BC4, symBinAddr: 0x1000634D8, symSize: 0x14 }
  - { offset: 0xADCB6, size: 0x8, addend: 0x0, symName: __ZNSt3__114__construct_atB8ne180100INS_12basic_stringIcNS_11char_traitsIcEENS_9allocatorIcEEEEJRKPKcEPS6_EEPT_SD_DpOT0_, symObjAddr: 0x62CBC, symBinAddr: 0x1000635D0, symSize: 0x2C }
  - { offset: 0xADD0F, size: 0x8, addend: 0x0, symName: __ZNSt3__112construct_atB8ne180100INS_12basic_stringIcNS_11char_traitsIcEENS_9allocatorIcEEEEJRKPKcEPS6_EEPT_SD_DpOT0_, symObjAddr: 0x62CE8, symBinAddr: 0x1000635FC, symSize: 0x38 }
  - { offset: 0xADD67, size: 0x8, addend: 0x0, symName: __ZNSt3__119__allocator_destroyB8ne180100INS_9allocatorINS_12basic_stringIcNS_11char_traitsIcEENS1_IcEEEEEENS_16reverse_iteratorIPS6_EESA_EEvRT_T0_T1_, symObjAddr: 0x62DD8, symBinAddr: 0x1000636EC, symSize: 0x70 }
  - { offset: 0xADDCB, size: 0x8, addend: 0x0, symName: __ZNSt3__1neB8ne180100IPNS_12basic_stringIcNS_11char_traitsIcEENS_9allocatorIcEEEES7_EEbRKNS_16reverse_iteratorIT_EERKNS8_IT0_EE, symObjAddr: 0x62E7C, symBinAddr: 0x100063790, symSize: 0x48 }
  - { offset: 0xADE1A, size: 0x8, addend: 0x0, symName: __ZNSt3__112__to_addressB8ne180100INS_16reverse_iteratorIPNS_12basic_stringIcNS_11char_traitsIcEENS_9allocatorIcEEEEEEvEEu7__decayIDTclsr19__to_address_helperIT_EE6__callclsr3stdE7declvalIRKSA_EEEEESC_, symObjAddr: 0x62EC4, symBinAddr: 0x1000637D8, symSize: 0x24 }
  - { offset: 0xADE7D, size: 0x8, addend: 0x0, symName: __ZNSt3__14prevB8ne180100IPNS_12basic_stringIcNS_11char_traitsIcEENS_9allocatorIcEEEELi0EEET_S8_NS_15iterator_traitsIS8_E15difference_typeE, symObjAddr: 0x62F84, symBinAddr: 0x100063898, symSize: 0x3C }
  - { offset: 0xADECA, size: 0x8, addend: 0x0, symName: __ZNSt3__19__advanceB8ne180100IPNS_12basic_stringIcNS_11char_traitsIcEENS_9allocatorIcEEEEEEvRT_NS_15iterator_traitsIS8_E15difference_typeENS_26random_access_iterator_tagE, symObjAddr: 0x62FF8, symBinAddr: 0x10006390C, symSize: 0x30 }
  - { offset: 0xADF6F, size: 0x8, addend: 0x0, symName: __ZNSt3__18distanceB8ne180100IPNS_12basic_stringIcNS_11char_traitsIcEENS_9allocatorIcEEEEEENS_15iterator_traitsIT_E15difference_typeES9_S9_, symObjAddr: 0x63690, symBinAddr: 0x100063FA4, symSize: 0x2C }
  - { offset: 0xADFB5, size: 0x8, addend: 0x0, symName: __ZNSt3__14nextB8ne180100IPNS_12basic_stringIcNS_11char_traitsIcEENS_9allocatorIcEEEELi0EEET_S8_NS_15iterator_traitsIS8_E15difference_typeE, symObjAddr: 0x636BC, symBinAddr: 0x100063FD0, symSize: 0x34 }
  - { offset: 0xAE002, size: 0x8, addend: 0x0, symName: __ZNSt3__14copyB8ne180100IPNS_12basic_stringIcNS_11char_traitsIcEENS_9allocatorIcEEEES7_EET0_T_S9_S8_, symObjAddr: 0x636F0, symBinAddr: 0x100064004, symSize: 0x40 }
  - { offset: 0xAE060, size: 0x8, addend: 0x0, symName: __ZNSt3__16__copyB8ne180100INS_17_ClassicAlgPolicyEPNS_12basic_stringIcNS_11char_traitsIcEENS_9allocatorIcEEEES8_S8_EENS_4pairIT0_T2_EESA_T1_SB_, symObjAddr: 0x637BC, symBinAddr: 0x1000640D0, symSize: 0x44 }
  - { offset: 0xAE0CF, size: 0x8, addend: 0x0, symName: __ZNSt3__130__uninitialized_allocator_copyB8ne180100INS_9allocatorINS_12basic_stringIcNS_11char_traitsIcEENS1_IcEEEEEEPS6_S8_S8_EET2_RT_T0_T1_S9_, symObjAddr: 0x63994, symBinAddr: 0x1000642A8, symSize: 0x80 }
  - { offset: 0xAE16D, size: 0x8, addend: 0x0, symName: __ZNSt3__114__unwrap_rangeB8ne180100IPNS_12basic_stringIcNS_11char_traitsIcEENS_9allocatorIcEEEES7_EEDaT_T0_, symObjAddr: 0x63A14, symBinAddr: 0x100064328, symSize: 0x3C }
  - { offset: 0xAE1BB, size: 0x8, addend: 0x0, symName: __ZNSt3__135__uninitialized_allocator_copy_implB8ne180100INS_9allocatorINS_12basic_stringIcNS_11char_traitsIcEENS1_IcEEEEEEPS6_S8_S8_EET2_RT_T0_T1_S9_, symObjAddr: 0x63A50, symBinAddr: 0x100064364, symSize: 0xF4 }
  - { offset: 0xAE382, size: 0x8, addend: 0x0, symName: __ZNSt3__114__construct_atB8ne180100INS_12basic_stringIcNS_11char_traitsIcEENS_9allocatorIcEEEEJRS6_EPS6_EEPT_SA_DpOT0_, symObjAddr: 0x63C3C, symBinAddr: 0x100064550, symSize: 0x2C }
  - { offset: 0xAE3DB, size: 0x8, addend: 0x0, symName: __ZNSt3__112construct_atB8ne180100INS_12basic_stringIcNS_11char_traitsIcEENS_9allocatorIcEEEEJRS6_EPS6_EEPT_SA_DpOT0_, symObjAddr: 0x63C68, symBinAddr: 0x10006457C, symSize: 0x34 }
  - { offset: 0xAE434, size: 0x8, addend: 0x0, symName: __ZNSt3__123__dispatch_copy_or_moveB8ne180100INS_17_ClassicAlgPolicyENS_11__copy_loopIS1_EENS_14__copy_trivialEPNS_12basic_stringIcNS_11char_traitsIcEENS_9allocatorIcEEEESB_SB_EENS_4pairIT2_T4_EESD_T3_SE_, symObjAddr: 0x63C9C, symBinAddr: 0x1000645B0, symSize: 0x44 }
  - { offset: 0xAE4B6, size: 0x8, addend: 0x0, symName: __ZNSt3__121__unwrap_and_dispatchB8ne180100INS_10__overloadINS_11__copy_loopINS_17_ClassicAlgPolicyEEENS_14__copy_trivialEEEPNS_12basic_stringIcNS_11char_traitsIcEENS_9allocatorIcEEEESD_SD_Li0EEENS_4pairIT0_T2_EESF_T1_SG_, symObjAddr: 0x63CE0, symBinAddr: 0x1000645F4, symSize: 0xB4 }
  - { offset: 0xAE54A, size: 0x8, addend: 0x0, symName: __ZNSt3__19make_pairB8ne180100IPNS_12basic_stringIcNS_11char_traitsIcEENS_9allocatorIcEEEES7_EENS_4pairINS_18__unwrap_ref_decayIT_E4typeENS9_IT0_E4typeEEEOSA_OSD_, symObjAddr: 0x63E1C, symBinAddr: 0x100064730, symSize: 0x38 }
  - { offset: 0xAE59A, size: 0x8, addend: 0x0, symName: __ZNSt3__114__rewrap_rangeB8ne180100IPNS_12basic_stringIcNS_11char_traitsIcEENS_9allocatorIcEEEES7_S7_EET0_S8_T1_, symObjAddr: 0x63E54, symBinAddr: 0x100064768, symSize: 0x2C }
  - { offset: 0xAE5F2, size: 0x8, addend: 0x0, symName: __ZNSt3__110__distanceB8ne180100IPNS_12basic_stringIcNS_11char_traitsIcEENS_9allocatorIcEEEEEENS_15iterator_traitsIT_E15difference_typeES9_S9_NS_26random_access_iterator_tagE, symObjAddr: 0x63EC0, symBinAddr: 0x1000647D4, symSize: 0x28 }
  - { offset: 0xAE643, size: 0x8, addend: 0x0, symName: __ZNSt3__18distanceB8ne180100IPN5Catch5clara6detail3OptEEENS_15iterator_traitsIT_E15difference_typeES7_S7_, symObjAddr: 0x64430, symBinAddr: 0x100064D44, symSize: 0x2C }
  - { offset: 0xAE689, size: 0x8, addend: 0x0, symName: __ZNSt3__14nextB8ne180100IPN5Catch5clara6detail3OptELi0EEET_S6_NS_15iterator_traitsIS6_E15difference_typeE, symObjAddr: 0x6445C, symBinAddr: 0x100064D70, symSize: 0x34 }
  - { offset: 0xAE6D6, size: 0x8, addend: 0x0, symName: __ZNSt3__14copyB8ne180100IPN5Catch5clara6detail3OptES5_EET0_T_S7_S6_, symObjAddr: 0x64490, symBinAddr: 0x100064DA4, symSize: 0x40 }
  - { offset: 0xAE734, size: 0x8, addend: 0x0, symName: __ZNSt3__16__copyB8ne180100INS_17_ClassicAlgPolicyEPN5Catch5clara6detail3OptES6_S6_EENS_4pairIT0_T2_EES8_T1_S9_, symObjAddr: 0x6455C, symBinAddr: 0x100064E70, symSize: 0x44 }
  - { offset: 0xAE7A4, size: 0x8, addend: 0x0, symName: __ZNSt3__19__advanceB8ne180100IPN5Catch5clara6detail3OptEEEvRT_NS_15iterator_traitsIS6_E15difference_typeENS_26random_access_iterator_tagE, symObjAddr: 0x6478C, symBinAddr: 0x1000650A0, symSize: 0x30 }
  - { offset: 0xAE7F0, size: 0x8, addend: 0x0, symName: __ZNSt3__130__uninitialized_allocator_copyB8ne180100INS_9allocatorIN5Catch5clara6detail3OptEEEPS5_S7_S7_EET2_RT_T0_T1_S8_, symObjAddr: 0x647F8, symBinAddr: 0x10006510C, symSize: 0x80 }
  - { offset: 0xAE88E, size: 0x8, addend: 0x0, symName: __ZNSt3__114__unwrap_rangeB8ne180100IPN5Catch5clara6detail3OptES5_EEDaT_T0_, symObjAddr: 0x648F0, symBinAddr: 0x100065204, symSize: 0x3C }
  - { offset: 0xAE8DC, size: 0x8, addend: 0x0, symName: __ZNSt3__135__uninitialized_allocator_copy_implB8ne180100INS_9allocatorIN5Catch5clara6detail3OptEEEPS5_S7_S7_EET2_RT_T0_T1_S8_, symObjAddr: 0x6492C, symBinAddr: 0x100065240, symSize: 0xF4 }
  - { offset: 0xAE97B, size: 0x8, addend: 0x0, symName: __ZNSt3__113__unwrap_iterB8ne180100IPN5Catch5clara6detail3OptENS_18__unwrap_iter_implIS5_Lb1EEELi0EEEDTclsrT0_8__unwrapclsr3stdE7declvalIT_EEEES9_, symObjAddr: 0x64A20, symBinAddr: 0x100065334, symSize: 0x24 }
  - { offset: 0xAE9C2, size: 0x8, addend: 0x0, symName: __ZNSt3__113__rewrap_iterB8ne180100IPN5Catch5clara6detail3OptES5_NS_18__unwrap_iter_implIS5_Lb1EEEEET_S8_T0_, symObjAddr: 0x64A44, symBinAddr: 0x100065358, symSize: 0x3C }
  - { offset: 0xAEB48, size: 0x8, addend: 0x0, symName: __ZNSt3__122__make_exception_guardB8ne180100INS_29_AllocatorDestroyRangeReverseINS_9allocatorIN5Catch5clara6detail3OptEEEPS6_EEEENS_28__exception_guard_exceptionsIT_EESB_, symObjAddr: 0x64B48, symBinAddr: 0x10006545C, symSize: 0x4C }
  - { offset: 0xAEB80, size: 0x8, addend: 0x0, symName: __ZNSt3__114__construct_atB8ne180100IN5Catch5clara6detail3OptEJRS4_EPS4_EEPT_S8_DpOT0_, symObjAddr: 0x64CEC, symBinAddr: 0x100065600, symSize: 0x2C }
  - { offset: 0xAEBD9, size: 0x8, addend: 0x0, symName: __ZNSt3__112construct_atB8ne180100IN5Catch5clara6detail3OptEJRS4_EPS4_EEPT_S8_DpOT0_, symObjAddr: 0x64D18, symBinAddr: 0x10006562C, symSize: 0x34 }
  - { offset: 0xAEC31, size: 0x8, addend: 0x0, symName: __ZNSt3__119__allocator_destroyB8ne180100INS_9allocatorIN5Catch5clara6detail3OptEEENS_16reverse_iteratorIPS5_EES9_EEvRT_T0_T1_, symObjAddr: 0x65004, symBinAddr: 0x100065918, symSize: 0x70 }
  - { offset: 0xAEC95, size: 0x8, addend: 0x0, symName: __ZNSt3__1neB8ne180100IPN5Catch5clara6detail3OptES5_EEbRKNS_16reverse_iteratorIT_EERKNS6_IT0_EE, symObjAddr: 0x650A8, symBinAddr: 0x1000659BC, symSize: 0x48 }
  - { offset: 0xAECE4, size: 0x8, addend: 0x0, symName: __ZNSt3__112__to_addressB8ne180100INS_16reverse_iteratorIPN5Catch5clara6detail3OptEEEvEEu7__decayIDTclsr19__to_address_helperIT_EE6__callclsr3stdE7declvalIRKS8_EEEEESA_, symObjAddr: 0x650F0, symBinAddr: 0x100065A04, symSize: 0x24 }
  - { offset: 0xAED47, size: 0x8, addend: 0x0, symName: __ZNSt3__14prevB8ne180100IPN5Catch5clara6detail3OptELi0EEET_S6_NS_15iterator_traitsIS6_E15difference_typeE, symObjAddr: 0x651B0, symBinAddr: 0x100065AC4, symSize: 0x3C }
  - { offset: 0xAEDEC, size: 0x8, addend: 0x0, symName: __ZNSt3__123__dispatch_copy_or_moveB8ne180100INS_17_ClassicAlgPolicyENS_11__copy_loopIS1_EENS_14__copy_trivialEPN5Catch5clara6detail3OptES9_S9_EENS_4pairIT2_T4_EESB_T3_SC_, symObjAddr: 0x652B0, symBinAddr: 0x100065BC4, symSize: 0x44 }
  - { offset: 0xAEE6E, size: 0x8, addend: 0x0, symName: __ZNSt3__121__unwrap_and_dispatchB8ne180100INS_10__overloadINS_11__copy_loopINS_17_ClassicAlgPolicyEEENS_14__copy_trivialEEEPN5Catch5clara6detail3OptESB_SB_Li0EEENS_4pairIT0_T2_EESD_T1_SE_, symObjAddr: 0x652F4, symBinAddr: 0x100065C08, symSize: 0xB4 }
  - { offset: 0xAEF02, size: 0x8, addend: 0x0, symName: __ZNSt3__19make_pairB8ne180100IPN5Catch5clara6detail3OptES5_EENS_4pairINS_18__unwrap_ref_decayIT_E4typeENS7_IT0_E4typeEEEOS8_OSB_, symObjAddr: 0x65430, symBinAddr: 0x100065D44, symSize: 0x38 }
  - { offset: 0xAEF52, size: 0x8, addend: 0x0, symName: __ZNSt3__114__rewrap_rangeB8ne180100IPN5Catch5clara6detail3OptES5_S5_EET0_S6_T1_, symObjAddr: 0x65468, symBinAddr: 0x100065D7C, symSize: 0x2C }
  - { offset: 0xAEFAA, size: 0x8, addend: 0x0, symName: __ZNSt3__14swapB8ne180100IPN5Catch5clara6detail8BoundRefEEENS_9enable_ifIXaasr21is_move_constructibleIT_EE5valuesr18is_move_assignableIS7_EE5valueEvE4typeERS7_SA_, symObjAddr: 0x65620, symBinAddr: 0x100065F34, symSize: 0x3C }
  - { offset: 0xAEFFF, size: 0x8, addend: 0x0, symName: __ZNSt3__119__allocate_at_leastB8ne180100INS_9allocatorIN5Catch5clara6detail3OptEEEEENS_19__allocation_resultINS_16allocator_traitsIT_E7pointerEEERS9_m, symObjAddr: 0x65704, symBinAddr: 0x100066018, symSize: 0x40 }
  - { offset: 0xAF045, size: 0x8, addend: 0x0, symName: __ZNSt3__110__distanceB8ne180100IPN5Catch5clara6detail3OptEEENS_15iterator_traitsIT_E15difference_typeES7_S7_NS_26random_access_iterator_tagE, symObjAddr: 0x6583C, symBinAddr: 0x100066150, symSize: 0x28 }
  - { offset: 0xAF096, size: 0x8, addend: 0x0, symName: __ZNSt3__18distanceB8ne180100IPN5Catch5clara6detail3ArgEEENS_15iterator_traitsIT_E15difference_typeES7_S7_, symObjAddr: 0x65A64, symBinAddr: 0x100066378, symSize: 0x2C }
  - { offset: 0xAF0DC, size: 0x8, addend: 0x0, symName: __ZNSt3__14nextB8ne180100IPN5Catch5clara6detail3ArgELi0EEET_S6_NS_15iterator_traitsIS6_E15difference_typeE, symObjAddr: 0x65A90, symBinAddr: 0x1000663A4, symSize: 0x34 }
  - { offset: 0xAF129, size: 0x8, addend: 0x0, symName: __ZNSt3__14copyB8ne180100IPN5Catch5clara6detail3ArgES5_EET0_T_S7_S6_, symObjAddr: 0x65AC4, symBinAddr: 0x1000663D8, symSize: 0x40 }
  - { offset: 0xAF187, size: 0x8, addend: 0x0, symName: __ZNSt3__16__copyB8ne180100INS_17_ClassicAlgPolicyEPN5Catch5clara6detail3ArgES6_S6_EENS_4pairIT0_T2_EES8_T1_S9_, symObjAddr: 0x65B90, symBinAddr: 0x1000664A4, symSize: 0x44 }
  - { offset: 0xAF1F7, size: 0x8, addend: 0x0, symName: __ZNSt3__19__advanceB8ne180100IPN5Catch5clara6detail3ArgEEEvRT_NS_15iterator_traitsIS6_E15difference_typeENS_26random_access_iterator_tagE, symObjAddr: 0x65DC0, symBinAddr: 0x1000666D4, symSize: 0x30 }
  - { offset: 0xAF243, size: 0x8, addend: 0x0, symName: __ZNSt3__130__uninitialized_allocator_copyB8ne180100INS_9allocatorIN5Catch5clara6detail3ArgEEEPS5_S7_S7_EET2_RT_T0_T1_S8_, symObjAddr: 0x65E2C, symBinAddr: 0x100066740, symSize: 0x80 }
  - { offset: 0xAF2E1, size: 0x8, addend: 0x0, symName: __ZNSt3__114__unwrap_rangeB8ne180100IPN5Catch5clara6detail3ArgES5_EEDaT_T0_, symObjAddr: 0x65F24, symBinAddr: 0x100066838, symSize: 0x3C }
  - { offset: 0xAF32F, size: 0x8, addend: 0x0, symName: __ZNSt3__135__uninitialized_allocator_copy_implB8ne180100INS_9allocatorIN5Catch5clara6detail3ArgEEEPS5_S7_S7_EET2_RT_T0_T1_S8_, symObjAddr: 0x65F60, symBinAddr: 0x100066874, symSize: 0xF4 }
  - { offset: 0xAF3CE, size: 0x8, addend: 0x0, symName: __ZNSt3__113__unwrap_iterB8ne180100IPN5Catch5clara6detail3ArgENS_18__unwrap_iter_implIS5_Lb1EEELi0EEEDTclsrT0_8__unwrapclsr3stdE7declvalIT_EEEES9_, symObjAddr: 0x66054, symBinAddr: 0x100066968, symSize: 0x24 }
  - { offset: 0xAF415, size: 0x8, addend: 0x0, symName: __ZNSt3__113__rewrap_iterB8ne180100IPN5Catch5clara6detail3ArgES5_NS_18__unwrap_iter_implIS5_Lb1EEEEET_S8_T0_, symObjAddr: 0x66078, symBinAddr: 0x10006698C, symSize: 0x3C }
  - { offset: 0xAF59B, size: 0x8, addend: 0x0, symName: __ZNSt3__122__make_exception_guardB8ne180100INS_29_AllocatorDestroyRangeReverseINS_9allocatorIN5Catch5clara6detail3ArgEEEPS6_EEEENS_28__exception_guard_exceptionsIT_EESB_, symObjAddr: 0x6617C, symBinAddr: 0x100066A90, symSize: 0x4C }
  - { offset: 0xAF5D3, size: 0x8, addend: 0x0, symName: __ZNSt3__114__construct_atB8ne180100IN5Catch5clara6detail3ArgEJRS4_EPS4_EEPT_S8_DpOT0_, symObjAddr: 0x66320, symBinAddr: 0x100066C34, symSize: 0x2C }
  - { offset: 0xAF62C, size: 0x8, addend: 0x0, symName: __ZNSt3__112construct_atB8ne180100IN5Catch5clara6detail3ArgEJRS4_EPS4_EEPT_S8_DpOT0_, symObjAddr: 0x6634C, symBinAddr: 0x100066C60, symSize: 0x34 }
  - { offset: 0xAF684, size: 0x8, addend: 0x0, symName: __ZNSt3__119__allocator_destroyB8ne180100INS_9allocatorIN5Catch5clara6detail3ArgEEENS_16reverse_iteratorIPS5_EES9_EEvRT_T0_T1_, symObjAddr: 0x665D4, symBinAddr: 0x100066EE8, symSize: 0x70 }
  - { offset: 0xAF6E8, size: 0x8, addend: 0x0, symName: __ZNSt3__1neB8ne180100IPN5Catch5clara6detail3ArgES5_EEbRKNS_16reverse_iteratorIT_EERKNS6_IT0_EE, symObjAddr: 0x66678, symBinAddr: 0x100066F8C, symSize: 0x48 }
  - { offset: 0xAF737, size: 0x8, addend: 0x0, symName: __ZNSt3__112__to_addressB8ne180100INS_16reverse_iteratorIPN5Catch5clara6detail3ArgEEEvEEu7__decayIDTclsr19__to_address_helperIT_EE6__callclsr3stdE7declvalIRKS8_EEEEESA_, symObjAddr: 0x666C0, symBinAddr: 0x100066FD4, symSize: 0x24 }
  - { offset: 0xAF79A, size: 0x8, addend: 0x0, symName: __ZNSt3__14prevB8ne180100IPN5Catch5clara6detail3ArgELi0EEET_S6_NS_15iterator_traitsIS6_E15difference_typeE, symObjAddr: 0x66780, symBinAddr: 0x100067094, symSize: 0x3C }
  - { offset: 0xAF83F, size: 0x8, addend: 0x0, symName: __ZNSt3__123__dispatch_copy_or_moveB8ne180100INS_17_ClassicAlgPolicyENS_11__copy_loopIS1_EENS_14__copy_trivialEPN5Catch5clara6detail3ArgES9_S9_EENS_4pairIT2_T4_EESB_T3_SC_, symObjAddr: 0x66880, symBinAddr: 0x100067194, symSize: 0x44 }
  - { offset: 0xAF8C1, size: 0x8, addend: 0x0, symName: __ZNSt3__121__unwrap_and_dispatchB8ne180100INS_10__overloadINS_11__copy_loopINS_17_ClassicAlgPolicyEEENS_14__copy_trivialEEEPN5Catch5clara6detail3ArgESB_SB_Li0EEENS_4pairIT0_T2_EESD_T1_SE_, symObjAddr: 0x668C4, symBinAddr: 0x1000671D8, symSize: 0xB4 }
  - { offset: 0xAF955, size: 0x8, addend: 0x0, symName: __ZNSt3__19make_pairB8ne180100IPN5Catch5clara6detail3ArgES5_EENS_4pairINS_18__unwrap_ref_decayIT_E4typeENS7_IT0_E4typeEEEOS8_OSB_, symObjAddr: 0x66A00, symBinAddr: 0x100067314, symSize: 0x38 }
  - { offset: 0xAF9A5, size: 0x8, addend: 0x0, symName: __ZNSt3__114__rewrap_rangeB8ne180100IPN5Catch5clara6detail3ArgES5_S5_EET0_S6_T1_, symObjAddr: 0x66A38, symBinAddr: 0x10006734C, symSize: 0x2C }
  - { offset: 0xAF9FD, size: 0x8, addend: 0x0, symName: __ZNSt3__119__allocate_at_leastB8ne180100INS_9allocatorIN5Catch5clara6detail3ArgEEEEENS_19__allocation_resultINS_16allocator_traitsIT_E7pointerEEERS9_m, symObjAddr: 0x66BF0, symBinAddr: 0x100067504, symSize: 0x40 }
  - { offset: 0xAFA43, size: 0x8, addend: 0x0, symName: __ZNSt3__110__distanceB8ne180100IPN5Catch5clara6detail3ArgEEENS_15iterator_traitsIT_E15difference_typeES7_S7_NS_26random_access_iterator_tagE, symObjAddr: 0x66D28, symBinAddr: 0x10006763C, symSize: 0x28 }
  - { offset: 0xAFA94, size: 0x8, addend: 0x0, symName: __ZNSt3__114__construct_atB8ne180100INS_12basic_stringIcNS_11char_traitsIcEENS_9allocatorIcEEEEJS6_EPS6_EEPT_S9_DpOT0_, symObjAddr: 0x66FBC, symBinAddr: 0x1000678D0, symSize: 0x2C }
  - { offset: 0xAFAED, size: 0x8, addend: 0x0, symName: __ZNSt3__112construct_atB8ne180100INS_12basic_stringIcNS_11char_traitsIcEENS_9allocatorIcEEEEJS6_EPS6_EEPT_S9_DpOT0_, symObjAddr: 0x66FE8, symBinAddr: 0x1000678FC, symSize: 0x34 }
  - { offset: 0xAFB45, size: 0x8, addend: 0x0, symName: __ZNSt3__142__uninitialized_allocator_move_if_noexceptB8ne180100INS_9allocatorINS_12basic_stringIcNS_11char_traitsIcEENS1_IcEEEEEENS_16reverse_iteratorIPS6_EESA_SA_EET2_RT_T0_T1_SB_, symObjAddr: 0x673D4, symBinAddr: 0x100067CE8, symSize: 0x124 }
  - { offset: 0xAFBE6, size: 0x8, addend: 0x0, symName: __ZNSt3__122__make_exception_guardB8ne180100INS_29_AllocatorDestroyRangeReverseINS_9allocatorINS_12basic_stringIcNS_11char_traitsIcEENS2_IcEEEEEENS_16reverse_iteratorIPS7_EEEEEENS_28__exception_guard_exceptionsIT_EESE_, symObjAddr: 0x674F8, symBinAddr: 0x100067E0C, symSize: 0x4C }
  - { offset: 0xAFC1D, size: 0x8, addend: 0x0, symName: __ZNSt3__119__allocator_destroyB8ne180100INS_9allocatorINS_12basic_stringIcNS_11char_traitsIcEENS1_IcEEEEEENS_16reverse_iteratorINS8_IPS6_EEEESB_EEvRT_T0_T1_, symObjAddr: 0x67798, symBinAddr: 0x1000680AC, symSize: 0x70 }
  - { offset: 0xAFC83, size: 0x8, addend: 0x0, symName: __ZNSt3__1neB8ne180100INS_16reverse_iteratorIPNS_12basic_stringIcNS_11char_traitsIcEENS_9allocatorIcEEEEEES9_EEbRKNS1_IT_EERKNS1_IT0_EE, symObjAddr: 0x67844, symBinAddr: 0x100068158, symSize: 0x60 }
  - { offset: 0xAFCD2, size: 0x8, addend: 0x0, symName: __ZNSt3__112__to_addressB8ne180100INS_16reverse_iteratorINS1_IPNS_12basic_stringIcNS_11char_traitsIcEENS_9allocatorIcEEEEEEEEvEEu7__decayIDTclsr19__to_address_helperIT_EE6__callclsr3stdE7declvalIRKSB_EEEEESD_, symObjAddr: 0x678A4, symBinAddr: 0x1000681B8, symSize: 0x24 }
  - { offset: 0xAFD35, size: 0x8, addend: 0x0, symName: __ZNSt3__14prevB8ne180100INS_16reverse_iteratorIPNS_12basic_stringIcNS_11char_traitsIcEENS_9allocatorIcEEEEEELi0EEET_SA_NS_15iterator_traitsISA_E15difference_typeE, symObjAddr: 0x679A0, symBinAddr: 0x1000682B4, symSize: 0x4C }
  - { offset: 0xAFD82, size: 0x8, addend: 0x0, symName: __ZNSt3__19__advanceB8ne180100INS_16reverse_iteratorIPNS_12basic_stringIcNS_11char_traitsIcEENS_9allocatorIcEEEEEEEEvRT_NS_15iterator_traitsISA_E15difference_typeENS_26random_access_iterator_tagE, symObjAddr: 0x67A24, symBinAddr: 0x100068338, symSize: 0x2C }
  - { offset: 0xAFDCF, size: 0x8, addend: 0x0, symName: __ZNSt3__13minB8ne180100IiNS_6__lessIvvEEEERKT_S5_S5_T0_, symObjAddr: 0x67CB8, symBinAddr: 0x1000685CC, symSize: 0x54 }
  - { offset: 0xAFE2D, size: 0x8, addend: 0x0, symName: __ZNSt3__1neB8ne180100IPN5Catch8TestSpec11FilterMatchEEEbRKNS_11__wrap_iterIT_EES9_, symObjAddr: 0x684F8, symBinAddr: 0x100068E0C, symSize: 0x34 }
  - { offset: 0xAFE73, size: 0x8, addend: 0x0, symName: __ZNSt3__1neB8ne180100IPKNS_10shared_ptrIN5Catch16IReporterFactoryEEEEEbRKNS_11__wrap_iterIT_EESB_, symObjAddr: 0x68908, symBinAddr: 0x10006921C, symSize: 0x34 }
  - { offset: 0xAFEB9, size: 0x8, addend: 0x0, symName: __ZNSt3__1eqB8ne180100IPKNS_10shared_ptrIN5Catch16IReporterFactoryEEEEEbRKNS_11__wrap_iterIT_EESB_, symObjAddr: 0x68B14, symBinAddr: 0x100069428, symSize: 0x48 }
  - { offset: 0xAFEFF, size: 0x8, addend: 0x0, symName: __ZNSt3__112__to_addressB8ne180100IN5Catch8TestSpec11FilterMatchEEEPT_S5_, symObjAddr: 0x692F0, symBinAddr: 0x100069C04, symSize: 0x14 }
  - { offset: 0xAFF36, size: 0x8, addend: 0x0, symName: __ZNSt3__112__destroy_atB8ne180100IN5Catch8TestSpec11FilterMatchELi0EEEvPT_, symObjAddr: 0x69304, symBinAddr: 0x100069C18, symSize: 0x24 }
  - { offset: 0xAFF70, size: 0x8, addend: 0x0, symName: __ZNSt3__112__to_addressB8ne180100IPKN5Catch8TestCaseEEEPT_S6_, symObjAddr: 0x69668, symBinAddr: 0x100069F7C, symSize: 0x14 }
  - { offset: 0xAFFA7, size: 0x8, addend: 0x0, symName: __ZNSt3__112__destroy_atB8ne180100IPKN5Catch8TestCaseELi0EEEvPT_, symObjAddr: 0x6967C, symBinAddr: 0x100069F90, symSize: 0x10 }
  - { offset: 0xB000B, size: 0x8, addend: 0x0, symName: __ZNSt3__114__construct_atB8ne180100IPKN5Catch8TestCaseEJS4_EPS4_EEPT_S7_DpOT0_, symObjAddr: 0x6A358, symBinAddr: 0x10006AC6C, symSize: 0x2C }
  - { offset: 0xB0064, size: 0x8, addend: 0x0, symName: __ZNSt3__112construct_atB8ne180100IPKN5Catch8TestCaseEJS4_EPS4_EEPT_S7_DpOT0_, symObjAddr: 0x6A384, symBinAddr: 0x10006AC98, symSize: 0x24 }
  - { offset: 0xB00BC, size: 0x8, addend: 0x0, symName: __ZNSt3__127__tree_balance_after_insertB8ne180100IPNS_16__tree_node_baseIPvEEEEvT_S5_, symObjAddr: 0x6A41C, symBinAddr: 0x10006AD30, symSize: 0x32C }
  - { offset: 0xB0139, size: 0x8, addend: 0x0, symName: __ZNSt3__120__tree_is_left_childB8ne180100IPNS_16__tree_node_baseIPvEEEEbT_, symObjAddr: 0x6A788, symBinAddr: 0x10006B09C, symSize: 0x2C }
  - { offset: 0xB0170, size: 0x8, addend: 0x0, symName: __ZNSt3__118__tree_left_rotateB8ne180100IPNS_16__tree_node_baseIPvEEEEvT_, symObjAddr: 0x6A7B4, symBinAddr: 0x10006B0C8, symSize: 0xD8 }
  - { offset: 0xB01B1, size: 0x8, addend: 0x0, symName: __ZNSt3__119__tree_right_rotateB8ne180100IPNS_16__tree_node_baseIPvEEEEvT_, symObjAddr: 0x6A88C, symBinAddr: 0x10006B1A0, symSize: 0xCC }
  - { offset: 0xB01F4, size: 0x8, addend: 0x0, symName: __ZNSt3__1eqB8ne180100IPN5Catch8TestSpec11FilterMatchEEEbRKNS_11__wrap_iterIT_EES9_, symObjAddr: 0x6AD2C, symBinAddr: 0x10006B640, symSize: 0x48 }
  - { offset: 0xB023A, size: 0x8, addend: 0x0, symName: __ZNSt3__1neB8ne180100IPKPKN5Catch8TestCaseEEEbRKNS_11__wrap_iterIT_EESB_, symObjAddr: 0x6ADB8, symBinAddr: 0x10006B6CC, symSize: 0x34 }
  - { offset: 0xB0280, size: 0x8, addend: 0x0, symName: __ZNSt3__1eqB8ne180100IPKPKN5Catch8TestCaseEEEbRKNS_11__wrap_iterIT_EESB_, symObjAddr: 0x6AF3C, symBinAddr: 0x10006B850, symSize: 0x48 }
  - { offset: 0xB02C5, size: 0x8, addend: 0x0, symName: __ZNSt3__1eqB8ne180100ERKNS_21__tree_const_iteratorIPKN5Catch8TestCaseEPNS_11__tree_nodeIS4_PvEElEESB_, symObjAddr: 0x6B4C0, symBinAddr: 0x10006BDD4, symSize: 0x30 }
  - { offset: 0xB0303, size: 0x8, addend: 0x0, symName: __ZNSt3__14nextB8ne180100INS_21__tree_const_iteratorIPKN5Catch8TestCaseEPNS_11__tree_nodeIS5_PvEElEELi0EEET_SB_NS_15iterator_traitsISB_E15difference_typeE, symObjAddr: 0x6B5B8, symBinAddr: 0x10006BECC, symSize: 0x3C }
  - { offset: 0xB0350, size: 0x8, addend: 0x0, symName: __ZNSt3__116__tree_prev_iterB8ne180100IPNS_16__tree_node_baseIPvEEPNS_15__tree_end_nodeIS4_EEEET_T0_, symObjAddr: 0x6B660, symBinAddr: 0x10006BF74, symSize: 0x88 }
  - { offset: 0xB039F, size: 0x8, addend: 0x0, symName: __ZNSt3__110__tree_maxB8ne180100IPNS_16__tree_node_baseIPvEEEET_S5_, symObjAddr: 0x6B6E8, symBinAddr: 0x10006BFFC, symSize: 0x40 }
  - { offset: 0xB03D6, size: 0x8, addend: 0x0, symName: __ZNSt3__19__advanceB8ne180100INS_21__tree_const_iteratorIPKN5Catch8TestCaseEPNS_11__tree_nodeIS5_PvEElEEEEvRT_NS_15iterator_traitsISB_E15difference_typeENS_26bidirectional_iterator_tagE, symObjAddr: 0x6B760, symBinAddr: 0x10006C074, symSize: 0xA4 }
  - { offset: 0xB0423, size: 0x8, addend: 0x0, symName: __ZNSt3__116__tree_next_iterB8ne180100IPNS_15__tree_end_nodeIPNS_16__tree_node_baseIPvEEEES5_EET_T0_, symObjAddr: 0x6B83C, symBinAddr: 0x10006C150, symSize: 0x80 }
  - { offset: 0xB0463, size: 0x8, addend: 0x0, symName: __ZNSt3__110__tree_minB8ne180100IPNS_16__tree_node_baseIPvEEEET_S5_, symObjAddr: 0x6B8BC, symBinAddr: 0x10006C1D0, symSize: 0x40 }
  - { offset: 0xB049A, size: 0x8, addend: 0x0, symName: __ZNSt3__114__construct_atB8ne180100IPKN5Catch8TestCaseEJRKS4_EPS4_EEPT_S9_DpOT0_, symObjAddr: 0x6B92C, symBinAddr: 0x10006C240, symSize: 0x2C }
  - { offset: 0xB04F3, size: 0x8, addend: 0x0, symName: __ZNSt3__112construct_atB8ne180100IPKN5Catch8TestCaseEJRKS4_EPS4_EEPT_S9_DpOT0_, symObjAddr: 0x6B958, symBinAddr: 0x10006C26C, symSize: 0x24 }
  - { offset: 0xB054B, size: 0x8, addend: 0x0, symName: __ZNSt3__1neB8ne180100ERKNS_21__tree_const_iteratorIPKN5Catch8TestCaseEPNS_11__tree_nodeIS4_PvEElEESB_, symObjAddr: 0x6BB9C, symBinAddr: 0x10006C4B0, symSize: 0x34 }
  - { offset: 0xB0589, size: 0x8, addend: 0x0, symName: __ZNSt3__13maxB8ne180100IiNS_6__lessIvvEEEERKT_S5_S5_T0_, symObjAddr: 0x6BBF8, symBinAddr: 0x10006C50C, symSize: 0x54 }
  - { offset: 0xB05E7, size: 0x8, addend: 0x0, symName: __ZNSt3__112__to_addressB8ne180100IPN5Catch10ISingletonEEEPT_S5_, symObjAddr: 0x6C084, symBinAddr: 0x10006C998, symSize: 0x14 }
  - { offset: 0xB061E, size: 0x8, addend: 0x0, symName: __ZNSt3__114__construct_atB8ne180100IPN5Catch10ISingletonEJRKS3_EPS3_EEPT_S8_DpOT0_, symObjAddr: 0x6C108, symBinAddr: 0x10006CA1C, symSize: 0x2C }
  - { offset: 0xB0677, size: 0x8, addend: 0x0, symName: __ZNSt3__112construct_atB8ne180100IPN5Catch10ISingletonEJRKS3_EPS3_EEPT_S8_DpOT0_, symObjAddr: 0x6C134, symBinAddr: 0x10006CA48, symSize: 0x24 }
  - { offset: 0xB06D0, size: 0x8, addend: 0x0, symName: __ZNSt3__119__allocate_at_leastB8ne180100INS_9allocatorIPN5Catch10ISingletonEEEEENS_19__allocation_resultINS_16allocator_traitsIT_E7pointerEEERS8_m, symObjAddr: 0x6C6C0, symBinAddr: 0x10006CFD4, symSize: 0x40 }
  - { offset: 0xB0715, size: 0x8, addend: 0x0, symName: __ZNSt3__142__uninitialized_allocator_move_if_noexceptB8ne180100INS_9allocatorIPN5Catch10ISingletonEEENS_16reverse_iteratorIPS4_EES8_S4_vEET1_RT_T0_SC_S9_, symObjAddr: 0x6C884, symBinAddr: 0x10006D198, symSize: 0x78 }
  - { offset: 0xB0793, size: 0x8, addend: 0x0, symName: __ZNSt3__14swapB8ne180100IPPN5Catch10ISingletonEEENS_9enable_ifIXaasr21is_move_constructibleIT_EE5valuesr18is_move_assignableIS6_EE5valueEvE4typeERS6_S9_, symObjAddr: 0x6C948, symBinAddr: 0x10006D25C, symSize: 0x3C }
  - { offset: 0xB07E8, size: 0x8, addend: 0x0, symName: __ZNSt3__14moveB8ne180100INS_16reverse_iteratorIPPN5Catch10ISingletonEEES6_EET0_T_S8_S7_, symObjAddr: 0x6C998, symBinAddr: 0x10006D2AC, symSize: 0x78 }
  - { offset: 0xB0846, size: 0x8, addend: 0x0, symName: __ZNSt3__16__moveB8ne180100INS_17_ClassicAlgPolicyENS_16reverse_iteratorIPPN5Catch10ISingletonEEES7_S7_EENS_4pairIT0_T2_EES9_T1_SA_, symObjAddr: 0x6CA10, symBinAddr: 0x10006D324, symSize: 0x64 }
  - { offset: 0xB08B6, size: 0x8, addend: 0x0, symName: __ZNSt3__123__dispatch_copy_or_moveB8ne180100INS_17_ClassicAlgPolicyENS_11__move_loopIS1_EENS_14__move_trivialENS_16reverse_iteratorIPPN5Catch10ISingletonEEESA_SA_EENS_4pairIT2_T4_EESC_T3_SD_, symObjAddr: 0x6CA74, symBinAddr: 0x10006D388, symSize: 0x64 }
  - { offset: 0xB0938, size: 0x8, addend: 0x0, symName: __ZNSt3__121__unwrap_and_dispatchB8ne180100INS_10__overloadINS_11__move_loopINS_17_ClassicAlgPolicyEEENS_14__move_trivialEEENS_16reverse_iteratorIPPN5Catch10ISingletonEEESC_SC_Li0EEENS_4pairIT0_T2_EESE_T1_SF_, symObjAddr: 0x6CAD8, symBinAddr: 0x10006D3EC, symSize: 0x12C }
  - { offset: 0xB09CF, size: 0x8, addend: 0x0, symName: __ZNSt3__114__unwrap_rangeB8ne180100INS_16reverse_iteratorIPPN5Catch10ISingletonEEES6_EEDaT_T0_, symObjAddr: 0x6CC04, symBinAddr: 0x10006D518, symSize: 0x4C }
  - { offset: 0xB0AF9, size: 0x8, addend: 0x0, symName: __ZNSt3__113__unwrap_iterB8ne180100INS_16reverse_iteratorIPPN5Catch10ISingletonEEENS_18__unwrap_iter_implIS6_Lb0EEELi0EEEDTclsrT0_8__unwrapclsr3stdE7declvalIT_EEEESA_, symObjAddr: 0x6CCF0, symBinAddr: 0x10006D604, symSize: 0x44 }
  - { offset: 0xB0B3F, size: 0x8, addend: 0x0, symName: __ZNSt3__19make_pairB8ne180100INS_16reverse_iteratorIPPN5Catch10ISingletonEEES6_EENS_4pairINS_18__unwrap_ref_decayIT_E4typeENS8_IT0_E4typeEEEOS9_OSC_, symObjAddr: 0x6CD34, symBinAddr: 0x10006D648, symSize: 0x38 }
  - { offset: 0xB0B8F, size: 0x8, addend: 0x0, symName: __ZNSt3__114__rewrap_rangeB8ne180100INS_16reverse_iteratorIPPN5Catch10ISingletonEEES6_S6_EET0_S7_T1_, symObjAddr: 0x6CD6C, symBinAddr: 0x10006D680, symSize: 0x5C }
  - { offset: 0xB0BE7, size: 0x8, addend: 0x0, symName: __ZNSt3__113__rewrap_iterB8ne180100INS_16reverse_iteratorIPPN5Catch10ISingletonEEES6_NS_18__unwrap_iter_implIS6_Lb0EEEEET_S9_T0_, symObjAddr: 0x6CDC8, symBinAddr: 0x10006D6DC, symSize: 0x74 }
  - { offset: 0xB0C92, size: 0x8, addend: 0x0, symName: __ZNSt3__1neB8ne180100IPPN5Catch10ISingletonES4_EEbRKNS_16reverse_iteratorIT_EERKNS5_IT0_EE, symObjAddr: 0x6CF30, symBinAddr: 0x10006D844, symSize: 0x48 }
  - { offset: 0xB0D39, size: 0x8, addend: 0x0, symName: __ZNSt3__112__destroy_atB8ne180100IPN5Catch10ISingletonELi0EEEvPT_, symObjAddr: 0x6D2BC, symBinAddr: 0x10006DBD0, symSize: 0x10 }
  - { offset: 0xB0D73, size: 0x8, addend: 0x0, symName: __ZNSt3__1eqB8ne180100IPPN5Catch10ISingletonEEEbRKNS_11__wrap_iterIT_EES9_, symObjAddr: 0x6D3DC, symBinAddr: 0x10006DCF0, symSize: 0x48 }
  - { offset: 0xB0DB9, size: 0x8, addend: 0x0, symName: __ZNSt3__112__to_addressB8ne180100ISt13exception_ptrEEPT_S3_, symObjAddr: 0x6D884, symBinAddr: 0x10006E198, symSize: 0x14 }
  - { offset: 0xB0DF0, size: 0x8, addend: 0x0, symName: __ZNSt3__114__construct_atB8ne180100ISt13exception_ptrJRKS1_EPS1_EEPT_S6_DpOT0_, symObjAddr: 0x6D908, symBinAddr: 0x10006E21C, symSize: 0x2C }
  - { offset: 0xB0E49, size: 0x8, addend: 0x0, symName: __ZNSt3__112construct_atB8ne180100ISt13exception_ptrJRKS1_EPS1_EEPT_S6_DpOT0_, symObjAddr: 0x6D934, symBinAddr: 0x10006E248, symSize: 0x34 }
  - { offset: 0xB0EA2, size: 0x8, addend: 0x0, symName: __ZNSt3__119__allocate_at_leastB8ne180100INS_9allocatorISt13exception_ptrEEEENS_19__allocation_resultINS_16allocator_traitsIT_E7pointerEEERS6_m, symObjAddr: 0x6DED0, symBinAddr: 0x10006E7E4, symSize: 0x40 }
  - { offset: 0xB0EE7, size: 0x8, addend: 0x0, symName: __ZNSt3__142__uninitialized_allocator_move_if_noexceptB8ne180100INS_9allocatorISt13exception_ptrEENS_16reverse_iteratorIPS2_EES6_S6_EET2_RT_T0_T1_S7_, symObjAddr: 0x6E0B0, symBinAddr: 0x10006E9C4, symSize: 0x12C }
  - { offset: 0xB0F88, size: 0x8, addend: 0x0, symName: __ZNSt3__14swapB8ne180100IPSt13exception_ptrEENS_9enable_ifIXaasr21is_move_constructibleIT_EE5valuesr18is_move_assignableIS4_EE5valueEvE4typeERS4_S7_, symObjAddr: 0x6E228, symBinAddr: 0x10006EB3C, symSize: 0x3C }
  - { offset: 0xB0FDD, size: 0x8, addend: 0x0, symName: __ZNSt3__122__make_exception_guardB8ne180100INS_29_AllocatorDestroyRangeReverseINS_9allocatorISt13exception_ptrEENS_16reverse_iteratorIPS3_EEEEEENS_28__exception_guard_exceptionsIT_EESA_, symObjAddr: 0x6E278, symBinAddr: 0x10006EB8C, symSize: 0x4C }
  - { offset: 0xB1015, size: 0x8, addend: 0x0, symName: __ZNSt3__1neB8ne180100IPSt13exception_ptrS2_EEbRKNS_16reverse_iteratorIT_EERKNS3_IT0_EE, symObjAddr: 0x6E308, symBinAddr: 0x10006EC1C, symSize: 0x48 }
  - { offset: 0xB1064, size: 0x8, addend: 0x0, symName: __ZNSt3__112__to_addressB8ne180100INS_16reverse_iteratorIPSt13exception_ptrEEvEEu7__decayIDTclsr19__to_address_helperIT_EE6__callclsr3stdE7declvalIRKS5_EEEEES7_, symObjAddr: 0x6E380, symBinAddr: 0x10006EC94, symSize: 0x24 }
  - { offset: 0xB109C, size: 0x8, addend: 0x0, symName: __ZNSt3__114__construct_atB8ne180100ISt13exception_ptrJS1_EPS1_EEPT_S4_DpOT0_, symObjAddr: 0x6E4D0, symBinAddr: 0x10006EDE4, symSize: 0x2C }
  - { offset: 0xB10F5, size: 0x8, addend: 0x0, symName: __ZNSt3__112construct_atB8ne180100ISt13exception_ptrJS1_EPS1_EEPT_S4_DpOT0_, symObjAddr: 0x6E4FC, symBinAddr: 0x10006EE10, symSize: 0x34 }
  - { offset: 0xB1179, size: 0x8, addend: 0x0, symName: __ZNSt3__14prevB8ne180100IPSt13exception_ptrLi0EEET_S3_NS_15iterator_traitsIS3_E15difference_typeE, symObjAddr: 0x6E594, symBinAddr: 0x10006EEA8, symSize: 0x3C }
  - { offset: 0xB11C6, size: 0x8, addend: 0x0, symName: __ZNSt3__19__advanceB8ne180100IPSt13exception_ptrEEvRT_NS_15iterator_traitsIS3_E15difference_typeENS_26random_access_iterator_tagE, symObjAddr: 0x6E608, symBinAddr: 0x10006EF1C, symSize: 0x28 }
  - { offset: 0xB1212, size: 0x8, addend: 0x0, symName: __ZNSt3__119__allocator_destroyB8ne180100INS_9allocatorISt13exception_ptrEENS_16reverse_iteratorINS4_IPS2_EEEES7_EEvRT_T0_T1_, symObjAddr: 0x6E734, symBinAddr: 0x10006F048, symSize: 0x70 }
  - { offset: 0xB1278, size: 0x8, addend: 0x0, symName: __ZNSt3__1neB8ne180100INS_16reverse_iteratorIPSt13exception_ptrEES4_EEbRKNS1_IT_EERKNS1_IT0_EE, symObjAddr: 0x6E7E0, symBinAddr: 0x10006F0F4, symSize: 0x60 }
  - { offset: 0xB12C7, size: 0x8, addend: 0x0, symName: __ZNSt3__112__to_addressB8ne180100INS_16reverse_iteratorINS1_IPSt13exception_ptrEEEEvEEu7__decayIDTclsr19__to_address_helperIT_EE6__callclsr3stdE7declvalIRKS6_EEEEES8_, symObjAddr: 0x6E868, symBinAddr: 0x10006F17C, symSize: 0x24 }
  - { offset: 0xB12FF, size: 0x8, addend: 0x0, symName: __ZNSt3__112__destroy_atB8ne180100ISt13exception_ptrLi0EEEvPT_, symObjAddr: 0x6E8E0, symBinAddr: 0x10006F1F4, symSize: 0x24 }
  - { offset: 0xB1364, size: 0x8, addend: 0x0, symName: __ZNSt3__14prevB8ne180100INS_16reverse_iteratorIPSt13exception_ptrEELi0EEET_S5_NS_15iterator_traitsIS5_E15difference_typeE, symObjAddr: 0x6E988, symBinAddr: 0x10006F29C, symSize: 0x4C }
  - { offset: 0xB13B1, size: 0x8, addend: 0x0, symName: __ZNSt3__19__advanceB8ne180100INS_16reverse_iteratorIPSt13exception_ptrEEEEvRT_NS_15iterator_traitsIS5_E15difference_typeENS_26random_access_iterator_tagE, symObjAddr: 0x6EA0C, symBinAddr: 0x10006F320, symSize: 0x2C }
  - { offset: 0xB13FE, size: 0x8, addend: 0x0, symName: __ZNSt3__112__to_addressB8ne180100INS_10unique_ptrINS_19basic_ostringstreamIcNS_11char_traitsIcEENS_9allocatorIcEEEENS_14default_deleteIS7_EEEEEEPT_SC_, symObjAddr: 0x700E8, symBinAddr: 0x1000709FC, symSize: 0x14 }
  - { offset: 0xB1435, size: 0x8, addend: 0x0, symName: __ZNSt3__114__construct_atB8ne180100INS_10unique_ptrINS_19basic_ostringstreamIcNS_11char_traitsIcEENS_9allocatorIcEEEENS_14default_deleteIS7_EEEEJSA_EPSA_EEPT_SD_DpOT0_, symObjAddr: 0x7016C, symBinAddr: 0x100070A80, symSize: 0x2C }
  - { offset: 0xB148E, size: 0x8, addend: 0x0, symName: __ZNSt3__112construct_atB8ne180100INS_10unique_ptrINS_19basic_ostringstreamIcNS_11char_traitsIcEENS_9allocatorIcEEEENS_14default_deleteIS7_EEEEJSA_EPSA_EEPT_SD_DpOT0_, symObjAddr: 0x70198, symBinAddr: 0x100070AAC, symSize: 0x34 }
  - { offset: 0xB14E7, size: 0x8, addend: 0x0, symName: __ZNSt3__119__allocate_at_leastB8ne180100INS_9allocatorINS_10unique_ptrINS_19basic_ostringstreamIcNS_11char_traitsIcEENS1_IcEEEENS_14default_deleteIS7_EEEEEEEENS_19__allocation_resultINS_16allocator_traitsIT_E7pointerEEERSE_m, symObjAddr: 0x70934, symBinAddr: 0x100071248, symSize: 0x40 }
  - { offset: 0xB152C, size: 0x8, addend: 0x0, symName: __ZNSt3__142__uninitialized_allocator_move_if_noexceptB8ne180100INS_9allocatorINS_10unique_ptrINS_19basic_ostringstreamIcNS_11char_traitsIcEENS1_IcEEEENS_14default_deleteIS7_EEEEEENS_16reverse_iteratorIPSA_EESE_SE_EET2_RT_T0_T1_SF_, symObjAddr: 0x70B14, symBinAddr: 0x100071428, symSize: 0x12C }
  - { offset: 0xB15CD, size: 0x8, addend: 0x0, symName: __ZNSt3__14swapB8ne180100IPNS_10unique_ptrINS_19basic_ostringstreamIcNS_11char_traitsIcEENS_9allocatorIcEEEENS_14default_deleteIS7_EEEEEENS_9enable_ifIXaasr21is_move_constructibleIT_EE5valuesr18is_move_assignableISD_EE5valueEvE4typeERSD_SG_, symObjAddr: 0x70C8C, symBinAddr: 0x1000715A0, symSize: 0x3C }
  - { offset: 0xB1622, size: 0x8, addend: 0x0, symName: __ZNSt3__122__make_exception_guardB8ne180100INS_29_AllocatorDestroyRangeReverseINS_9allocatorINS_10unique_ptrINS_19basic_ostringstreamIcNS_11char_traitsIcEENS2_IcEEEENS_14default_deleteIS8_EEEEEENS_16reverse_iteratorIPSB_EEEEEENS_28__exception_guard_exceptionsIT_EESI_, symObjAddr: 0x70CDC, symBinAddr: 0x1000715F0, symSize: 0x4C }
  - { offset: 0xB165A, size: 0x8, addend: 0x0, symName: __ZNSt3__1neB8ne180100IPNS_10unique_ptrINS_19basic_ostringstreamIcNS_11char_traitsIcEENS_9allocatorIcEEEENS_14default_deleteIS7_EEEESB_EEbRKNS_16reverse_iteratorIT_EERKNSC_IT0_EE, symObjAddr: 0x70D6C, symBinAddr: 0x100071680, symSize: 0x48 }
  - { offset: 0xB16A9, size: 0x8, addend: 0x0, symName: __ZNSt3__112__to_addressB8ne180100INS_16reverse_iteratorIPNS_10unique_ptrINS_19basic_ostringstreamIcNS_11char_traitsIcEENS_9allocatorIcEEEENS_14default_deleteIS8_EEEEEEvEEu7__decayIDTclsr19__to_address_helperIT_EE6__callclsr3stdE7declvalIRKSE_EEEEESG_, symObjAddr: 0x70DB4, symBinAddr: 0x1000716C8, symSize: 0x24 }
  - { offset: 0xB170C, size: 0x8, addend: 0x0, symName: __ZNSt3__14prevB8ne180100IPNS_10unique_ptrINS_19basic_ostringstreamIcNS_11char_traitsIcEENS_9allocatorIcEEEENS_14default_deleteIS7_EEEELi0EEET_SC_NS_15iterator_traitsISC_E15difference_typeE, symObjAddr: 0x70F68, symBinAddr: 0x10007187C, symSize: 0x3C }
  - { offset: 0xB1759, size: 0x8, addend: 0x0, symName: __ZNSt3__19__advanceB8ne180100IPNS_10unique_ptrINS_19basic_ostringstreamIcNS_11char_traitsIcEENS_9allocatorIcEEEENS_14default_deleteIS7_EEEEEEvRT_NS_15iterator_traitsISC_E15difference_typeENS_26random_access_iterator_tagE, symObjAddr: 0x70FDC, symBinAddr: 0x1000718F0, symSize: 0x28 }
  - { offset: 0xB17A5, size: 0x8, addend: 0x0, symName: __ZNSt3__119__allocator_destroyB8ne180100INS_9allocatorINS_10unique_ptrINS_19basic_ostringstreamIcNS_11char_traitsIcEENS1_IcEEEENS_14default_deleteIS7_EEEEEENS_16reverse_iteratorINSC_IPSA_EEEESF_EEvRT_T0_T1_, symObjAddr: 0x71108, symBinAddr: 0x100071A1C, symSize: 0x70 }
  - { offset: 0xB180B, size: 0x8, addend: 0x0, symName: __ZNSt3__1neB8ne180100INS_16reverse_iteratorIPNS_10unique_ptrINS_19basic_ostringstreamIcNS_11char_traitsIcEENS_9allocatorIcEEEENS_14default_deleteIS8_EEEEEESD_EEbRKNS1_IT_EERKNS1_IT0_EE, symObjAddr: 0x711B4, symBinAddr: 0x100071AC8, symSize: 0x60 }
  - { offset: 0xB185A, size: 0x8, addend: 0x0, symName: __ZNSt3__112__to_addressB8ne180100INS_16reverse_iteratorINS1_IPNS_10unique_ptrINS_19basic_ostringstreamIcNS_11char_traitsIcEENS_9allocatorIcEEEENS_14default_deleteIS8_EEEEEEEEvEEu7__decayIDTclsr19__to_address_helperIT_EE6__callclsr3stdE7declvalIRKSF_EEEEESH_, symObjAddr: 0x7123C, symBinAddr: 0x100071B50, symSize: 0x24 }
  - { offset: 0xB1892, size: 0x8, addend: 0x0, symName: __ZNSt3__112__destroy_atB8ne180100INS_10unique_ptrINS_19basic_ostringstreamIcNS_11char_traitsIcEENS_9allocatorIcEEEENS_14default_deleteIS7_EEEELi0EEEvPT_, symObjAddr: 0x712B4, symBinAddr: 0x100071BC8, symSize: 0x24 }
  - { offset: 0xB18F7, size: 0x8, addend: 0x0, symName: __ZNSt3__14prevB8ne180100INS_16reverse_iteratorIPNS_10unique_ptrINS_19basic_ostringstreamIcNS_11char_traitsIcEENS_9allocatorIcEEEENS_14default_deleteIS8_EEEEEELi0EEET_SE_NS_15iterator_traitsISE_E15difference_typeE, symObjAddr: 0x7135C, symBinAddr: 0x100071C70, symSize: 0x4C }
  - { offset: 0xB1944, size: 0x8, addend: 0x0, symName: __ZNSt3__19__advanceB8ne180100INS_16reverse_iteratorIPNS_10unique_ptrINS_19basic_ostringstreamIcNS_11char_traitsIcEENS_9allocatorIcEEEENS_14default_deleteIS8_EEEEEEEEvRT_NS_15iterator_traitsISE_E15difference_typeENS_26random_access_iterator_tagE, symObjAddr: 0x713E0, symBinAddr: 0x100071CF4, symSize: 0x2C }
  - { offset: 0xB1991, size: 0x8, addend: 0x0, symName: __ZNSt3__15equalB8ne180100INS_11__wrap_iterIPKcEES4_NS_10__equal_toEEEbT_S6_T0_T1_, symObjAddr: 0x719BC, symBinAddr: 0x1000722D0, symSize: 0x74 }
  - { offset: 0xB1A07, size: 0x8, addend: 0x0, symName: __ZNSt3__117__equal_iter_implB8ne180100IKcS1_NS_10__equal_toELi0EEEbPT_S4_PT0_RT1_, symObjAddr: 0x71A30, symBinAddr: 0x100072344, symSize: 0x44 }
  - { offset: 0xB1A80, size: 0x8, addend: 0x0, symName: __ZNSt3__113__unwrap_iterB8ne180100INS_11__wrap_iterIPKcEENS_18__unwrap_iter_implIS4_Lb1EEELi0EEEDTclsrT0_8__unwrapclsr3stdE7declvalIT_EEEES8_, symObjAddr: 0x71A74, symBinAddr: 0x100072388, symSize: 0x2C }
  - { offset: 0xB1AC7, size: 0x8, addend: 0x0, symName: __ZNSt3__124__constexpr_memcmp_equalB8ne180100IccEEbPKT_PKT0_NS_15__element_countE, symObjAddr: 0x71AA0, symBinAddr: 0x1000723B4, symSize: 0x4C }
  - { offset: 0xB1B8C, size: 0x8, addend: 0x0, symName: __ZNSt3__112__to_addressB8ne180100INS_11__wrap_iterIPKcEEvEEu7__decayIDTclsr19__to_address_helperIT_EE6__callclsr3stdE7declvalIRKS5_EEEEES7_, symObjAddr: 0x71B14, symBinAddr: 0x100072428, symSize: 0x24 }
  - { offset: 0xB1C31, size: 0x8, addend: 0x0, symName: __ZNSt3__15equalB8ne180100INS_16reverse_iteratorINS_11__wrap_iterIPKcEEEES6_NS_10__equal_toEEEbT_S8_T0_T1_, symObjAddr: 0x71C30, symBinAddr: 0x100072544, symSize: 0xA8 }
  - { offset: 0xB1CA7, size: 0x8, addend: 0x0, symName: __ZNSt3__117__equal_iter_implB8ne180100INS_16reverse_iteratorINS_11__wrap_iterIPKcEEEES6_NS_10__equal_toEEEbT_S8_T0_RT1_, symObjAddr: 0x71CD8, symBinAddr: 0x1000725EC, symSize: 0xC8 }
  - { offset: 0xB1D1D, size: 0x8, addend: 0x0, symName: __ZNSt3__113__unwrap_iterB8ne180100INS_16reverse_iteratorINS_11__wrap_iterIPKcEEEENS_18__unwrap_iter_implIS6_Lb0EEELi0EEEDTclsrT0_8__unwrapclsr3stdE7declvalIT_EEEESA_, symObjAddr: 0x71DA0, symBinAddr: 0x1000726B4, symSize: 0x44 }
  - { offset: 0xB1D64, size: 0x8, addend: 0x0, symName: __ZNSt3__1neB8ne180100INS_11__wrap_iterIPKcEES4_EEbRKNS_16reverse_iteratorIT_EERKNS5_IT0_EE, symObjAddr: 0x71DE4, symBinAddr: 0x1000726F8, symSize: 0x54 }
  - { offset: 0xB1DFE, size: 0x8, addend: 0x0, symName: __ZNSt3__110__str_findB8ne180100IcmNS_11char_traitsIcEELm18446744073709551615EEET0_PKT_S3_S6_S3_S3_, symObjAddr: 0x71F90, symBinAddr: 0x1000728A4, symSize: 0xE4 }
  - { offset: 0xB1EA6, size: 0x8, addend: 0x0, symName: __ZNSt3__118__search_substringB8ne180100IcNS_11char_traitsIcEEEEPKT_S5_S5_S5_S5_, symObjAddr: 0x72074, symBinAddr: 0x100072988, symSize: 0x154 }
  - { offset: 0xB1F41, size: 0x8, addend: 0x0, symName: __ZNSt3__1neB8ne180100IPcEEbRKNS_11__wrap_iterIT_EES6_, symObjAddr: 0x721C8, symBinAddr: 0x100072ADC, symSize: 0x34 }
  - { offset: 0xB1F87, size: 0x8, addend: 0x0, symName: __ZNSt3__1eqB8ne180100IPcEEbRKNS_11__wrap_iterIT_EES6_, symObjAddr: 0x72234, symBinAddr: 0x100072B48, symSize: 0x48 }
  - { offset: 0xB1FCC, size: 0x8, addend: 0x0, symName: __ZNSt3__123__str_find_first_not_ofB8ne180100IcmNS_11char_traitsIcEELm18446744073709551615EEET0_PKT_S3_S6_S3_S3_, symObjAddr: 0x7233C, symBinAddr: 0x100072C50, symSize: 0xDC }
  - { offset: 0xB209F, size: 0x8, addend: 0x0, symName: __ZNSt3__122__str_find_last_not_ofB8ne180100IcmNS_11char_traitsIcEELm18446744073709551615EEET0_PKT_S3_S6_S3_S3_, symObjAddr: 0x72418, symBinAddr: 0x100072D2C, symSize: 0xDC }
  - { offset: 0xB2156, size: 0x8, addend: 0x0, symName: __ZNSt3__13minB8ne180100ImNS_6__lessIvvEEEERKT_S5_S5_T0_, symObjAddr: 0x72520, symBinAddr: 0x100072E34, symSize: 0x54 }
  - { offset: 0xB21B4, size: 0x8, addend: 0x0, symName: __ZNSt3__114__construct_atB8ne180100INS_12basic_stringIcNS_11char_traitsIcEENS_9allocatorIcEEEEJRKS6_EPS6_EEPT_SB_DpOT0_, symObjAddr: 0x72A1C, symBinAddr: 0x100073330, symSize: 0x2C }
  - { offset: 0xB220D, size: 0x8, addend: 0x0, symName: __ZNSt3__112construct_atB8ne180100INS_12basic_stringIcNS_11char_traitsIcEENS_9allocatorIcEEEEJRKS6_EPS6_EEPT_SB_DpOT0_, symObjAddr: 0x72A48, symBinAddr: 0x10007335C, symSize: 0x34 }
  - { offset: 0xB2266, size: 0x8, addend: 0x0, symName: __ZNSt3__18distanceB8ne180100IPKNS_12basic_stringIcNS_11char_traitsIcEENS_9allocatorIcEEEEEENS_15iterator_traitsIT_E15difference_typeESA_SA_, symObjAddr: 0x72DF0, symBinAddr: 0x100073704, symSize: 0x2C }
  - { offset: 0xB22AC, size: 0x8, addend: 0x0, symName: __ZNSt3__1miB8ne180100IPKNS_12basic_stringIcNS_11char_traitsIcEENS_9allocatorIcEEEEPS6_EEDTmicldtfp_4baseEcldtfp0_4baseEERKNS_11__wrap_iterIT_EERKNSB_IT0_EE, symObjAddr: 0x72E1C, symBinAddr: 0x100073730, symSize: 0x48 }
  - { offset: 0xB22FB, size: 0x8, addend: 0x0, symName: __ZNSt3__14nextB8ne180100IPKNS_12basic_stringIcNS_11char_traitsIcEENS_9allocatorIcEEEELi0EEET_S9_NS_15iterator_traitsIS9_E15difference_typeE, symObjAddr: 0x72E64, symBinAddr: 0x100073778, symSize: 0x34 }
  - { offset: 0xB2348, size: 0x8, addend: 0x0, symName: __ZNSt3__14copyB8ne180100IPKNS_12basic_stringIcNS_11char_traitsIcEENS_9allocatorIcEEEEPS6_EET0_T_SB_SA_, symObjAddr: 0x73098, symBinAddr: 0x1000739AC, symSize: 0x40 }
  - { offset: 0xB23A6, size: 0x8, addend: 0x0, symName: __ZNSt3__19__advanceB8ne180100IPKNS_12basic_stringIcNS_11char_traitsIcEENS_9allocatorIcEEEEEEvRT_NS_15iterator_traitsIS9_E15difference_typeENS_26random_access_iterator_tagE, symObjAddr: 0x732EC, symBinAddr: 0x100073C00, symSize: 0x30 }
  - { offset: 0xB23F2, size: 0x8, addend: 0x0, symName: __ZNSt3__130__uninitialized_allocator_copyB8ne180100INS_9allocatorINS_12basic_stringIcNS_11char_traitsIcEENS1_IcEEEEEEPKS6_S9_PS6_EET2_RT_T0_T1_SB_, symObjAddr: 0x7331C, symBinAddr: 0x100073C30, symSize: 0x80 }
  - { offset: 0xB2490, size: 0x8, addend: 0x0, symName: __ZNSt3__114__unwrap_rangeB8ne180100IPKNS_12basic_stringIcNS_11char_traitsIcEENS_9allocatorIcEEEES8_EEDaT_T0_, symObjAddr: 0x7339C, symBinAddr: 0x100073CB0, symSize: 0x3C }
  - { offset: 0xB24DE, size: 0x8, addend: 0x0, symName: __ZNSt3__135__uninitialized_allocator_copy_implB8ne180100INS_9allocatorINS_12basic_stringIcNS_11char_traitsIcEENS1_IcEEEEEEPKS6_S9_PS6_EET2_RT_T0_T1_SB_, symObjAddr: 0x733D8, symBinAddr: 0x100073CEC, symSize: 0xF4 }
  - { offset: 0xB26A5, size: 0x8, addend: 0x0, symName: __ZNSt3__113__unwrap_iterB8ne180100IPKNS_12basic_stringIcNS_11char_traitsIcEENS_9allocatorIcEEEENS_18__unwrap_iter_implIS8_Lb1EEELi0EEEDTclsrT0_8__unwrapclsr3stdE7declvalIT_EEEESC_, symObjAddr: 0x73524, symBinAddr: 0x100073E38, symSize: 0x24 }
  - { offset: 0xB2744, size: 0x8, addend: 0x0, symName: __ZNSt3__113move_backwardB8ne180100IPNS_12basic_stringIcNS_11char_traitsIcEENS_9allocatorIcEEEES7_EET0_T_S9_S8_, symObjAddr: 0x735DC, symBinAddr: 0x100073EF0, symSize: 0x40 }
  - { offset: 0xB27A2, size: 0x8, addend: 0x0, symName: __ZNSt3__115__move_backwardB8ne180100INS_17_ClassicAlgPolicyEPNS_12basic_stringIcNS_11char_traitsIcEENS_9allocatorIcEEEES8_S8_EENS_4pairIT0_T2_EESA_T1_SB_, symObjAddr: 0x7361C, symBinAddr: 0x100073F30, symSize: 0x44 }
  - { offset: 0xB2812, size: 0x8, addend: 0x0, symName: __ZNSt3__123__dispatch_copy_or_moveB8ne180100INS_17_ClassicAlgPolicyENS_20__move_backward_loopIS1_EENS_23__move_backward_trivialEPNS_12basic_stringIcNS_11char_traitsIcEENS_9allocatorIcEEEESB_SB_EENS_4pairIT2_T4_EESD_T3_SE_, symObjAddr: 0x73660, symBinAddr: 0x100073F74, symSize: 0x44 }
  - { offset: 0xB2894, size: 0x8, addend: 0x0, symName: __ZNSt3__121__unwrap_and_dispatchB8ne180100INS_10__overloadINS_20__move_backward_loopINS_17_ClassicAlgPolicyEEENS_23__move_backward_trivialEEEPNS_12basic_stringIcNS_11char_traitsIcEENS_9allocatorIcEEEESD_SD_Li0EEENS_4pairIT0_T2_EESF_T1_SG_, symObjAddr: 0x736A4, symBinAddr: 0x100073FB8, symSize: 0xB4 }
  - { offset: 0xB2935, size: 0x8, addend: 0x0, symName: __ZNSt3__16__copyB8ne180100INS_17_ClassicAlgPolicyEPKNS_12basic_stringIcNS_11char_traitsIcEENS_9allocatorIcEEEES9_PS7_EENS_4pairIT0_T2_EESC_T1_SD_, symObjAddr: 0x73840, symBinAddr: 0x100074154, symSize: 0x44 }
  - { offset: 0xB29A5, size: 0x8, addend: 0x0, symName: __ZNSt3__123__dispatch_copy_or_moveB8ne180100INS_17_ClassicAlgPolicyENS_11__copy_loopIS1_EENS_14__copy_trivialEPKNS_12basic_stringIcNS_11char_traitsIcEENS_9allocatorIcEEEESC_PSA_EENS_4pairIT2_T4_EESF_T3_SG_, symObjAddr: 0x73884, symBinAddr: 0x100074198, symSize: 0x44 }
  - { offset: 0xB2A27, size: 0x8, addend: 0x0, symName: __ZNSt3__121__unwrap_and_dispatchB8ne180100INS_10__overloadINS_11__copy_loopINS_17_ClassicAlgPolicyEEENS_14__copy_trivialEEEPKNS_12basic_stringIcNS_11char_traitsIcEENS_9allocatorIcEEEESE_PSC_Li0EEENS_4pairIT0_T2_EESH_T1_SI_, symObjAddr: 0x738C8, symBinAddr: 0x1000741DC, symSize: 0xB4 }
  - { offset: 0xB2B96, size: 0x8, addend: 0x0, symName: __ZNSt3__19make_pairB8ne180100IPKNS_12basic_stringIcNS_11char_traitsIcEENS_9allocatorIcEEEEPS6_EENS_4pairINS_18__unwrap_ref_decayIT_E4typeENSB_IT0_E4typeEEEOSC_OSF_, symObjAddr: 0x73A04, symBinAddr: 0x100074318, symSize: 0x38 }
  - { offset: 0xB2BE6, size: 0x8, addend: 0x0, symName: __ZNSt3__114__rewrap_rangeB8ne180100IPKNS_12basic_stringIcNS_11char_traitsIcEENS_9allocatorIcEEEES8_S8_EET0_S9_T1_, symObjAddr: 0x73A3C, symBinAddr: 0x100074350, symSize: 0x2C }
  - { offset: 0xB2C3E, size: 0x8, addend: 0x0, symName: __ZNSt3__113__rewrap_iterB8ne180100IPKNS_12basic_stringIcNS_11char_traitsIcEENS_9allocatorIcEEEES8_NS_18__unwrap_iter_implIS8_Lb1EEEEET_SB_T0_, symObjAddr: 0x73B04, symBinAddr: 0x100074418, symSize: 0x3C }
  - { offset: 0xB2C95, size: 0x8, addend: 0x0, symName: __ZNSt3__142__uninitialized_allocator_move_if_noexceptB8ne180100INS_9allocatorINS_12basic_stringIcNS_11char_traitsIcEENS1_IcEEEEEEPS6_S8_S8_EET2_RT_T0_T1_S9_, symObjAddr: 0x73C6C, symBinAddr: 0x100074580, symSize: 0xF4 }
  - { offset: 0xB2D34, size: 0x8, addend: 0x0, symName: __ZNSt3__110__distanceB8ne180100IPKNS_12basic_stringIcNS_11char_traitsIcEENS_9allocatorIcEEEEEENS_15iterator_traitsIT_E15difference_typeESA_SA_NS_26random_access_iterator_tagE, symObjAddr: 0x73D60, symBinAddr: 0x100074674, symSize: 0x28 }
  - { offset: 0xB2D84, size: 0x8, addend: 0x0, symName: __ZNSt3__14sortB8ne180100INS_11__wrap_iterIPNS_12basic_stringIcNS_11char_traitsIcEENS_9allocatorIcEEEEEENS_6__lessIvvEEEEvT_SC_T0_, symObjAddr: 0x73E04, symBinAddr: 0x100074718, symSize: 0x40 }
  - { offset: 0xB2DDE, size: 0x8, addend: 0x0, symName: __ZNSt3__111__sort_implB8ne180100INS_17_ClassicAlgPolicyENS_11__wrap_iterIPNS_12basic_stringIcNS_11char_traitsIcEENS_9allocatorIcEEEEEENS_6__lessIvvEEEEvT0_SD_RT1_, symObjAddr: 0x73E44, symBinAddr: 0x100074758, symSize: 0xA8 }
  - { offset: 0xB2E42, size: 0x8, addend: 0x0, symName: __ZNSt3__123__debug_randomize_rangeB8ne180100INS_17_ClassicAlgPolicyENS_11__wrap_iterIPNS_12basic_stringIcNS_11char_traitsIcEENS_9allocatorIcEEEEEESA_EEvT0_T1_, symObjAddr: 0x73EEC, symBinAddr: 0x100074800, symSize: 0x14 }
  - { offset: 0xB2E95, size: 0x8, addend: 0x0, symName: __ZNSt3__115__sort_dispatchB8ne180100INS_17_ClassicAlgPolicyEPNS_12basic_stringIcNS_11char_traitsIcEENS_9allocatorIcEEEENS_6__lessIvvEEEEvT0_SB_RT1_, symObjAddr: 0x73F00, symBinAddr: 0x100074814, symSize: 0x64 }
  - { offset: 0xB2F14, size: 0x8, addend: 0x0, symName: __ZNSt3__113__unwrap_iterB8ne180100INS_11__wrap_iterIPNS_12basic_stringIcNS_11char_traitsIcEENS_9allocatorIcEEEEEENS_18__unwrap_iter_implIS9_Lb1EEELi0EEEDTclsrT0_8__unwrapclsr3stdE7declvalIT_EEEESD_, symObjAddr: 0x73F64, symBinAddr: 0x100074878, symSize: 0x2C }
  - { offset: 0xB2F5B, size: 0x8, addend: 0x0, symName: __ZNSt3__135__check_strict_weak_ordering_sortedB8ne180100IPNS_12basic_stringIcNS_11char_traitsIcEENS_9allocatorIcEEEENS_6__lessIvvEEEEvT_SA_RT0_, symObjAddr: 0x73F90, symBinAddr: 0x1000748A4, symSize: 0x18 }
  - { offset: 0xB2FB4, size: 0x8, addend: 0x0, symName: __ZNSt3__17__log2iB8ne180100IlEET_S1_, symObjAddr: 0x73FA8, symBinAddr: 0x1000748BC, symSize: 0x54 }
  - { offset: 0xB2FEC, size: 0x8, addend: 0x0, symName: __ZNSt3__112__libcpp_clzB8ne180100Em, symObjAddr: 0x74484, symBinAddr: 0x100074D98, symSize: 0x1C }
  - { offset: 0xB301A, size: 0x8, addend: 0x0, symName: __ZNSt3__124__sort3_maybe_branchlessB8ne180100INS_17_ClassicAlgPolicyERNS_6__lessIvvEEPNS_12basic_stringIcNS_11char_traitsIcEENS_9allocatorIcEEEELi0EEEvT1_SC_SC_T0_, symObjAddr: 0x74524, symBinAddr: 0x100074E38, symSize: 0x3C }
  - { offset: 0xB3093, size: 0x8, addend: 0x0, symName: __ZNSt3__124__sort4_maybe_branchlessB8ne180100INS_17_ClassicAlgPolicyERNS_6__lessIvvEEPNS_12basic_stringIcNS_11char_traitsIcEENS_9allocatorIcEEEELi0EEEvT1_SC_SC_SC_T0_, symObjAddr: 0x74560, symBinAddr: 0x100074E74, symSize: 0x44 }
  - { offset: 0xB311A, size: 0x8, addend: 0x0, symName: __ZNSt3__124__sort5_maybe_branchlessB8ne180100INS_17_ClassicAlgPolicyERNS_6__lessIvvEEPNS_12basic_stringIcNS_11char_traitsIcEENS_9allocatorIcEEEELi0EEEvT1_SC_SC_SC_SC_T0_, symObjAddr: 0x745A4, symBinAddr: 0x100074EB8, symSize: 0x4C }
  - { offset: 0xB31B1, size: 0x8, addend: 0x0, symName: __ZNSt3__116__insertion_sortB8ne180100INS_17_ClassicAlgPolicyERNS_6__lessIvvEEPNS_12basic_stringIcNS_11char_traitsIcEENS_9allocatorIcEEEEEEvT1_SC_T0_, symObjAddr: 0x745F0, symBinAddr: 0x100074F04, symSize: 0x188 }
  - { offset: 0xB3269, size: 0x8, addend: 0x0, symName: __ZNSt3__114__partial_sortB8ne180100INS_17_ClassicAlgPolicyERNS_6__lessIvvEEPNS_12basic_stringIcNS_11char_traitsIcEENS_9allocatorIcEEEESB_EET1_SC_SC_T2_RT0_, symObjAddr: 0x748D0, symBinAddr: 0x1000751E4, symSize: 0x94 }
  - { offset: 0xB32F7, size: 0x8, addend: 0x0, symName: __ZNSt3__17__sort3B8ne180100INS_17_ClassicAlgPolicyERNS_6__lessIvvEEPNS_12basic_stringIcNS_11char_traitsIcEENS_9allocatorIcEEEEEEjT1_SC_SC_T0_, symObjAddr: 0x74964, symBinAddr: 0x100075278, symSize: 0x144 }
  - { offset: 0xB337C, size: 0x8, addend: 0x0, symName: __ZNSt3__19iter_swapB8ne180100IPNS_12basic_stringIcNS_11char_traitsIcEENS_9allocatorIcEEEES7_EEvT_T0_, symObjAddr: 0x75688, symBinAddr: 0x100075F9C, symSize: 0x2C }
  - { offset: 0xB33C6, size: 0x8, addend: 0x0, symName: __ZNSt3__14swapB8ne180100IcNS_11char_traitsIcEENS_9allocatorIcEEEEvRNS_12basic_stringIT_T0_T1_EESA_, symObjAddr: 0x756B4, symBinAddr: 0x100075FC8, symSize: 0x2C }
  - { offset: 0xB341B, size: 0x8, addend: 0x0, symName: __ZNSt3__14swapB8ne180100INS_12basic_stringIcNS_11char_traitsIcEENS_9allocatorIcEEE5__repEEENS_9enable_ifIXaasr21is_move_constructibleIT_EE5valuesr18is_move_assignableIS9_EE5valueEvE4typeERS9_SC_, symObjAddr: 0x75804, symBinAddr: 0x100076118, symSize: 0x54 }
  - { offset: 0xB3470, size: 0x8, addend: 0x0, symName: __ZNSt3__116__swap_allocatorB8ne180100INS_9allocatorIcEEEEvRT_S4_, symObjAddr: 0x75858, symBinAddr: 0x10007616C, symSize: 0x2C }
  - { offset: 0xB34B2, size: 0x8, addend: 0x0, symName: __ZNSt3__116__swap_allocatorB8ne180100INS_9allocatorIcEEEEvRT_S4_NS_17integral_constantIbLb0EEE, symObjAddr: 0x75884, symBinAddr: 0x100076198, symSize: 0x14 }
  - { offset: 0xB34F7, size: 0x8, addend: 0x0, symName: __ZNSt3__17__sort4B8ne180100INS_17_ClassicAlgPolicyERNS_6__lessIvvEEPNS_12basic_stringIcNS_11char_traitsIcEENS_9allocatorIcEEEEEEvT1_SC_SC_SC_T0_, symObjAddr: 0x75898, symBinAddr: 0x1000761AC, symSize: 0xB8 }
  - { offset: 0xB3578, size: 0x8, addend: 0x0, symName: __ZNSt3__17__sort5B8ne180100INS_17_ClassicAlgPolicyERNS_6__lessIvvEEPNS_12basic_stringIcNS_11char_traitsIcEENS_9allocatorIcEEEEEEvT1_SC_SC_SC_SC_T0_, symObjAddr: 0x75950, symBinAddr: 0x100076264, symSize: 0xE8 }
  - { offset: 0xB3608, size: 0x8, addend: 0x0, symName: __ZNSt3__123__debug_randomize_rangeB8ne180100INS_17_ClassicAlgPolicyEPNS_12basic_stringIcNS_11char_traitsIcEENS_9allocatorIcEEEES8_EEvT0_T1_, symObjAddr: 0x75A38, symBinAddr: 0x10007634C, symSize: 0x14 }
  - { offset: 0xB365C, size: 0x8, addend: 0x0, symName: __ZNSt3__119__partial_sort_implB8ne180100INS_17_ClassicAlgPolicyERNS_6__lessIvvEEPNS_12basic_stringIcNS_11char_traitsIcEENS_9allocatorIcEEEESB_EET1_SC_SC_T2_OT0_, symObjAddr: 0x75A4C, symBinAddr: 0x100076360, symSize: 0x110 }
  - { offset: 0xB36F9, size: 0x8, addend: 0x0, symName: __ZNSt3__111__make_heapB8ne180100INS_17_ClassicAlgPolicyERNS_6__lessIvvEEPNS_12basic_stringIcNS_11char_traitsIcEENS_9allocatorIcEEEEEEvT1_SC_OT0_, symObjAddr: 0x75B5C, symBinAddr: 0x100076470, symSize: 0xC0 }
  - { offset: 0xB37A3, size: 0x8, addend: 0x0, symName: __ZNSt3__111__sort_heapB8ne180100INS_17_ClassicAlgPolicyERNS_6__lessIvvEEPNS_12basic_stringIcNS_11char_traitsIcEENS_9allocatorIcEEEEEEvT1_SC_OT0_, symObjAddr: 0x75E70, symBinAddr: 0x100076784, symSize: 0xA8 }
  - { offset: 0xB384D, size: 0x8, addend: 0x0, symName: __ZNSt3__110__pop_heapB8ne180100INS_17_ClassicAlgPolicyENS_6__lessIvvEEPNS_12basic_stringIcNS_11char_traitsIcEENS_9allocatorIcEEEEEEvT1_SB_RT0_NS_15iterator_traitsISB_E15difference_typeE, symObjAddr: 0x75F18, symBinAddr: 0x10007682C, symSize: 0x138 }
  - { offset: 0xB38FE, size: 0x8, addend: 0x0, symName: __ZNSt3__19__sift_upB8ne180100INS_17_ClassicAlgPolicyERNS_6__lessIvvEEPNS_12basic_stringIcNS_11char_traitsIcEENS_9allocatorIcEEEEEEvT1_SC_OT0_NS_15iterator_traitsISC_E15difference_typeE, symObjAddr: 0x76158, symBinAddr: 0x100076A6C, symSize: 0x164 }
  - { offset: 0xB39A5, size: 0x8, addend: 0x0, symName: __ZNSt3__122__populate_left_bitsetB8ne180100IRNS_6__lessIvvEEPNS_12basic_stringIcNS_11char_traitsIcEENS_9allocatorIcEEEES9_EEvT0_T_RT1_Ry, symObjAddr: 0x762BC, symBinAddr: 0x100076BD0, symSize: 0xA8 }
  - { offset: 0xB3A60, size: 0x8, addend: 0x0, symName: __ZNSt3__123__populate_right_bitsetB8ne180100IRNS_6__lessIvvEEPNS_12basic_stringIcNS_11char_traitsIcEENS_9allocatorIcEEEES9_EEvT0_T_RT1_Ry, symObjAddr: 0x76364, symBinAddr: 0x100076C78, symSize: 0xA4 }
  - { offset: 0xB3B1B, size: 0x8, addend: 0x0, symName: __ZNSt3__117__swap_bitmap_posB8ne180100INS_17_ClassicAlgPolicyEPNS_12basic_stringIcNS_11char_traitsIcEENS_9allocatorIcEEEEEEvT0_S9_RySA_, symObjAddr: 0x76408, symBinAddr: 0x100076D1C, symSize: 0x104 }
  - { offset: 0xB3BBC, size: 0x8, addend: 0x0, symName: __ZNSt3__133__bitset_partition_partial_blocksB8ne180100INS_17_ClassicAlgPolicyERNS_6__lessIvvEEPNS_12basic_stringIcNS_11char_traitsIcEENS_9allocatorIcEEEESA_EEvRT1_SD_T0_RT2_RySH_, symObjAddr: 0x7650C, symBinAddr: 0x100076E20, symSize: 0x2F0 }
  - { offset: 0xB3D3D, size: 0x8, addend: 0x0, symName: __ZNSt3__19make_pairB8ne180100IRPNS_12basic_stringIcNS_11char_traitsIcEENS_9allocatorIcEEEERbEENS_4pairINS_18__unwrap_ref_decayIT_E4typeENSB_IT0_E4typeEEEOSC_OSF_, symObjAddr: 0x769E4, symBinAddr: 0x1000772F8, symSize: 0x38 }
  - { offset: 0xB3D8D, size: 0x8, addend: 0x0, symName: __ZNSt3__112__libcpp_ctzB8ne180100Ey, symObjAddr: 0x76A1C, symBinAddr: 0x100077330, symSize: 0x20 }
  - { offset: 0xB3DBB, size: 0x8, addend: 0x0, symName: __ZNSt3__113__libcpp_blsrB8ne180100Ey, symObjAddr: 0x76A3C, symBinAddr: 0x100077350, symSize: 0x2C }
  - { offset: 0xB3DE9, size: 0x8, addend: 0x0, symName: __ZNSt3__112__libcpp_clzB8ne180100Ey, symObjAddr: 0x76A9C, symBinAddr: 0x1000773B0, symSize: 0x1C }
  - { offset: 0xB3F4A, size: 0x8, addend: 0x0, symName: __ZNSt3__112__to_addressB8ne180100INS_11__wrap_iterIPNS_12basic_stringIcNS_11char_traitsIcEENS_9allocatorIcEEEEEEvEEu7__decayIDTclsr19__to_address_helperIT_EE6__callclsr3stdE7declvalIRKSA_EEEEESC_, symObjAddr: 0x76B54, symBinAddr: 0x100077468, symSize: 0x24 }
  - { offset: 0xB3FEF, size: 0x8, addend: 0x0, symName: __ZNSt3__14moveB8ne180100IPNS_12basic_stringIcNS_11char_traitsIcEENS_9allocatorIcEEEES7_EET0_T_S9_S8_, symObjAddr: 0x76BD4, symBinAddr: 0x1000774E8, symSize: 0x40 }
  - { offset: 0xB404D, size: 0x8, addend: 0x0, symName: __ZNSt3__1miB8ne180100IPKNS_12basic_stringIcNS_11char_traitsIcEENS_9allocatorIcEEEES8_EEDTmicldtfp_4baseEcldtfp0_4baseEERKNS_11__wrap_iterIT_EERKNSA_IT0_EE, symObjAddr: 0x76C14, symBinAddr: 0x100077528, symSize: 0x48 }
  - { offset: 0xB409C, size: 0x8, addend: 0x0, symName: __ZNSt3__16__moveB8ne180100INS_17_ClassicAlgPolicyEPNS_12basic_stringIcNS_11char_traitsIcEENS_9allocatorIcEEEES8_S8_EENS_4pairIT0_T2_EESA_T1_SB_, symObjAddr: 0x76C5C, symBinAddr: 0x100077570, symSize: 0x44 }
  - { offset: 0xB410C, size: 0x8, addend: 0x0, symName: __ZNSt3__123__dispatch_copy_or_moveB8ne180100INS_17_ClassicAlgPolicyENS_11__move_loopIS1_EENS_14__move_trivialEPNS_12basic_stringIcNS_11char_traitsIcEENS_9allocatorIcEEEESB_SB_EENS_4pairIT2_T4_EESD_T3_SE_, symObjAddr: 0x76CA0, symBinAddr: 0x1000775B4, symSize: 0x44 }
  - { offset: 0xB418E, size: 0x8, addend: 0x0, symName: __ZNSt3__121__unwrap_and_dispatchB8ne180100INS_10__overloadINS_11__move_loopINS_17_ClassicAlgPolicyEEENS_14__move_trivialEEEPNS_12basic_stringIcNS_11char_traitsIcEENS_9allocatorIcEEEESD_SD_Li0EEENS_4pairIT0_T2_EESF_T1_SG_, symObjAddr: 0x76CE4, symBinAddr: 0x1000775F8, symSize: 0xB4 }
  - { offset: 0xB4223, size: 0x8, addend: 0x0, symName: __ZNSt3__16uniqueB8ne180100INS_11__wrap_iterIPNS_12basic_stringIcNS_11char_traitsIcEENS_9allocatorIcEEEEEENS_10__equal_toEEET_SB_SB_T0_, symObjAddr: 0x76E28, symBinAddr: 0x10007773C, symSize: 0x54 }
  - { offset: 0xB4281, size: 0x8, addend: 0x0, symName: __ZNSt3__18__uniqueB8ne180100INS_17_ClassicAlgPolicyENS_11__wrap_iterIPNS_12basic_stringIcNS_11char_traitsIcEENS_9allocatorIcEEEEEESA_RNS_10__equal_toEEENS_4pairIT0_SE_EESE_T1_OT2_, symObjAddr: 0x76E7C, symBinAddr: 0x100077790, symSize: 0x13C }
  - { offset: 0xB430E, size: 0x8, addend: 0x0, symName: __ZNSt3__115__adjacent_findB8ne180100INS_11__wrap_iterIPNS_12basic_stringIcNS_11char_traitsIcEENS_9allocatorIcEEEEEES9_RNS_10__equal_toEEET_SC_T0_OT1_, symObjAddr: 0x76FB8, symBinAddr: 0x1000778CC, symSize: 0xCC }
  - { offset: 0xB448F, size: 0x8, addend: 0x0, symName: __ZNSt3__1ssB8ne180100IcNS_11char_traitsIcEEEEDaNS_17basic_string_viewIT_T0_EENS_13type_identityIS7_E4typeE, symObjAddr: 0x775BC, symBinAddr: 0x100077ED0, symSize: 0x7C }
  - { offset: 0xB44DF, size: 0x8, addend: 0x0, symName: __ZNSt3__122__make_exception_guardB8ne180100INS_6vectorIN5Catch8TestCaseENS_9allocatorIS3_EEE16__destroy_vectorEEENS_28__exception_guard_exceptionsIT_EES9_, symObjAddr: 0x778C0, symBinAddr: 0x1000781D4, symSize: 0x40 }
  - { offset: 0xB4516, size: 0x8, addend: 0x0, symName: __ZNSt3__119__allocate_at_leastB8ne180100INS_9allocatorIN5Catch8TestCaseEEEEENS_19__allocation_resultINS_16allocator_traitsIT_E7pointerEEERS7_m, symObjAddr: 0x77B5C, symBinAddr: 0x100078470, symSize: 0x40 }
  - { offset: 0xB455B, size: 0x8, addend: 0x0, symName: __ZNSt3__130__uninitialized_allocator_copyB8ne180100INS_9allocatorIN5Catch8TestCaseEEEPS3_S5_S5_EET2_RT_T0_T1_S6_, symObjAddr: 0x77CD0, symBinAddr: 0x1000785E4, symSize: 0x80 }
  - { offset: 0xB45F9, size: 0x8, addend: 0x0, symName: __ZNSt3__114__unwrap_rangeB8ne180100IPN5Catch8TestCaseES3_EEDaT_T0_, symObjAddr: 0x77DC8, symBinAddr: 0x1000786DC, symSize: 0x3C }
  - { offset: 0xB4647, size: 0x8, addend: 0x0, symName: __ZNSt3__135__uninitialized_allocator_copy_implB8ne180100INS_9allocatorIN5Catch8TestCaseEEEPS3_S5_S5_EET2_RT_T0_T1_S6_, symObjAddr: 0x77E04, symBinAddr: 0x100078718, symSize: 0xF4 }
  - { offset: 0xB46E6, size: 0x8, addend: 0x0, symName: __ZNSt3__113__unwrap_iterB8ne180100IPN5Catch8TestCaseENS_18__unwrap_iter_implIS3_Lb1EEELi0EEEDTclsrT0_8__unwrapclsr3stdE7declvalIT_EEEES7_, symObjAddr: 0x77EF8, symBinAddr: 0x10007880C, symSize: 0x24 }
  - { offset: 0xB472D, size: 0x8, addend: 0x0, symName: __ZNSt3__113__rewrap_iterB8ne180100IPN5Catch8TestCaseES3_NS_18__unwrap_iter_implIS3_Lb1EEEEET_S6_T0_, symObjAddr: 0x77F1C, symBinAddr: 0x100078830, symSize: 0x3C }
  - { offset: 0xB4892, size: 0x8, addend: 0x0, symName: __ZNSt3__122__make_exception_guardB8ne180100INS_29_AllocatorDestroyRangeReverseINS_9allocatorIN5Catch8TestCaseEEEPS4_EEEENS_28__exception_guard_exceptionsIT_EES9_, symObjAddr: 0x78020, symBinAddr: 0x100078934, symSize: 0x4C }
  - { offset: 0xB48CA, size: 0x8, addend: 0x0, symName: __ZNSt3__114__construct_atB8ne180100IN5Catch8TestCaseEJRS2_EPS2_EEPT_S6_DpOT0_, symObjAddr: 0x781C4, symBinAddr: 0x100078AD8, symSize: 0x2C }
  - { offset: 0xB4923, size: 0x8, addend: 0x0, symName: __ZNSt3__112construct_atB8ne180100IN5Catch8TestCaseEJRS2_EPS2_EEPT_S6_DpOT0_, symObjAddr: 0x781F0, symBinAddr: 0x100078B04, symSize: 0x34 }
  - { offset: 0xB497B, size: 0x8, addend: 0x0, symName: __ZNSt3__119__allocator_destroyB8ne180100INS_9allocatorIN5Catch8TestCaseEEENS_16reverse_iteratorIPS3_EES7_EEvRT_T0_T1_, symObjAddr: 0x782DC, symBinAddr: 0x100078BF0, symSize: 0x70 }
  - { offset: 0xB49DF, size: 0x8, addend: 0x0, symName: __ZNSt3__1neB8ne180100IPN5Catch8TestCaseES3_EEbRKNS_16reverse_iteratorIT_EERKNS4_IT0_EE, symObjAddr: 0x78380, symBinAddr: 0x100078C94, symSize: 0x48 }
  - { offset: 0xB4A2E, size: 0x8, addend: 0x0, symName: __ZNSt3__112__to_addressB8ne180100INS_16reverse_iteratorIPN5Catch8TestCaseEEEvEEu7__decayIDTclsr19__to_address_helperIT_EE6__callclsr3stdE7declvalIRKS6_EEEEES8_, symObjAddr: 0x783C8, symBinAddr: 0x100078CDC, symSize: 0x24 }
  - { offset: 0xB4A91, size: 0x8, addend: 0x0, symName: __ZNSt3__14prevB8ne180100IPN5Catch8TestCaseELi0EEET_S4_NS_15iterator_traitsIS4_E15difference_typeE, symObjAddr: 0x78488, symBinAddr: 0x100078D9C, symSize: 0x3C }
  - { offset: 0xB4ADE, size: 0x8, addend: 0x0, symName: __ZNSt3__19__advanceB8ne180100IPN5Catch8TestCaseEEEvRT_NS_15iterator_traitsIS4_E15difference_typeENS_26random_access_iterator_tagE, symObjAddr: 0x784FC, symBinAddr: 0x100078E10, symSize: 0x30 }
  - { offset: 0xB4B82, size: 0x8, addend: 0x0, symName: __ZNSt3__14sortB8ne180100INS_11__wrap_iterIPN5Catch8TestCaseEEENS_6__lessIvvEEEEvT_S8_T0_, symObjAddr: 0x78638, symBinAddr: 0x100078F4C, symSize: 0x40 }
  - { offset: 0xB4BDC, size: 0x8, addend: 0x0, symName: __ZNSt3__111__sort_implB8ne180100INS_17_ClassicAlgPolicyENS_11__wrap_iterIPN5Catch8TestCaseEEENS_6__lessIvvEEEEvT0_S9_RT1_, symObjAddr: 0x78678, symBinAddr: 0x100078F8C, symSize: 0xA8 }
  - { offset: 0xB4C40, size: 0x8, addend: 0x0, symName: __ZNSt3__123__debug_randomize_rangeB8ne180100INS_17_ClassicAlgPolicyENS_11__wrap_iterIPN5Catch8TestCaseEEES6_EEvT0_T1_, symObjAddr: 0x78720, symBinAddr: 0x100079034, symSize: 0x14 }
  - { offset: 0xB4C93, size: 0x8, addend: 0x0, symName: __ZNSt3__115__sort_dispatchB8ne180100INS_17_ClassicAlgPolicyEPN5Catch8TestCaseENS_6__lessIvvEEEEvT0_S7_RT1_, symObjAddr: 0x78734, symBinAddr: 0x100079048, symSize: 0x64 }
  - { offset: 0xB4D12, size: 0x8, addend: 0x0, symName: __ZNSt3__113__unwrap_iterB8ne180100INS_11__wrap_iterIPN5Catch8TestCaseEEENS_18__unwrap_iter_implIS5_Lb1EEELi0EEEDTclsrT0_8__unwrapclsr3stdE7declvalIT_EEEES9_, symObjAddr: 0x78798, symBinAddr: 0x1000790AC, symSize: 0x2C }
  - { offset: 0xB4D59, size: 0x8, addend: 0x0, symName: __ZNSt3__135__check_strict_weak_ordering_sortedB8ne180100IPN5Catch8TestCaseENS_6__lessIvvEEEEvT_S6_RT0_, symObjAddr: 0x787C4, symBinAddr: 0x1000790D8, symSize: 0x18 }
  - { offset: 0xB4DB3, size: 0x8, addend: 0x0, symName: __ZNSt3__124__sort3_maybe_branchlessB8ne180100INS_17_ClassicAlgPolicyERNS_6__lessIvvEEPN5Catch8TestCaseELi0EEEvT1_S8_S8_T0_, symObjAddr: 0x78CCC, symBinAddr: 0x1000795E0, symSize: 0x3C }
  - { offset: 0xB4E2C, size: 0x8, addend: 0x0, symName: __ZNSt3__124__sort4_maybe_branchlessB8ne180100INS_17_ClassicAlgPolicyERNS_6__lessIvvEEPN5Catch8TestCaseELi0EEEvT1_S8_S8_S8_T0_, symObjAddr: 0x78D08, symBinAddr: 0x10007961C, symSize: 0x44 }
  - { offset: 0xB4EB3, size: 0x8, addend: 0x0, symName: __ZNSt3__124__sort5_maybe_branchlessB8ne180100INS_17_ClassicAlgPolicyERNS_6__lessIvvEEPN5Catch8TestCaseELi0EEEvT1_S8_S8_S8_S8_T0_, symObjAddr: 0x78D4C, symBinAddr: 0x100079660, symSize: 0x4C }
  - { offset: 0xB4F4A, size: 0x8, addend: 0x0, symName: __ZNSt3__116__insertion_sortB8ne180100INS_17_ClassicAlgPolicyERNS_6__lessIvvEEPN5Catch8TestCaseEEEvT1_S8_T0_, symObjAddr: 0x78D98, symBinAddr: 0x1000796AC, symSize: 0x1C0 }
  - { offset: 0xB5002, size: 0x8, addend: 0x0, symName: __ZNSt3__114__partial_sortB8ne180100INS_17_ClassicAlgPolicyERNS_6__lessIvvEEPN5Catch8TestCaseES7_EET1_S8_S8_T2_RT0_, symObjAddr: 0x790E4, symBinAddr: 0x1000799F8, symSize: 0x94 }
  - { offset: 0xB5090, size: 0x8, addend: 0x0, symName: __ZNSt3__17__sort3B8ne180100INS_17_ClassicAlgPolicyERNS_6__lessIvvEEPN5Catch8TestCaseEEEjT1_S8_S8_T0_, symObjAddr: 0x79178, symBinAddr: 0x100079A8C, symSize: 0x144 }
  - { offset: 0xB5115, size: 0x8, addend: 0x0, symName: __ZNSt3__19iter_swapB8ne180100IPN5Catch8TestCaseES3_EEvT_T0_, symObjAddr: 0x79F50, symBinAddr: 0x10007A864, symSize: 0x2C }
  - { offset: 0xB5160, size: 0x8, addend: 0x0, symName: __ZNSt3__14swapB8ne180100IN5Catch8TestCaseEEENS_9enable_ifIXaasr21is_move_constructibleIT_EE5valuesr18is_move_assignableIS4_EE5valueEvE4typeERS4_S7_, symObjAddr: 0x79F7C, symBinAddr: 0x10007A890, symSize: 0x50 }
  - { offset: 0xB51B5, size: 0x8, addend: 0x0, symName: __ZNSt3__14swapB8ne180100IPN5Catch12ITestInvokerEEENS_9enable_ifIXaasr21is_move_constructibleIT_EE5valuesr18is_move_assignableIS5_EE5valueEvE4typeERS5_S8_, symObjAddr: 0x7A230, symBinAddr: 0x10007AB44, symSize: 0x3C }
  - { offset: 0xB520A, size: 0x8, addend: 0x0, symName: __ZNSt3__17__sort4B8ne180100INS_17_ClassicAlgPolicyERNS_6__lessIvvEEPN5Catch8TestCaseEEEvT1_S8_S8_S8_T0_, symObjAddr: 0x7A26C, symBinAddr: 0x10007AB80, symSize: 0xB8 }
  - { offset: 0xB528B, size: 0x8, addend: 0x0, symName: __ZNSt3__17__sort5B8ne180100INS_17_ClassicAlgPolicyERNS_6__lessIvvEEPN5Catch8TestCaseEEEvT1_S8_S8_S8_S8_T0_, symObjAddr: 0x7A324, symBinAddr: 0x10007AC38, symSize: 0xE8 }
  - { offset: 0xB5327, size: 0x8, addend: 0x0, symName: __ZNSt3__123__debug_randomize_rangeB8ne180100INS_17_ClassicAlgPolicyEPN5Catch8TestCaseES4_EEvT0_T1_, symObjAddr: 0x7A450, symBinAddr: 0x10007AD64, symSize: 0x14 }
  - { offset: 0xB537B, size: 0x8, addend: 0x0, symName: __ZNSt3__119__partial_sort_implB8ne180100INS_17_ClassicAlgPolicyERNS_6__lessIvvEEPN5Catch8TestCaseES7_EET1_S8_S8_T2_OT0_, symObjAddr: 0x7A464, symBinAddr: 0x10007AD78, symSize: 0x110 }
  - { offset: 0xB5418, size: 0x8, addend: 0x0, symName: __ZNSt3__111__make_heapB8ne180100INS_17_ClassicAlgPolicyERNS_6__lessIvvEEPN5Catch8TestCaseEEEvT1_S8_OT0_, symObjAddr: 0x7A574, symBinAddr: 0x10007AE88, symSize: 0xC0 }
  - { offset: 0xB54C2, size: 0x8, addend: 0x0, symName: __ZNSt3__111__sort_heapB8ne180100INS_17_ClassicAlgPolicyERNS_6__lessIvvEEPN5Catch8TestCaseEEEvT1_S8_OT0_, symObjAddr: 0x7A8C8, symBinAddr: 0x10007B1DC, symSize: 0xA8 }
  - { offset: 0xB556C, size: 0x8, addend: 0x0, symName: __ZNSt3__110__pop_heapB8ne180100INS_17_ClassicAlgPolicyENS_6__lessIvvEEPN5Catch8TestCaseEEEvT1_S7_RT0_NS_15iterator_traitsIS7_E15difference_typeE, symObjAddr: 0x7A970, symBinAddr: 0x10007B284, symSize: 0x158 }
  - { offset: 0xB561D, size: 0x8, addend: 0x0, symName: __ZNSt3__19__sift_upB8ne180100INS_17_ClassicAlgPolicyERNS_6__lessIvvEEPN5Catch8TestCaseEEEvT1_S8_OT0_NS_15iterator_traitsIS8_E15difference_typeE, symObjAddr: 0x7ABD0, symBinAddr: 0x10007B4E4, symSize: 0x18C }
  - { offset: 0xB56C4, size: 0x8, addend: 0x0, symName: __ZNSt3__122__populate_left_bitsetB8ne180100IRNS_6__lessIvvEEPN5Catch8TestCaseES5_EEvT0_T_RT1_Ry, symObjAddr: 0x7AD5C, symBinAddr: 0x10007B670, symSize: 0xA8 }
  - { offset: 0xB577F, size: 0x8, addend: 0x0, symName: __ZNSt3__123__populate_right_bitsetB8ne180100IRNS_6__lessIvvEEPN5Catch8TestCaseES5_EEvT0_T_RT1_Ry, symObjAddr: 0x7AE04, symBinAddr: 0x10007B718, symSize: 0xA4 }
  - { offset: 0xB583A, size: 0x8, addend: 0x0, symName: __ZNSt3__117__swap_bitmap_posB8ne180100INS_17_ClassicAlgPolicyEPN5Catch8TestCaseEEEvT0_S5_RyS6_, symObjAddr: 0x7AEA8, symBinAddr: 0x10007B7BC, symSize: 0x104 }
  - { offset: 0xB58DB, size: 0x8, addend: 0x0, symName: __ZNSt3__133__bitset_partition_partial_blocksB8ne180100INS_17_ClassicAlgPolicyERNS_6__lessIvvEEPN5Catch8TestCaseES6_EEvRT1_S9_T0_RT2_RySD_, symObjAddr: 0x7AFAC, symBinAddr: 0x10007B8C0, symSize: 0x2F0 }
  - { offset: 0xB5A5C, size: 0x8, addend: 0x0, symName: __ZNSt3__19make_pairB8ne180100IRPN5Catch8TestCaseERbEENS_4pairINS_18__unwrap_ref_decayIT_E4typeENS7_IT0_E4typeEEEOS8_OSB_, symObjAddr: 0x7B484, symBinAddr: 0x10007BD98, symSize: 0x38 }
  - { offset: 0xB5BDF, size: 0x8, addend: 0x0, symName: __ZNSt3__112__to_addressB8ne180100INS_11__wrap_iterIPN5Catch8TestCaseEEEvEEu7__decayIDTclsr19__to_address_helperIT_EE6__callclsr3stdE7declvalIRKS6_EEEEES8_, symObjAddr: 0x7B58C, symBinAddr: 0x10007BEA0, symSize: 0x24 }
  - { offset: 0xB5C84, size: 0x8, addend: 0x0, symName: __ZNSt3__119__allocate_at_leastB8ne180100INS_9allocatorINS_4pairIyPKN5Catch8TestCaseEEEEEEENS_19__allocation_resultINS_16allocator_traitsIT_E7pointerEEERSB_m, symObjAddr: 0x7BC10, symBinAddr: 0x10007C524, symSize: 0x40 }
  - { offset: 0xB5CC9, size: 0x8, addend: 0x0, symName: __ZNSt3__142__uninitialized_allocator_move_if_noexceptB8ne180100INS_9allocatorINS_4pairIyPKN5Catch8TestCaseEEEEENS_16reverse_iteratorIPS7_EESB_SB_EET2_RT_T0_T1_SC_, symObjAddr: 0x7BDE8, symBinAddr: 0x10007C6FC, symSize: 0x12C }
  - { offset: 0xB5D6A, size: 0x8, addend: 0x0, symName: __ZNSt3__14swapB8ne180100IPNS_4pairIyPKN5Catch8TestCaseEEEEENS_9enable_ifIXaasr21is_move_constructibleIT_EE5valuesr18is_move_assignableIS9_EE5valueEvE4typeERS9_SC_, symObjAddr: 0x7BF60, symBinAddr: 0x10007C874, symSize: 0x3C }
  - { offset: 0xB5DBF, size: 0x8, addend: 0x0, symName: __ZNSt3__122__make_exception_guardB8ne180100INS_29_AllocatorDestroyRangeReverseINS_9allocatorINS_4pairIyPKN5Catch8TestCaseEEEEENS_16reverse_iteratorIPS8_EEEEEENS_28__exception_guard_exceptionsIT_EESF_, symObjAddr: 0x7BFD8, symBinAddr: 0x10007C8EC, symSize: 0x4C }
  - { offset: 0xB5DF7, size: 0x8, addend: 0x0, symName: __ZNSt3__1neB8ne180100IPNS_4pairIyPKN5Catch8TestCaseEEES7_EEbRKNS_16reverse_iteratorIT_EERKNS8_IT0_EE, symObjAddr: 0x7C068, symBinAddr: 0x10007C97C, symSize: 0x48 }
  - { offset: 0xB5E46, size: 0x8, addend: 0x0, symName: __ZNSt3__112__to_addressB8ne180100INS_16reverse_iteratorIPNS_4pairIyPKN5Catch8TestCaseEEEEEvEEu7__decayIDTclsr19__to_address_helperIT_EE6__callclsr3stdE7declvalIRKSA_EEEEESC_, symObjAddr: 0x7C0E0, symBinAddr: 0x10007C9F4, symSize: 0x24 }
  - { offset: 0xB5E7E, size: 0x8, addend: 0x0, symName: __ZNSt3__114__construct_atB8ne180100INS_4pairIyPKN5Catch8TestCaseEEEJS6_EPS6_EEPT_S9_DpOT0_, symObjAddr: 0x7C230, symBinAddr: 0x10007CB44, symSize: 0x2C }
  - { offset: 0xB5ED7, size: 0x8, addend: 0x0, symName: __ZNSt3__112construct_atB8ne180100INS_4pairIyPKN5Catch8TestCaseEEEJS6_EPS6_EEPT_S9_DpOT0_, symObjAddr: 0x7C25C, symBinAddr: 0x10007CB70, symSize: 0x24 }
  - { offset: 0xB5F5B, size: 0x8, addend: 0x0, symName: __ZNSt3__112__to_addressB8ne180100INS_4pairIyPKN5Catch8TestCaseEEEEEPT_S8_, symObjAddr: 0x7C2B8, symBinAddr: 0x10007CBCC, symSize: 0x14 }
  - { offset: 0xB5F92, size: 0x8, addend: 0x0, symName: __ZNSt3__14prevB8ne180100IPNS_4pairIyPKN5Catch8TestCaseEEELi0EEET_S8_NS_15iterator_traitsIS8_E15difference_typeE, symObjAddr: 0x7C2F8, symBinAddr: 0x10007CC0C, symSize: 0x3C }
  - { offset: 0xB5FDF, size: 0x8, addend: 0x0, symName: __ZNSt3__19__advanceB8ne180100IPNS_4pairIyPKN5Catch8TestCaseEEEEEvRT_NS_15iterator_traitsIS8_E15difference_typeENS_26random_access_iterator_tagE, symObjAddr: 0x7C36C, symBinAddr: 0x10007CC80, symSize: 0x28 }
  - { offset: 0xB602B, size: 0x8, addend: 0x0, symName: __ZNSt3__119__allocator_destroyB8ne180100INS_9allocatorINS_4pairIyPKN5Catch8TestCaseEEEEENS_16reverse_iteratorINS9_IPS7_EEEESC_EEvRT_T0_T1_, symObjAddr: 0x7C498, symBinAddr: 0x10007CDAC, symSize: 0x70 }
  - { offset: 0xB6091, size: 0x8, addend: 0x0, symName: __ZNSt3__1neB8ne180100INS_16reverse_iteratorIPNS_4pairIyPKN5Catch8TestCaseEEEEES9_EEbRKNS1_IT_EERKNS1_IT0_EE, symObjAddr: 0x7C544, symBinAddr: 0x10007CE58, symSize: 0x60 }
  - { offset: 0xB60E0, size: 0x8, addend: 0x0, symName: __ZNSt3__112__to_addressB8ne180100INS_16reverse_iteratorINS1_IPNS_4pairIyPKN5Catch8TestCaseEEEEEEEvEEu7__decayIDTclsr19__to_address_helperIT_EE6__callclsr3stdE7declvalIRKSB_EEEEESD_, symObjAddr: 0x7C5CC, symBinAddr: 0x10007CEE0, symSize: 0x24 }
  - { offset: 0xB6118, size: 0x8, addend: 0x0, symName: __ZNSt3__112__destroy_atB8ne180100INS_4pairIyPKN5Catch8TestCaseEEELi0EEEvPT_, symObjAddr: 0x7C644, symBinAddr: 0x10007CF58, symSize: 0x10 }
  - { offset: 0xB617D, size: 0x8, addend: 0x0, symName: __ZNSt3__14prevB8ne180100INS_16reverse_iteratorIPNS_4pairIyPKN5Catch8TestCaseEEEEELi0EEET_SA_NS_15iterator_traitsISA_E15difference_typeE, symObjAddr: 0x7C6D8, symBinAddr: 0x10007CFEC, symSize: 0x4C }
  - { offset: 0xB61CA, size: 0x8, addend: 0x0, symName: __ZNSt3__19__advanceB8ne180100INS_16reverse_iteratorIPNS_4pairIyPKN5Catch8TestCaseEEEEEEEvRT_NS_15iterator_traitsISA_E15difference_typeENS_26random_access_iterator_tagE, symObjAddr: 0x7C75C, symBinAddr: 0x10007D070, symSize: 0x2C }
  - { offset: 0xB6217, size: 0x8, addend: 0x0, symName: __ZNSt3__1eqB8ne180100IPKN5Catch8TestCaseEEEbRKNS_11__wrap_iterIT_EES9_, symObjAddr: 0x7CB34, symBinAddr: 0x10007D448, symSize: 0x48 }
  - { offset: 0xB625D, size: 0x8, addend: 0x0, symName: __ZNSt3__114__construct_atB8ne180100INS_4pairIyPKN5Catch8TestCaseEEEJjS5_EPS6_EEPT_S9_DpOT0_, symObjAddr: 0x7CE00, symBinAddr: 0x10007D714, symSize: 0x34 }
  - { offset: 0xB62CB, size: 0x8, addend: 0x0, symName: __ZNSt3__112construct_atB8ne180100INS_4pairIyPKN5Catch8TestCaseEEEJjS5_EPS6_EEPT_S9_DpOT0_, symObjAddr: 0x7CE34, symBinAddr: 0x10007D748, symSize: 0x3C }
  - { offset: 0xB6338, size: 0x8, addend: 0x0, symName: '__ZNSt3__111__sort_implB8ne180100INS_17_ClassicAlgPolicyENS_11__wrap_iterIPNS_4pairIyPKN5Catch8TestCaseEEEEEZNS4_9sortTestsERKNS4_7IConfigERKNS_6vectorIS5_NS_9allocatorIS5_EEEEE3$_0EEvT0_SL_RT1_', symObjAddr: 0x7CFB4, symBinAddr: 0x10007D8C8, symSize: 0xA8 }
  - { offset: 0xB639C, size: 0x8, addend: 0x0, symName: __ZNSt3__123__debug_randomize_rangeB8ne180100INS_17_ClassicAlgPolicyENS_11__wrap_iterIPNS_4pairIyPKN5Catch8TestCaseEEEEESA_EEvT0_T1_, symObjAddr: 0x7D05C, symBinAddr: 0x10007D970, symSize: 0x14 }
  - { offset: 0xB63EF, size: 0x8, addend: 0x0, symName: '__ZNSt3__115__sort_dispatchB8ne180100INS_17_ClassicAlgPolicyEPNS_4pairIyPKN5Catch8TestCaseEEEZNS3_9sortTestsERKNS3_7IConfigERKNS_6vectorIS4_NS_9allocatorIS4_EEEEE3$_0EEvT0_SJ_RT1_', symObjAddr: 0x7D070, symBinAddr: 0x10007D984, symSize: 0x64 }
  - { offset: 0xB646E, size: 0x8, addend: 0x0, symName: __ZNSt3__113__unwrap_iterB8ne180100INS_11__wrap_iterIPNS_4pairIyPKN5Catch8TestCaseEEEEENS_18__unwrap_iter_implIS9_Lb1EEELi0EEEDTclsrT0_8__unwrapclsr3stdE7declvalIT_EEEESD_, symObjAddr: 0x7D0D4, symBinAddr: 0x10007D9E8, symSize: 0x2C }
  - { offset: 0xB64B5, size: 0x8, addend: 0x0, symName: '__ZNSt3__135__check_strict_weak_ordering_sortedB8ne180100IPNS_4pairIyPKN5Catch8TestCaseEEEZNS2_9sortTestsERKNS2_7IConfigERKNS_6vectorIS3_NS_9allocatorIS3_EEEEE3$_0EEvT_SI_RT0_', symObjAddr: 0x7D100, symBinAddr: 0x10007DA14, symSize: 0x18 }
  - { offset: 0xB650F, size: 0x8, addend: 0x0, symName: '__ZNSt3__124__sort3_maybe_branchlessB8ne180100INS_17_ClassicAlgPolicyERZN5Catch9sortTestsERKNS2_7IConfigERKNS_6vectorINS2_8TestCaseENS_9allocatorIS7_EEEEE3$_0PNS_4pairIyPKS7_EELi0EEEvT1_SK_SK_T0_', symObjAddr: 0x7D64C, symBinAddr: 0x10007DF60, symSize: 0x3C }
  - { offset: 0xB6588, size: 0x8, addend: 0x0, symName: '__ZNSt3__124__sort4_maybe_branchlessB8ne180100INS_17_ClassicAlgPolicyERZN5Catch9sortTestsERKNS2_7IConfigERKNS_6vectorINS2_8TestCaseENS_9allocatorIS7_EEEEE3$_0PNS_4pairIyPKS7_EELi0EEEvT1_SK_SK_SK_T0_', symObjAddr: 0x7D688, symBinAddr: 0x10007DF9C, symSize: 0x44 }
  - { offset: 0xB660F, size: 0x8, addend: 0x0, symName: '__ZNSt3__124__sort5_maybe_branchlessB8ne180100INS_17_ClassicAlgPolicyERZN5Catch9sortTestsERKNS2_7IConfigERKNS_6vectorINS2_8TestCaseENS_9allocatorIS7_EEEEE3$_0PNS_4pairIyPKS7_EELi0EEEvT1_SK_SK_SK_SK_T0_', symObjAddr: 0x7D6CC, symBinAddr: 0x10007DFE0, symSize: 0x4C }
  - { offset: 0xB66A6, size: 0x8, addend: 0x0, symName: '__ZNSt3__116__insertion_sortB8ne180100INS_17_ClassicAlgPolicyERZN5Catch9sortTestsERKNS2_7IConfigERKNS_6vectorINS2_8TestCaseENS_9allocatorIS7_EEEEE3$_0PNS_4pairIyPKS7_EEEEvT1_SK_T0_', symObjAddr: 0x7D718, symBinAddr: 0x10007E02C, symSize: 0x150 }
  - { offset: 0xB676E, size: 0x8, addend: 0x0, symName: '__ZNSt3__114__partial_sortB8ne180100INS_17_ClassicAlgPolicyERZN5Catch9sortTestsERKNS2_7IConfigERKNS_6vectorINS2_8TestCaseENS_9allocatorIS7_EEEEE3$_0PNS_4pairIyPKS7_EESJ_EET1_SK_SK_T2_RT0_', symObjAddr: 0x7D988, symBinAddr: 0x10007E29C, symSize: 0x94 }
  - { offset: 0xB67FC, size: 0x8, addend: 0x0, symName: '__ZNSt3__17__sort3B8ne180100INS_17_ClassicAlgPolicyERZN5Catch9sortTestsERKNS2_7IConfigERKNS_6vectorINS2_8TestCaseENS_9allocatorIS7_EEEEE3$_0PNS_4pairIyPKS7_EEEEjT1_SK_SK_T0_', symObjAddr: 0x7DA1C, symBinAddr: 0x10007E330, symSize: 0x144 }
  - { offset: 0xB6881, size: 0x8, addend: 0x0, symName: __ZNSt3__19iter_swapB8ne180100IPNS_4pairIyPKN5Catch8TestCaseEEES7_EEvT_T0_, symObjAddr: 0x7E60C, symBinAddr: 0x10007EF20, symSize: 0x2C }
  - { offset: 0xB68CB, size: 0x8, addend: 0x0, symName: __ZNSt3__14swapB8ne180100IyPKN5Catch8TestCaseELi0EEEvRNS_4pairIT_T0_EES9_, symObjAddr: 0x7E638, symBinAddr: 0x10007EF4C, symSize: 0x2C }
  - { offset: 0xB691E, size: 0x8, addend: 0x0, symName: __ZNSt3__14swapB8ne180100IyEENS_9enable_ifIXaasr21is_move_constructibleIT_EE5valuesr18is_move_assignableIS2_EE5valueEvE4typeERS2_S5_, symObjAddr: 0x7E6A8, symBinAddr: 0x10007EFBC, symSize: 0x3C }
  - { offset: 0xB6973, size: 0x8, addend: 0x0, symName: __ZNSt3__14swapB8ne180100IPKN5Catch8TestCaseEEENS_9enable_ifIXaasr21is_move_constructibleIT_EE5valuesr18is_move_assignableIS6_EE5valueEvE4typeERS6_S9_, symObjAddr: 0x7E6E4, symBinAddr: 0x10007EFF8, symSize: 0x3C }
  - { offset: 0xB69C8, size: 0x8, addend: 0x0, symName: '__ZNSt3__17__sort4B8ne180100INS_17_ClassicAlgPolicyERZN5Catch9sortTestsERKNS2_7IConfigERKNS_6vectorINS2_8TestCaseENS_9allocatorIS7_EEEEE3$_0PNS_4pairIyPKS7_EEEEvT1_SK_SK_SK_T0_', symObjAddr: 0x7E720, symBinAddr: 0x10007F034, symSize: 0xB8 }
  - { offset: 0xB6A49, size: 0x8, addend: 0x0, symName: '__ZNSt3__17__sort5B8ne180100INS_17_ClassicAlgPolicyERZN5Catch9sortTestsERKNS2_7IConfigERKNS_6vectorINS2_8TestCaseENS_9allocatorIS7_EEEEE3$_0PNS_4pairIyPKS7_EEEEvT1_SK_SK_SK_SK_T0_', symObjAddr: 0x7E7D8, symBinAddr: 0x10007F0EC, symSize: 0xE8 }
  - { offset: 0xB6AE5, size: 0x8, addend: 0x0, symName: __ZNSt3__123__debug_randomize_rangeB8ne180100INS_17_ClassicAlgPolicyEPNS_4pairIyPKN5Catch8TestCaseEEES8_EEvT0_T1_, symObjAddr: 0x7E934, symBinAddr: 0x10007F248, symSize: 0x14 }
  - { offset: 0xB6B39, size: 0x8, addend: 0x0, symName: '__ZNSt3__119__partial_sort_implB8ne180100INS_17_ClassicAlgPolicyERZN5Catch9sortTestsERKNS2_7IConfigERKNS_6vectorINS2_8TestCaseENS_9allocatorIS7_EEEEE3$_0PNS_4pairIyPKS7_EESJ_EET1_SK_SK_T2_OT0_', symObjAddr: 0x7E948, symBinAddr: 0x10007F25C, symSize: 0x110 }
  - { offset: 0xB6BD6, size: 0x8, addend: 0x0, symName: '__ZNSt3__111__make_heapB8ne180100INS_17_ClassicAlgPolicyERZN5Catch9sortTestsERKNS2_7IConfigERKNS_6vectorINS2_8TestCaseENS_9allocatorIS7_EEEEE3$_0PNS_4pairIyPKS7_EEEEvT1_SK_OT0_', symObjAddr: 0x7EA58, symBinAddr: 0x10007F36C, symSize: 0xB8 }
  - { offset: 0xB6C80, size: 0x8, addend: 0x0, symName: '__ZNSt3__111__sort_heapB8ne180100INS_17_ClassicAlgPolicyERZN5Catch9sortTestsERKNS2_7IConfigERKNS_6vectorINS2_8TestCaseENS_9allocatorIS7_EEEEE3$_0PNS_4pairIyPKS7_EEEEvT1_SK_OT0_', symObjAddr: 0x7ED1C, symBinAddr: 0x10007F630, symSize: 0xA8 }
  - { offset: 0xB6D2A, size: 0x8, addend: 0x0, symName: '__ZNSt3__110__pop_heapB8ne180100INS_17_ClassicAlgPolicyEZN5Catch9sortTestsERKNS2_7IConfigERKNS_6vectorINS2_8TestCaseENS_9allocatorIS7_EEEEE3$_0PNS_4pairIyPKS7_EEEEvT1_SJ_RT0_NS_15iterator_traitsISJ_E15difference_typeE', symObjAddr: 0x7EDC4, symBinAddr: 0x10007F6D8, symSize: 0xF4 }
  - { offset: 0xB6DE3, size: 0x8, addend: 0x0, symName: '__ZNSt3__19__sift_upB8ne180100INS_17_ClassicAlgPolicyERZN5Catch9sortTestsERKNS2_7IConfigERKNS_6vectorINS2_8TestCaseENS_9allocatorIS7_EEEEE3$_0PNS_4pairIyPKS7_EEEEvT1_SK_OT0_NS_15iterator_traitsISK_E15difference_typeE', symObjAddr: 0x7EFB8, symBinAddr: 0x10007F8CC, symSize: 0x11C }
  - { offset: 0xB6E9A, size: 0x8, addend: 0x0, symName: '__ZNSt3__122__populate_left_bitsetB8ne180100IRZN5Catch9sortTestsERKNS1_7IConfigERKNS_6vectorINS1_8TestCaseENS_9allocatorIS6_EEEEE3$_0PNS_4pairIyPKS6_EESH_EEvT0_T_RT1_Ry', symObjAddr: 0x7F0D4, symBinAddr: 0x10007F9E8, symSize: 0xA8 }
  - { offset: 0xB6F55, size: 0x8, addend: 0x0, symName: '__ZNSt3__123__populate_right_bitsetB8ne180100IRZN5Catch9sortTestsERKNS1_7IConfigERKNS_6vectorINS1_8TestCaseENS_9allocatorIS6_EEEEE3$_0PNS_4pairIyPKS6_EESH_EEvT0_T_RT1_Ry', symObjAddr: 0x7F17C, symBinAddr: 0x10007FA90, symSize: 0xA4 }
  - { offset: 0xB7010, size: 0x8, addend: 0x0, symName: __ZNSt3__117__swap_bitmap_posB8ne180100INS_17_ClassicAlgPolicyEPNS_4pairIyPKN5Catch8TestCaseEEEEEvT0_S9_RySA_, symObjAddr: 0x7F220, symBinAddr: 0x10007FB34, symSize: 0x100 }
  - { offset: 0xB70B1, size: 0x8, addend: 0x0, symName: '__ZNSt3__133__bitset_partition_partial_blocksB8ne180100INS_17_ClassicAlgPolicyERZN5Catch9sortTestsERKNS2_7IConfigERKNS_6vectorINS2_8TestCaseENS_9allocatorIS7_EEEEE3$_0PNS_4pairIyPKS7_EESI_EEvRT1_SL_T0_RT2_RySP_', symObjAddr: 0x7F320, symBinAddr: 0x10007FC34, symSize: 0x2E8 }
  - { offset: 0xB7232, size: 0x8, addend: 0x0, symName: __ZNSt3__19make_pairB8ne180100IRPNS_4pairIyPKN5Catch8TestCaseEEERbEENS1_INS_18__unwrap_ref_decayIT_E4typeENSA_IT0_E4typeEEEOSB_OSE_, symObjAddr: 0x7F7E8, symBinAddr: 0x1000800FC, symSize: 0x38 }
  - { offset: 0xB73B5, size: 0x8, addend: 0x0, symName: __ZNSt3__112__to_addressB8ne180100INS_11__wrap_iterIPNS_4pairIyPKN5Catch8TestCaseEEEEEvEEu7__decayIDTclsr19__to_address_helperIT_EE6__callclsr3stdE7declvalIRKSA_EEEEESC_, symObjAddr: 0x7F8F0, symBinAddr: 0x100080204, symSize: 0x24 }
  - { offset: 0xB7459, size: 0x8, addend: 0x0, symName: __ZNSt3__142__uninitialized_allocator_move_if_noexceptB8ne180100INS_9allocatorIN5Catch8TestCaseEEENS_16reverse_iteratorIPS3_EES7_S7_EET2_RT_T0_T1_S8_, symObjAddr: 0x7FEF8, symBinAddr: 0x10008080C, symSize: 0x124 }
  - { offset: 0xB74FA, size: 0x8, addend: 0x0, symName: __ZNSt3__14swapB8ne180100IPN5Catch8TestCaseEEENS_9enable_ifIXaasr21is_move_constructibleIT_EE5valuesr18is_move_assignableIS5_EE5valueEvE4typeERS5_S8_, symObjAddr: 0x8001C, symBinAddr: 0x100080930, symSize: 0x3C }
  - { offset: 0xB754F, size: 0x8, addend: 0x0, symName: __ZNSt3__122__make_exception_guardB8ne180100INS_29_AllocatorDestroyRangeReverseINS_9allocatorIN5Catch8TestCaseEEENS_16reverse_iteratorIPS4_EEEEEENS_28__exception_guard_exceptionsIT_EESB_, symObjAddr: 0x80058, symBinAddr: 0x10008096C, symSize: 0x4C }
  - { offset: 0xB7587, size: 0x8, addend: 0x0, symName: __ZNSt3__114__construct_atB8ne180100IN5Catch8TestCaseEJS2_EPS2_EEPT_S5_DpOT0_, symObjAddr: 0x80224, symBinAddr: 0x100080B38, symSize: 0x2C }
  - { offset: 0xB75E0, size: 0x8, addend: 0x0, symName: __ZNSt3__112construct_atB8ne180100IN5Catch8TestCaseEJS2_EPS2_EEPT_S5_DpOT0_, symObjAddr: 0x80250, symBinAddr: 0x100080B64, symSize: 0x34 }
  - { offset: 0xB7638, size: 0x8, addend: 0x0, symName: __ZNSt3__119__allocator_destroyB8ne180100INS_9allocatorIN5Catch8TestCaseEEENS_16reverse_iteratorINS5_IPS3_EEEES8_EEvRT_T0_T1_, symObjAddr: 0x80388, symBinAddr: 0x100080C9C, symSize: 0x70 }
  - { offset: 0xB769E, size: 0x8, addend: 0x0, symName: __ZNSt3__1neB8ne180100INS_16reverse_iteratorIPN5Catch8TestCaseEEES5_EEbRKNS1_IT_EERKNS1_IT0_EE, symObjAddr: 0x80434, symBinAddr: 0x100080D48, symSize: 0x60 }
  - { offset: 0xB76ED, size: 0x8, addend: 0x0, symName: __ZNSt3__112__to_addressB8ne180100INS_16reverse_iteratorINS1_IPN5Catch8TestCaseEEEEEvEEu7__decayIDTclsr19__to_address_helperIT_EE6__callclsr3stdE7declvalIRKS7_EEEEES9_, symObjAddr: 0x80494, symBinAddr: 0x100080DA8, symSize: 0x24 }
  - { offset: 0xB7750, size: 0x8, addend: 0x0, symName: __ZNSt3__14prevB8ne180100INS_16reverse_iteratorIPN5Catch8TestCaseEEELi0EEET_S6_NS_15iterator_traitsIS6_E15difference_typeE, symObjAddr: 0x80590, symBinAddr: 0x100080EA4, symSize: 0x4C }
  - { offset: 0xB779D, size: 0x8, addend: 0x0, symName: __ZNSt3__19__advanceB8ne180100INS_16reverse_iteratorIPN5Catch8TestCaseEEEEEvRT_NS_15iterator_traitsIS6_E15difference_typeENS_26random_access_iterator_tagE, symObjAddr: 0x80614, symBinAddr: 0x100080F28, symSize: 0x2C }
  - { offset: 0xB77EA, size: 0x8, addend: 0x0, symName: __ZNSt3__1eqB8ne180100IPNS_4pairIyPKN5Catch8TestCaseEEEEEbRKNS_11__wrap_iterIT_EESC_, symObjAddr: 0x808A8, symBinAddr: 0x1000811BC, symSize: 0x48 }
  - { offset: 0xB7830, size: 0x8, addend: 0x0, symName: __ZNSt3__114__construct_atB8ne180100IN5Catch8TestCaseEJRKS2_EPS2_EEPT_S7_DpOT0_, symObjAddr: 0x80A98, symBinAddr: 0x1000813AC, symSize: 0x2C }
  - { offset: 0xB7889, size: 0x8, addend: 0x0, symName: __ZNSt3__112construct_atB8ne180100IN5Catch8TestCaseEJRKS2_EPS2_EEPT_S7_DpOT0_, symObjAddr: 0x80AC4, symBinAddr: 0x1000813D8, symSize: 0x34 }
  - { offset: 0xB78E1, size: 0x8, addend: 0x0, symName: __ZNSt3__111__str_rfindB8ne180100IcmNS_11char_traitsIcEELm18446744073709551615EEET0_PKT_S3_S6_S3_S3_, symObjAddr: 0x81054, symBinAddr: 0x100081968, symSize: 0x128 }
  - { offset: 0xB798A, size: 0x8, addend: 0x0, symName: __ZNSt3__118__find_end_classicB8ne180100IPKcS2_DoFbccEEET_S4_S4_T0_S5_RT1_, symObjAddr: 0x8117C, symBinAddr: 0x100081A90, symSize: 0x5C }
  - { offset: 0xB7A1E, size: 0x8, addend: 0x0, symName: __ZNSt3__115__find_end_implB8ne180100INS_17_ClassicAlgPolicyEPKcS3_S3_S3_DoFbccENS_10__identityES5_EENS_4pairIT0_S7_EES7_T1_T2_T3_RT4_RT5_RT6_NS_20forward_iterator_tagESI_, symObjAddr: 0x811D8, symBinAddr: 0x100081AEC, symSize: 0x1F4 }
  - { offset: 0xB7B4F, size: 0x8, addend: 0x0, symName: __ZNSt3__18__invokeB8ne180100IRDoFbccEJRKcS4_EEEDTclclsr3stdE7declvalIT_EEspclsr3stdE7declvalIT0_EEEEOS5_DpOS6_, symObjAddr: 0x81420, symBinAddr: 0x100081D34, symSize: 0x40 }
  - { offset: 0xB7BB7, size: 0x8, addend: 0x0, symName: __ZNSt3__18__invokeB8ne180100IRNS_10__identityEJRKcEEEDTclclsr3stdE7declvalIT_EEspclsr3stdE7declvalIT0_EEEEOS5_DpOS6_, symObjAddr: 0x81460, symBinAddr: 0x100081D74, symSize: 0x2C }
  - { offset: 0xB7C0B, size: 0x8, addend: 0x0, symName: __ZNSt3__114__construct_atB8ne180100INS_10shared_ptrIN5Catch16TestCaseTracking8ITrackerEEEJRKS5_EPS5_EEPT_SA_DpOT0_, symObjAddr: 0x81950, symBinAddr: 0x100082264, symSize: 0x2C }
  - { offset: 0xB7C64, size: 0x8, addend: 0x0, symName: __ZNSt3__112construct_atB8ne180100INS_10shared_ptrIN5Catch16TestCaseTracking8ITrackerEEEJRKS5_EPS5_EEPT_SA_DpOT0_, symObjAddr: 0x8197C, symBinAddr: 0x100082290, symSize: 0x34 }
  - { offset: 0xB7CBD, size: 0x8, addend: 0x0, symName: __ZNSt3__119__allocate_at_leastB8ne180100INS_9allocatorINS_10shared_ptrIN5Catch16TestCaseTracking8ITrackerEEEEEEENS_19__allocation_resultINS_16allocator_traitsIT_E7pointerEEERSA_m, symObjAddr: 0x81E40, symBinAddr: 0x100082754, symSize: 0x40 }
  - { offset: 0xB7D02, size: 0x8, addend: 0x0, symName: __ZNSt3__142__uninitialized_allocator_move_if_noexceptB8ne180100INS_9allocatorINS_10shared_ptrIN5Catch16TestCaseTracking8ITrackerEEEEENS_16reverse_iteratorIPS6_EESA_SA_EET2_RT_T0_T1_SB_, symObjAddr: 0x81FF4, symBinAddr: 0x100082908, symSize: 0x12C }
  - { offset: 0xB7DA3, size: 0x8, addend: 0x0, symName: __ZNSt3__14swapB8ne180100IPNS_10shared_ptrIN5Catch16TestCaseTracking8ITrackerEEEEENS_9enable_ifIXaasr21is_move_constructibleIT_EE5valuesr18is_move_assignableIS8_EE5valueEvE4typeERS8_SB_, symObjAddr: 0x8216C, symBinAddr: 0x100082A80, symSize: 0x3C }
  - { offset: 0xB7DF8, size: 0x8, addend: 0x0, symName: __ZNSt3__122__make_exception_guardB8ne180100INS_29_AllocatorDestroyRangeReverseINS_9allocatorINS_10shared_ptrIN5Catch16TestCaseTracking8ITrackerEEEEENS_16reverse_iteratorIPS7_EEEEEENS_28__exception_guard_exceptionsIT_EESE_, symObjAddr: 0x821BC, symBinAddr: 0x100082AD0, symSize: 0x4C }
  - { offset: 0xB7E30, size: 0x8, addend: 0x0, symName: __ZNSt3__1neB8ne180100IPNS_10shared_ptrIN5Catch16TestCaseTracking8ITrackerEEES6_EEbRKNS_16reverse_iteratorIT_EERKNS7_IT0_EE, symObjAddr: 0x8224C, symBinAddr: 0x100082B60, symSize: 0x48 }
  - { offset: 0xB7E7F, size: 0x8, addend: 0x0, symName: __ZNSt3__112__to_addressB8ne180100INS_16reverse_iteratorIPNS_10shared_ptrIN5Catch16TestCaseTracking8ITrackerEEEEEvEEu7__decayIDTclsr19__to_address_helperIT_EE6__callclsr3stdE7declvalIRKS9_EEEEESB_, symObjAddr: 0x822C4, symBinAddr: 0x100082BD8, symSize: 0x24 }
  - { offset: 0xB7EB7, size: 0x8, addend: 0x0, symName: __ZNSt3__114__construct_atB8ne180100INS_10shared_ptrIN5Catch16TestCaseTracking8ITrackerEEEJS5_EPS5_EEPT_S8_DpOT0_, symObjAddr: 0x82414, symBinAddr: 0x100082D28, symSize: 0x2C }
  - { offset: 0xB7F10, size: 0x8, addend: 0x0, symName: __ZNSt3__112construct_atB8ne180100INS_10shared_ptrIN5Catch16TestCaseTracking8ITrackerEEEJS5_EPS5_EEPT_S8_DpOT0_, symObjAddr: 0x82440, symBinAddr: 0x100082D54, symSize: 0x34 }
  - { offset: 0xB7F94, size: 0x8, addend: 0x0, symName: __ZNSt3__14prevB8ne180100IPNS_10shared_ptrIN5Catch16TestCaseTracking8ITrackerEEELi0EEET_S7_NS_15iterator_traitsIS7_E15difference_typeE, symObjAddr: 0x8254C, symBinAddr: 0x100082E60, symSize: 0x3C }
  - { offset: 0xB7FE1, size: 0x8, addend: 0x0, symName: __ZNSt3__19__advanceB8ne180100IPNS_10shared_ptrIN5Catch16TestCaseTracking8ITrackerEEEEEvRT_NS_15iterator_traitsIS7_E15difference_typeENS_26random_access_iterator_tagE, symObjAddr: 0x825C0, symBinAddr: 0x100082ED4, symSize: 0x28 }
  - { offset: 0xB802D, size: 0x8, addend: 0x0, symName: __ZNSt3__119__allocator_destroyB8ne180100INS_9allocatorINS_10shared_ptrIN5Catch16TestCaseTracking8ITrackerEEEEENS_16reverse_iteratorINS8_IPS6_EEEESB_EEvRT_T0_T1_, symObjAddr: 0x826EC, symBinAddr: 0x100083000, symSize: 0x70 }
  - { offset: 0xB8093, size: 0x8, addend: 0x0, symName: __ZNSt3__1neB8ne180100INS_16reverse_iteratorIPNS_10shared_ptrIN5Catch16TestCaseTracking8ITrackerEEEEES8_EEbRKNS1_IT_EERKNS1_IT0_EE, symObjAddr: 0x82798, symBinAddr: 0x1000830AC, symSize: 0x60 }
  - { offset: 0xB80E2, size: 0x8, addend: 0x0, symName: __ZNSt3__112__to_addressB8ne180100INS_16reverse_iteratorINS1_IPNS_10shared_ptrIN5Catch16TestCaseTracking8ITrackerEEEEEEEvEEu7__decayIDTclsr19__to_address_helperIT_EE6__callclsr3stdE7declvalIRKSA_EEEEESC_, symObjAddr: 0x827F8, symBinAddr: 0x10008310C, symSize: 0x24 }
  - { offset: 0xB8145, size: 0x8, addend: 0x0, symName: __ZNSt3__14prevB8ne180100INS_16reverse_iteratorIPNS_10shared_ptrIN5Catch16TestCaseTracking8ITrackerEEEEELi0EEET_S9_NS_15iterator_traitsIS9_E15difference_typeE, symObjAddr: 0x828F4, symBinAddr: 0x100083208, symSize: 0x4C }
  - { offset: 0xB8192, size: 0x8, addend: 0x0, symName: __ZNSt3__19__advanceB8ne180100INS_16reverse_iteratorIPNS_10shared_ptrIN5Catch16TestCaseTracking8ITrackerEEEEEEEvRT_NS_15iterator_traitsIS9_E15difference_typeENS_26random_access_iterator_tagE, symObjAddr: 0x82978, symBinAddr: 0x10008328C, symSize: 0x2C }
  - { offset: 0xB81DF, size: 0x8, addend: 0x0, symName: __ZNSt3__1eqB8ne180100IPNS_10shared_ptrIN5Catch16TestCaseTracking8ITrackerEEEEEbRKNS_11__wrap_iterIT_EESB_, symObjAddr: 0x82D58, symBinAddr: 0x10008366C, symSize: 0x48 }
  - { offset: 0xB8225, size: 0x8, addend: 0x0, symName: __ZNSt3__113__rewrap_iterB8ne180100INS_11__wrap_iterIPKNS_12basic_stringIcNS_11char_traitsIcEENS_9allocatorIcEEEEEES9_NS_18__unwrap_iter_implISA_Lb1EEEEET_SD_T0_, symObjAddr: 0x82E10, symBinAddr: 0x100083724, symSize: 0x4C }
  - { offset: 0xB827D, size: 0x8, addend: 0x0, symName: __ZNSt3__111__find_implB8ne180100IPKNS_12basic_stringIcNS_11char_traitsIcEENS_9allocatorIcEEEES8_S6_NS_10__identityEEET_SA_T0_RKT1_RT2_, symObjAddr: 0x82E5C, symBinAddr: 0x100083770, symSize: 0x7C }
  - { offset: 0xB82FC, size: 0x8, addend: 0x0, symName: __ZNSt3__113__unwrap_iterB8ne180100INS_11__wrap_iterIPKNS_12basic_stringIcNS_11char_traitsIcEENS_9allocatorIcEEEEEENS_18__unwrap_iter_implISA_Lb1EEELi0EEEDTclsrT0_8__unwrapclsr3stdE7declvalIT_EEEESE_, symObjAddr: 0x82ED8, symBinAddr: 0x1000837EC, symSize: 0x2C }
  - { offset: 0xB839B, size: 0x8, addend: 0x0, symName: __ZNSt3__112__to_addressB8ne180100INS_11__wrap_iterIPKNS_12basic_stringIcNS_11char_traitsIcEENS_9allocatorIcEEEEEEvEEu7__decayIDTclsr19__to_address_helperIT_EE6__callclsr3stdE7declvalIRKSB_EEEEESD_, symObjAddr: 0x82F60, symBinAddr: 0x100083874, symSize: 0x24 }
  - { offset: 0xB8481, size: 0x8, addend: 0x0, symName: __ZNSt3__18__invokeB8ne180100IRNS_10__identityEJRKNS_12basic_stringIcNS_11char_traitsIcEENS_9allocatorIcEEEEEEEDTclclsr3stdE7declvalIT_EEspclsr3stdE7declvalIT0_EEEEOSB_DpOSC_, symObjAddr: 0x82FE0, symBinAddr: 0x1000838F4, symSize: 0x2C }
  - { offset: 0xB84D5, size: 0x8, addend: 0x0, symName: __ZNSt3__114__construct_atB8ne180100INS_12basic_stringIcNS_11char_traitsIcEENS_9allocatorIcEEEEJRA1_KcEPS6_EEPT_SC_DpOT0_, symObjAddr: 0x83210, symBinAddr: 0x100083B24, symSize: 0x2C }
  - { offset: 0xB852E, size: 0x8, addend: 0x0, symName: __ZNSt3__112construct_atB8ne180100INS_12basic_stringIcNS_11char_traitsIcEENS_9allocatorIcEEEEJRA1_KcEPS6_EEPT_SC_DpOT0_, symObjAddr: 0x8323C, symBinAddr: 0x100083B50, symSize: 0x34 }
  - { offset: 0xB8587, size: 0x8, addend: 0x0, symName: __ZNSt3__18distanceB8ne180100INS_11__wrap_iterIPKNS_12basic_stringIcNS_11char_traitsIcEENS_9allocatorIcEEEEEEEENS_15iterator_traitsIT_E15difference_typeESC_SC_, symObjAddr: 0x83590, symBinAddr: 0x100083EA4, symSize: 0x3C }
  - { offset: 0xB85CD, size: 0x8, addend: 0x0, symName: __ZNSt3__14nextB8ne180100INS_11__wrap_iterIPKNS_12basic_stringIcNS_11char_traitsIcEENS_9allocatorIcEEEEEELi0EEET_SB_NS_15iterator_traitsISB_E15difference_typeE, symObjAddr: 0x835CC, symBinAddr: 0x100083EE0, symSize: 0x3C }
  - { offset: 0xB861A, size: 0x8, addend: 0x0, symName: __ZNSt3__14copyB8ne180100INS_11__wrap_iterIPKNS_12basic_stringIcNS_11char_traitsIcEENS_9allocatorIcEEEEEEPS7_EET0_T_SD_SC_, symObjAddr: 0x836DC, symBinAddr: 0x100083FF0, symSize: 0x50 }
  - { offset: 0xB8678, size: 0x8, addend: 0x0, symName: __ZNSt3__19__advanceB8ne180100INS_11__wrap_iterIPKNS_12basic_stringIcNS_11char_traitsIcEENS_9allocatorIcEEEEEEEEvRT_NS_15iterator_traitsISB_E15difference_typeENS_26random_access_iterator_tagE, symObjAddr: 0x837FC, symBinAddr: 0x100084110, symSize: 0x2C }
  - { offset: 0xB86C4, size: 0x8, addend: 0x0, symName: __ZNSt3__130__uninitialized_allocator_copyB8ne180100INS_9allocatorINS_12basic_stringIcNS_11char_traitsIcEENS1_IcEEEEEENS_11__wrap_iterIPKS6_EESB_PS6_EET2_RT_T0_T1_SD_, symObjAddr: 0x83858, symBinAddr: 0x10008416C, symSize: 0x90 }
  - { offset: 0xB8762, size: 0x8, addend: 0x0, symName: __ZNSt3__114__unwrap_rangeB8ne180100INS_11__wrap_iterIPKNS_12basic_stringIcNS_11char_traitsIcEENS_9allocatorIcEEEEEESA_EEDaT_T0_, symObjAddr: 0x838E8, symBinAddr: 0x1000841FC, symSize: 0x4C }
  - { offset: 0xB8804, size: 0x8, addend: 0x0, symName: __ZNSt3__16__copyB8ne180100INS_17_ClassicAlgPolicyENS_11__wrap_iterIPKNS_12basic_stringIcNS_11char_traitsIcEENS_9allocatorIcEEEEEESB_PS8_EENS_4pairIT0_T2_EESE_T1_SF_, symObjAddr: 0x8399C, symBinAddr: 0x1000842B0, symSize: 0x54 }
  - { offset: 0xB8874, size: 0x8, addend: 0x0, symName: __ZNSt3__123__dispatch_copy_or_moveB8ne180100INS_17_ClassicAlgPolicyENS_11__copy_loopIS1_EENS_14__copy_trivialENS_11__wrap_iterIPKNS_12basic_stringIcNS_11char_traitsIcEENS_9allocatorIcEEEEEESE_PSB_EENS_4pairIT2_T4_EESH_T3_SI_, symObjAddr: 0x839F0, symBinAddr: 0x100084304, symSize: 0x54 }
  - { offset: 0xB88F6, size: 0x8, addend: 0x0, symName: __ZNSt3__121__unwrap_and_dispatchB8ne180100INS_10__overloadINS_11__copy_loopINS_17_ClassicAlgPolicyEEENS_14__copy_trivialEEENS_11__wrap_iterIPKNS_12basic_stringIcNS_11char_traitsIcEENS_9allocatorIcEEEEEESG_PSD_Li0EEENS_4pairIT0_T2_EESJ_T1_SK_, symObjAddr: 0x83A44, symBinAddr: 0x100084358, symSize: 0xCC }
  - { offset: 0xB898A, size: 0x8, addend: 0x0, symName: __ZNSt3__19make_pairB8ne180100INS_11__wrap_iterIPKNS_12basic_stringIcNS_11char_traitsIcEENS_9allocatorIcEEEEEEPS7_EENS_4pairINS_18__unwrap_ref_decayIT_E4typeENSD_IT0_E4typeEEEOSE_OSH_, symObjAddr: 0x83B10, symBinAddr: 0x100084424, symSize: 0x38 }
  - { offset: 0xB89DA, size: 0x8, addend: 0x0, symName: __ZNSt3__114__rewrap_rangeB8ne180100INS_11__wrap_iterIPKNS_12basic_stringIcNS_11char_traitsIcEENS_9allocatorIcEEEEEESA_S9_EET0_SB_T1_, symObjAddr: 0x83B48, symBinAddr: 0x10008445C, symSize: 0x3C }
  - { offset: 0xB8B0D, size: 0x8, addend: 0x0, symName: __ZNSt3__110__distanceB8ne180100INS_11__wrap_iterIPKNS_12basic_stringIcNS_11char_traitsIcEENS_9allocatorIcEEEEEEEENS_15iterator_traitsIT_E15difference_typeESC_SC_NS_26random_access_iterator_tagE, symObjAddr: 0x83C30, symBinAddr: 0x100084544, symSize: 0x30 }
  - { offset: 0xB8B5E, size: 0x8, addend: 0x0, symName: __ZNSt3__1eqB8ne180100IPKNS_10shared_ptrIN5Catch8TestSpec7PatternEEEEEbRKNS_11__wrap_iterIT_EESC_, symObjAddr: 0x83D2C, symBinAddr: 0x100084640, symSize: 0x48 }
  - { offset: 0xB8BA4, size: 0x8, addend: 0x0, symName: __ZNSt3__1neB8ne180100IPKN5Catch8TestSpec6FilterEEEbRKNS_11__wrap_iterIT_EESA_, symObjAddr: 0x83D8C, symBinAddr: 0x1000846A0, symSize: 0x34 }
  - { offset: 0xB8BEA, size: 0x8, addend: 0x0, symName: __ZNSt3__1eqB8ne180100IPKN5Catch8TestSpec6FilterEEEbRKNS_11__wrap_iterIT_EESA_, symObjAddr: 0x83E2C, symBinAddr: 0x100084740, symSize: 0x48 }
  - { offset: 0xB8C30, size: 0x8, addend: 0x0, symName: __ZNSt3__122__make_exception_guardB8ne180100INS_6vectorIN5Catch8TestSpec11FilterMatchENS_9allocatorIS4_EEE16__destroy_vectorEEENS_28__exception_guard_exceptionsIT_EESA_, symObjAddr: 0x83FE4, symBinAddr: 0x1000848F8, symSize: 0x40 }
  - { offset: 0xB8C67, size: 0x8, addend: 0x0, symName: __ZNSt3__119__allocate_at_leastB8ne180100INS_9allocatorIN5Catch8TestSpec11FilterMatchEEEEENS_19__allocation_resultINS_16allocator_traitsIT_E7pointerEEERS8_m, symObjAddr: 0x84310, symBinAddr: 0x100084C24, symSize: 0x40 }
  - { offset: 0xB8CAD, size: 0x8, addend: 0x0, symName: __ZNSt3__114__construct_atB8ne180100IN5Catch8TestSpec11FilterMatchEJEPS3_EEPT_S6_DpOT0_, symObjAddr: 0x84524, symBinAddr: 0x100084E38, symSize: 0x24 }
  - { offset: 0xB8CF0, size: 0x8, addend: 0x0, symName: __ZNSt3__112construct_atB8ne180100IN5Catch8TestSpec11FilterMatchEJEPS3_EEPT_S6_DpOT0_, symObjAddr: 0x84548, symBinAddr: 0x100084E5C, symSize: 0x3C }
  - { offset: 0xB8D33, size: 0x8, addend: 0x0, symName: __ZNSt3__119__allocate_at_leastB8ne180100INS_9allocatorIPKN5Catch8TestCaseEEEEENS_19__allocation_resultINS_16allocator_traitsIT_E7pointerEEERS9_m, symObjAddr: 0x85218, symBinAddr: 0x100085B2C, symSize: 0x40 }
  - { offset: 0xB8D78, size: 0x8, addend: 0x0, symName: __ZNSt3__142__uninitialized_allocator_move_if_noexceptB8ne180100INS_9allocatorIPKN5Catch8TestCaseEEENS_16reverse_iteratorIPS5_EES9_S5_vEET1_RT_T0_SD_SA_, symObjAddr: 0x853CC, symBinAddr: 0x100085CE0, symSize: 0x78 }
  - { offset: 0xB8DF6, size: 0x8, addend: 0x0, symName: __ZNSt3__14swapB8ne180100IPPKN5Catch8TestCaseEEENS_9enable_ifIXaasr21is_move_constructibleIT_EE5valuesr18is_move_assignableIS7_EE5valueEvE4typeERS7_SA_, symObjAddr: 0x85490, symBinAddr: 0x100085DA4, symSize: 0x3C }
  - { offset: 0xB8E4B, size: 0x8, addend: 0x0, symName: __ZNSt3__14moveB8ne180100INS_16reverse_iteratorIPPKN5Catch8TestCaseEEES7_EET0_T_S9_S8_, symObjAddr: 0x854E0, symBinAddr: 0x100085DF4, symSize: 0x78 }
  - { offset: 0xB8EA9, size: 0x8, addend: 0x0, symName: __ZNSt3__16__moveB8ne180100INS_17_ClassicAlgPolicyENS_16reverse_iteratorIPPKN5Catch8TestCaseEEES8_S8_EENS_4pairIT0_T2_EESA_T1_SB_, symObjAddr: 0x85558, symBinAddr: 0x100085E6C, symSize: 0x64 }
  - { offset: 0xB8F19, size: 0x8, addend: 0x0, symName: __ZNSt3__123__dispatch_copy_or_moveB8ne180100INS_17_ClassicAlgPolicyENS_11__move_loopIS1_EENS_14__move_trivialENS_16reverse_iteratorIPPKN5Catch8TestCaseEEESB_SB_EENS_4pairIT2_T4_EESD_T3_SE_, symObjAddr: 0x855BC, symBinAddr: 0x100085ED0, symSize: 0x64 }
  - { offset: 0xB8F9B, size: 0x8, addend: 0x0, symName: __ZNSt3__121__unwrap_and_dispatchB8ne180100INS_10__overloadINS_11__move_loopINS_17_ClassicAlgPolicyEEENS_14__move_trivialEEENS_16reverse_iteratorIPPKN5Catch8TestCaseEEESD_SD_Li0EEENS_4pairIT0_T2_EESF_T1_SG_, symObjAddr: 0x85620, symBinAddr: 0x100085F34, symSize: 0x12C }
  - { offset: 0xB9032, size: 0x8, addend: 0x0, symName: __ZNSt3__114__unwrap_rangeB8ne180100INS_16reverse_iteratorIPPKN5Catch8TestCaseEEES7_EEDaT_T0_, symObjAddr: 0x8574C, symBinAddr: 0x100086060, symSize: 0x4C }
  - { offset: 0xB915C, size: 0x8, addend: 0x0, symName: __ZNSt3__113__unwrap_iterB8ne180100INS_16reverse_iteratorIPPKN5Catch8TestCaseEEENS_18__unwrap_iter_implIS7_Lb0EEELi0EEEDTclsrT0_8__unwrapclsr3stdE7declvalIT_EEEESB_, symObjAddr: 0x85838, symBinAddr: 0x10008614C, symSize: 0x44 }
  - { offset: 0xB91A2, size: 0x8, addend: 0x0, symName: __ZNSt3__19make_pairB8ne180100INS_16reverse_iteratorIPPKN5Catch8TestCaseEEES7_EENS_4pairINS_18__unwrap_ref_decayIT_E4typeENS9_IT0_E4typeEEEOSA_OSD_, symObjAddr: 0x8587C, symBinAddr: 0x100086190, symSize: 0x38 }
  - { offset: 0xB91F2, size: 0x8, addend: 0x0, symName: __ZNSt3__114__rewrap_rangeB8ne180100INS_16reverse_iteratorIPPKN5Catch8TestCaseEEES7_S7_EET0_S8_T1_, symObjAddr: 0x858B4, symBinAddr: 0x1000861C8, symSize: 0x5C }
  - { offset: 0xB924A, size: 0x8, addend: 0x0, symName: __ZNSt3__113__rewrap_iterB8ne180100INS_16reverse_iteratorIPPKN5Catch8TestCaseEEES7_NS_18__unwrap_iter_implIS7_Lb0EEEEET_SA_T0_, symObjAddr: 0x85910, symBinAddr: 0x100086224, symSize: 0x74 }
  - { offset: 0xB92F5, size: 0x8, addend: 0x0, symName: __ZNSt3__1neB8ne180100IPPKN5Catch8TestCaseES5_EEbRKNS_16reverse_iteratorIT_EERKNS6_IT0_EE, symObjAddr: 0x85A78, symBinAddr: 0x10008638C, symSize: 0x48 }
  - { offset: 0xB939C, size: 0x8, addend: 0x0, symName: __ZNSt3__122__make_exception_guardB8ne180100INS_6vectorIPKN5Catch8TestCaseENS_9allocatorIS5_EEE16__destroy_vectorEEENS_28__exception_guard_exceptionsIT_EESB_, symObjAddr: 0x85FE8, symBinAddr: 0x1000868FC, symSize: 0x40 }
  - { offset: 0xB93D2, size: 0x8, addend: 0x0, symName: __ZNSt3__130__uninitialized_allocator_copyB8ne180100INS_9allocatorIPKN5Catch8TestCaseEEEPS5_S7_S7_EET2_RT_T0_T1_S8_, symObjAddr: 0x86200, symBinAddr: 0x100086B14, symSize: 0x80 }
  - { offset: 0xB9470, size: 0x8, addend: 0x0, symName: __ZNSt3__114__unwrap_rangeB8ne180100IPPKN5Catch8TestCaseES5_EEDaT_T0_, symObjAddr: 0x86280, symBinAddr: 0x100086B94, symSize: 0x3C }
  - { offset: 0xB94BE, size: 0x8, addend: 0x0, symName: __ZNSt3__135__uninitialized_allocator_copy_implB8ne180100INS_9allocatorIPKN5Catch8TestCaseEEES5_S5_S5_LPv0EEEPT2_RT_PT0_SD_S9_, symObjAddr: 0x862BC, symBinAddr: 0x100086BD0, symSize: 0x38 }
  - { offset: 0xB9541, size: 0x8, addend: 0x0, symName: __ZNSt3__113__unwrap_iterB8ne180100IPPKN5Catch8TestCaseENS_18__unwrap_iter_implIS5_Lb1EEELi0EEEDTclsrT0_8__unwrapclsr3stdE7declvalIT_EEEES9_, symObjAddr: 0x862F4, symBinAddr: 0x100086C08, symSize: 0x24 }
  - { offset: 0xB9588, size: 0x8, addend: 0x0, symName: __ZNSt3__113__rewrap_iterB8ne180100IPPKN5Catch8TestCaseES5_NS_18__unwrap_iter_implIS5_Lb1EEEEET_S8_T0_, symObjAddr: 0x86318, symBinAddr: 0x100086C2C, symSize: 0x3C }
  - { offset: 0xB9739, size: 0x8, addend: 0x0, symName: __ZNSt3__14copyB8ne180100IPPKN5Catch8TestCaseES5_EET0_T_S7_S6_, symObjAddr: 0x8641C, symBinAddr: 0x100086D30, symSize: 0x40 }
  - { offset: 0xB9797, size: 0x8, addend: 0x0, symName: __ZNSt3__16__copyB8ne180100INS_17_ClassicAlgPolicyEPPKN5Catch8TestCaseES6_S6_EENS_4pairIT0_T2_EES8_T1_S9_, symObjAddr: 0x8645C, symBinAddr: 0x100086D70, symSize: 0x44 }
  - { offset: 0xB9807, size: 0x8, addend: 0x0, symName: __ZNSt3__123__dispatch_copy_or_moveB8ne180100INS_17_ClassicAlgPolicyENS_11__copy_loopIS1_EENS_14__copy_trivialEPPKN5Catch8TestCaseES9_S9_EENS_4pairIT2_T4_EESB_T3_SC_, symObjAddr: 0x864A0, symBinAddr: 0x100086DB4, symSize: 0x44 }
  - { offset: 0xB9889, size: 0x8, addend: 0x0, symName: __ZNSt3__121__unwrap_and_dispatchB8ne180100INS_10__overloadINS_11__copy_loopINS_17_ClassicAlgPolicyEEENS_14__copy_trivialEEEPPKN5Catch8TestCaseESB_SB_Li0EEENS_4pairIT0_T2_EESD_T1_SE_, symObjAddr: 0x864E4, symBinAddr: 0x100086DF8, symSize: 0xB4 }
  - { offset: 0xB991D, size: 0x8, addend: 0x0, symName: __ZNSt3__19make_pairB8ne180100IPPKN5Catch8TestCaseES5_EENS_4pairINS_18__unwrap_ref_decayIT_E4typeENS7_IT0_E4typeEEEOS8_OSB_, symObjAddr: 0x865E0, symBinAddr: 0x100086EF4, symSize: 0x38 }
  - { offset: 0xB996D, size: 0x8, addend: 0x0, symName: __ZNSt3__114__rewrap_rangeB8ne180100IPPKN5Catch8TestCaseES5_S5_EET0_S6_T1_, symObjAddr: 0x86618, symBinAddr: 0x100086F2C, symSize: 0x2C }
  - { offset: 0xB99C5, size: 0x8, addend: 0x0, symName: __ZNSt3__119__copy_trivial_implB8ne180100IPKN5Catch8TestCaseES4_EENS_4pairIPT_PT0_EES7_S7_S9_, symObjAddr: 0x86644, symBinAddr: 0x100086F58, symSize: 0x80 }
  - { offset: 0xB9A32, size: 0x8, addend: 0x0, symName: __ZNSt3__119__constexpr_memmoveB8ne180100IPKN5Catch8TestCaseES4_Li0EEEPT_S6_PT0_NS_15__element_countE, symObjAddr: 0x866C4, symBinAddr: 0x100086FD8, symSize: 0x64 }
  - { offset: 0xB9AA5, size: 0x8, addend: 0x0, symName: __ZNSt3__19make_pairB8ne180100IRPPKN5Catch8TestCaseES5_EENS_4pairINS_18__unwrap_ref_decayIT_E4typeENS8_IT0_E4typeEEEOS9_OSC_, symObjAddr: 0x86728, symBinAddr: 0x10008703C, symSize: 0x38 }
  - { offset: 0xB9B4D, size: 0x8, addend: 0x0, symName: __ZNSt3__122__make_exception_guardB8ne180100INS_6vectorIN5Catch8TestSpec6FilterENS_9allocatorIS4_EEE16__destroy_vectorEEENS_28__exception_guard_exceptionsIT_EESA_, symObjAddr: 0x87100, symBinAddr: 0x100087A14, symSize: 0x40 }
  - { offset: 0xB9B84, size: 0x8, addend: 0x0, symName: __ZNSt3__119__allocate_at_leastB8ne180100INS_9allocatorIN5Catch8TestSpec6FilterEEEEENS_19__allocation_resultINS_16allocator_traitsIT_E7pointerEEERS8_m, symObjAddr: 0x8739C, symBinAddr: 0x100087CB0, symSize: 0x40 }
  - { offset: 0xB9BC9, size: 0x8, addend: 0x0, symName: __ZNSt3__130__uninitialized_allocator_copyB8ne180100INS_9allocatorIN5Catch8TestSpec6FilterEEEPS4_S6_S6_EET2_RT_T0_T1_S7_, symObjAddr: 0x874B0, symBinAddr: 0x100087DC4, symSize: 0x80 }
  - { offset: 0xB9C67, size: 0x8, addend: 0x0, symName: __ZNSt3__114__unwrap_rangeB8ne180100IPN5Catch8TestSpec6FilterES4_EEDaT_T0_, symObjAddr: 0x875A8, symBinAddr: 0x100087EBC, symSize: 0x3C }
  - { offset: 0xB9CB5, size: 0x8, addend: 0x0, symName: __ZNSt3__135__uninitialized_allocator_copy_implB8ne180100INS_9allocatorIN5Catch8TestSpec6FilterEEEPS4_S6_S6_EET2_RT_T0_T1_S7_, symObjAddr: 0x875E4, symBinAddr: 0x100087EF8, symSize: 0xF4 }
  - { offset: 0xB9D54, size: 0x8, addend: 0x0, symName: __ZNSt3__113__unwrap_iterB8ne180100IPN5Catch8TestSpec6FilterENS_18__unwrap_iter_implIS4_Lb1EEELi0EEEDTclsrT0_8__unwrapclsr3stdE7declvalIT_EEEES8_, symObjAddr: 0x876D8, symBinAddr: 0x100087FEC, symSize: 0x24 }
  - { offset: 0xB9D9B, size: 0x8, addend: 0x0, symName: __ZNSt3__113__rewrap_iterB8ne180100IPN5Catch8TestSpec6FilterES4_NS_18__unwrap_iter_implIS4_Lb1EEEEET_S7_T0_, symObjAddr: 0x876FC, symBinAddr: 0x100088010, symSize: 0x3C }
  - { offset: 0xB9F00, size: 0x8, addend: 0x0, symName: __ZNSt3__122__make_exception_guardB8ne180100INS_29_AllocatorDestroyRangeReverseINS_9allocatorIN5Catch8TestSpec6FilterEEEPS5_EEEENS_28__exception_guard_exceptionsIT_EESA_, symObjAddr: 0x87800, symBinAddr: 0x100088114, symSize: 0x4C }
  - { offset: 0xB9F38, size: 0x8, addend: 0x0, symName: __ZNSt3__114__construct_atB8ne180100IN5Catch8TestSpec6FilterEJRS3_EPS3_EEPT_S7_DpOT0_, symObjAddr: 0x879A4, symBinAddr: 0x1000882B8, symSize: 0x2C }
  - { offset: 0xB9F91, size: 0x8, addend: 0x0, symName: __ZNSt3__112construct_atB8ne180100IN5Catch8TestSpec6FilterEJRS3_EPS3_EEPT_S7_DpOT0_, symObjAddr: 0x879D0, symBinAddr: 0x1000882E4, symSize: 0x34 }
  - { offset: 0xB9FEA, size: 0x8, addend: 0x0, symName: __ZNSt3__122__make_exception_guardB8ne180100INS_6vectorINS_10shared_ptrIN5Catch8TestSpec7PatternEEENS_9allocatorIS6_EEE16__destroy_vectorEEENS_28__exception_guard_exceptionsIT_EESC_, symObjAddr: 0x87D1C, symBinAddr: 0x100088630, symSize: 0x40 }
  - { offset: 0xBA021, size: 0x8, addend: 0x0, symName: __ZNSt3__119__allocate_at_leastB8ne180100INS_9allocatorINS_10shared_ptrIN5Catch8TestSpec7PatternEEEEEEENS_19__allocation_resultINS_16allocator_traitsIT_E7pointerEEERSA_m, symObjAddr: 0x88004, symBinAddr: 0x100088918, symSize: 0x40 }
  - { offset: 0xBA066, size: 0x8, addend: 0x0, symName: __ZNSt3__130__uninitialized_allocator_copyB8ne180100INS_9allocatorINS_10shared_ptrIN5Catch8TestSpec7PatternEEEEEPS6_S8_S8_EET2_RT_T0_T1_S9_, symObjAddr: 0x881D4, symBinAddr: 0x100088AE8, symSize: 0x80 }
  - { offset: 0xBA104, size: 0x8, addend: 0x0, symName: __ZNSt3__114__unwrap_rangeB8ne180100IPNS_10shared_ptrIN5Catch8TestSpec7PatternEEES6_EEDaT_T0_, symObjAddr: 0x882C4, symBinAddr: 0x100088BD8, symSize: 0x3C }
  - { offset: 0xBA152, size: 0x8, addend: 0x0, symName: __ZNSt3__135__uninitialized_allocator_copy_implB8ne180100INS_9allocatorINS_10shared_ptrIN5Catch8TestSpec7PatternEEEEEPS6_S8_S8_EET2_RT_T0_T1_S9_, symObjAddr: 0x88300, symBinAddr: 0x100088C14, symSize: 0xF4 }
  - { offset: 0xBA1F1, size: 0x8, addend: 0x0, symName: __ZNSt3__113__unwrap_iterB8ne180100IPNS_10shared_ptrIN5Catch8TestSpec7PatternEEENS_18__unwrap_iter_implIS6_Lb1EEELi0EEEDTclsrT0_8__unwrapclsr3stdE7declvalIT_EEEESA_, symObjAddr: 0x883F4, symBinAddr: 0x100088D08, symSize: 0x24 }
  - { offset: 0xBA238, size: 0x8, addend: 0x0, symName: __ZNSt3__113__rewrap_iterB8ne180100IPNS_10shared_ptrIN5Catch8TestSpec7PatternEEES6_NS_18__unwrap_iter_implIS6_Lb1EEEEET_S9_T0_, symObjAddr: 0x88418, symBinAddr: 0x100088D2C, symSize: 0x3C }
  - { offset: 0xBA39D, size: 0x8, addend: 0x0, symName: __ZNSt3__122__make_exception_guardB8ne180100INS_29_AllocatorDestroyRangeReverseINS_9allocatorINS_10shared_ptrIN5Catch8TestSpec7PatternEEEEEPS7_EEEENS_28__exception_guard_exceptionsIT_EESC_, symObjAddr: 0x8851C, symBinAddr: 0x100088E30, symSize: 0x4C }
  - { offset: 0xBA3D5, size: 0x8, addend: 0x0, symName: __ZNSt3__112__to_addressB8ne180100INS_10shared_ptrIN5Catch8TestSpec7PatternEEEEEPT_S7_, symObjAddr: 0x885DC, symBinAddr: 0x100088EF0, symSize: 0x14 }
  - { offset: 0xBA40C, size: 0x8, addend: 0x0, symName: __ZNSt3__114__construct_atB8ne180100INS_10shared_ptrIN5Catch8TestSpec7PatternEEEJRS5_EPS5_EEPT_S9_DpOT0_, symObjAddr: 0x886D4, symBinAddr: 0x100088FE8, symSize: 0x2C }
  - { offset: 0xBA465, size: 0x8, addend: 0x0, symName: __ZNSt3__112construct_atB8ne180100INS_10shared_ptrIN5Catch8TestSpec7PatternEEEJRS5_EPS5_EEPT_S9_DpOT0_, symObjAddr: 0x88700, symBinAddr: 0x100089014, symSize: 0x34 }
  - { offset: 0xBA4BD, size: 0x8, addend: 0x0, symName: __ZNSt3__119__allocator_destroyB8ne180100INS_9allocatorINS_10shared_ptrIN5Catch8TestSpec7PatternEEEEENS_16reverse_iteratorIPS6_EESA_EEvRT_T0_T1_, symObjAddr: 0x887EC, symBinAddr: 0x100089100, symSize: 0x70 }
  - { offset: 0xBA521, size: 0x8, addend: 0x0, symName: __ZNSt3__1neB8ne180100IPNS_10shared_ptrIN5Catch8TestSpec7PatternEEES6_EEbRKNS_16reverse_iteratorIT_EERKNS7_IT0_EE, symObjAddr: 0x88890, symBinAddr: 0x1000891A4, symSize: 0x48 }
  - { offset: 0xBA570, size: 0x8, addend: 0x0, symName: __ZNSt3__112__to_addressB8ne180100INS_16reverse_iteratorIPNS_10shared_ptrIN5Catch8TestSpec7PatternEEEEEvEEu7__decayIDTclsr19__to_address_helperIT_EE6__callclsr3stdE7declvalIRKS9_EEEEESB_, symObjAddr: 0x88900, symBinAddr: 0x100089214, symSize: 0x24 }
  - { offset: 0xBA5A8, size: 0x8, addend: 0x0, symName: __ZNSt3__112__destroy_atB8ne180100INS_10shared_ptrIN5Catch8TestSpec7PatternEEELi0EEEvPT_, symObjAddr: 0x8895C, symBinAddr: 0x100089270, symSize: 0x24 }
  - { offset: 0xBA60D, size: 0x8, addend: 0x0, symName: __ZNSt3__14prevB8ne180100IPNS_10shared_ptrIN5Catch8TestSpec7PatternEEELi0EEET_S7_NS_15iterator_traitsIS7_E15difference_typeE, symObjAddr: 0x889E4, symBinAddr: 0x1000892F8, symSize: 0x3C }
  - { offset: 0xBA65A, size: 0x8, addend: 0x0, symName: __ZNSt3__19__advanceB8ne180100IPNS_10shared_ptrIN5Catch8TestSpec7PatternEEEEEvRT_NS_15iterator_traitsIS7_E15difference_typeENS_26random_access_iterator_tagE, symObjAddr: 0x88A58, symBinAddr: 0x10008936C, symSize: 0x28 }
  - { offset: 0xBA6FE, size: 0x8, addend: 0x0, symName: __ZNSt3__119__allocator_destroyB8ne180100INS_9allocatorIN5Catch8TestSpec6FilterEEENS_16reverse_iteratorIPS4_EES8_EEvRT_T0_T1_, symObjAddr: 0x88EAC, symBinAddr: 0x1000897C0, symSize: 0x70 }
  - { offset: 0xBA762, size: 0x8, addend: 0x0, symName: __ZNSt3__1neB8ne180100IPN5Catch8TestSpec6FilterES4_EEbRKNS_16reverse_iteratorIT_EERKNS5_IT0_EE, symObjAddr: 0x88F50, symBinAddr: 0x100089864, symSize: 0x48 }
  - { offset: 0xBA7B1, size: 0x8, addend: 0x0, symName: __ZNSt3__112__to_addressB8ne180100INS_16reverse_iteratorIPN5Catch8TestSpec6FilterEEEvEEu7__decayIDTclsr19__to_address_helperIT_EE6__callclsr3stdE7declvalIRKS7_EEEEES9_, symObjAddr: 0x88F98, symBinAddr: 0x1000898AC, symSize: 0x24 }
  - { offset: 0xBA814, size: 0x8, addend: 0x0, symName: __ZNSt3__14prevB8ne180100IPN5Catch8TestSpec6FilterELi0EEET_S5_NS_15iterator_traitsIS5_E15difference_typeE, symObjAddr: 0x89058, symBinAddr: 0x10008996C, symSize: 0x3C }
  - { offset: 0xBA861, size: 0x8, addend: 0x0, symName: __ZNSt3__19__advanceB8ne180100IPN5Catch8TestSpec6FilterEEEvRT_NS_15iterator_traitsIS5_E15difference_typeENS_26random_access_iterator_tagE, symObjAddr: 0x890CC, symBinAddr: 0x1000899E0, symSize: 0x30 }
  - { offset: 0xBA906, size: 0x8, addend: 0x0, symName: __ZNSt3__114__construct_atB8ne180100ImJRKmEPmEEPT_S5_DpOT0_, symObjAddr: 0x894BC, symBinAddr: 0x100089DD0, symSize: 0x2C }
  - { offset: 0xBA95F, size: 0x8, addend: 0x0, symName: __ZNSt3__112construct_atB8ne180100ImJRKmEPmEEPT_S5_DpOT0_, symObjAddr: 0x894E8, symBinAddr: 0x100089DFC, symSize: 0x24 }
  - { offset: 0xBA9B8, size: 0x8, addend: 0x0, symName: __ZNSt3__119__allocate_at_leastB8ne180100INS_9allocatorImEEEENS_19__allocation_resultINS_16allocator_traitsIT_E7pointerEEERS5_m, symObjAddr: 0x89974, symBinAddr: 0x10008A288, symSize: 0x40 }
  - { offset: 0xBA9FD, size: 0x8, addend: 0x0, symName: __ZNSt3__142__uninitialized_allocator_move_if_noexceptB8ne180100INS_9allocatorImEENS_16reverse_iteratorIPmEES5_mvEET1_RT_T0_S9_S6_, symObjAddr: 0x89B28, symBinAddr: 0x10008A43C, symSize: 0x78 }
  - { offset: 0xBAA7B, size: 0x8, addend: 0x0, symName: __ZNSt3__14swapB8ne180100IPmEENS_9enable_ifIXaasr21is_move_constructibleIT_EE5valuesr18is_move_assignableIS3_EE5valueEvE4typeERS3_S6_, symObjAddr: 0x89BEC, symBinAddr: 0x10008A500, symSize: 0x3C }
  - { offset: 0xBAAD0, size: 0x8, addend: 0x0, symName: __ZNSt3__14moveB8ne180100INS_16reverse_iteratorIPmEES3_EET0_T_S5_S4_, symObjAddr: 0x89C3C, symBinAddr: 0x10008A550, symSize: 0x78 }
  - { offset: 0xBAB2E, size: 0x8, addend: 0x0, symName: __ZNSt3__16__moveB8ne180100INS_17_ClassicAlgPolicyENS_16reverse_iteratorIPmEES4_S4_EENS_4pairIT0_T2_EES6_T1_S7_, symObjAddr: 0x89CB4, symBinAddr: 0x10008A5C8, symSize: 0x64 }
  - { offset: 0xBAB9E, size: 0x8, addend: 0x0, symName: __ZNSt3__123__dispatch_copy_or_moveB8ne180100INS_17_ClassicAlgPolicyENS_11__move_loopIS1_EENS_14__move_trivialENS_16reverse_iteratorIPmEES7_S7_EENS_4pairIT2_T4_EES9_T3_SA_, symObjAddr: 0x89D18, symBinAddr: 0x10008A62C, symSize: 0x64 }
  - { offset: 0xBAC20, size: 0x8, addend: 0x0, symName: __ZNSt3__121__unwrap_and_dispatchB8ne180100INS_10__overloadINS_11__move_loopINS_17_ClassicAlgPolicyEEENS_14__move_trivialEEENS_16reverse_iteratorIPmEES9_S9_Li0EEENS_4pairIT0_T2_EESB_T1_SC_, symObjAddr: 0x89D7C, symBinAddr: 0x10008A690, symSize: 0x12C }
  - { offset: 0xBACB7, size: 0x8, addend: 0x0, symName: __ZNSt3__114__unwrap_rangeB8ne180100INS_16reverse_iteratorIPmEES3_EEDaT_T0_, symObjAddr: 0x89EA8, symBinAddr: 0x10008A7BC, symSize: 0x4C }
  - { offset: 0xBADE1, size: 0x8, addend: 0x0, symName: __ZNSt3__113__unwrap_iterB8ne180100INS_16reverse_iteratorIPmEENS_18__unwrap_iter_implIS3_Lb0EEELi0EEEDTclsrT0_8__unwrapclsr3stdE7declvalIT_EEEES7_, symObjAddr: 0x89F94, symBinAddr: 0x10008A8A8, symSize: 0x44 }
  - { offset: 0xBAE27, size: 0x8, addend: 0x0, symName: __ZNSt3__19make_pairB8ne180100INS_16reverse_iteratorIPmEES3_EENS_4pairINS_18__unwrap_ref_decayIT_E4typeENS5_IT0_E4typeEEEOS6_OS9_, symObjAddr: 0x89FD8, symBinAddr: 0x10008A8EC, symSize: 0x38 }
  - { offset: 0xBAE77, size: 0x8, addend: 0x0, symName: __ZNSt3__114__rewrap_rangeB8ne180100INS_16reverse_iteratorIPmEES3_S3_EET0_S4_T1_, symObjAddr: 0x8A010, symBinAddr: 0x10008A924, symSize: 0x5C }
  - { offset: 0xBAECF, size: 0x8, addend: 0x0, symName: __ZNSt3__113__rewrap_iterB8ne180100INS_16reverse_iteratorIPmEES3_NS_18__unwrap_iter_implIS3_Lb0EEEEET_S6_T0_, symObjAddr: 0x8A06C, symBinAddr: 0x10008A980, symSize: 0x74 }
  - { offset: 0xBAF7A, size: 0x8, addend: 0x0, symName: __ZNSt3__1neB8ne180100IPmS1_EEbRKNS_16reverse_iteratorIT_EERKNS2_IT0_EE, symObjAddr: 0x8A1D4, symBinAddr: 0x10008AAE8, symSize: 0x48 }
  - { offset: 0xBB021, size: 0x8, addend: 0x0, symName: __ZNSt3__114__construct_atB8ne180100IN5Catch8TestSpec6FilterEJRKS3_EPS3_EEPT_S8_DpOT0_, symObjAddr: 0x8A6F8, symBinAddr: 0x10008B00C, symSize: 0x2C }
  - { offset: 0xBB07A, size: 0x8, addend: 0x0, symName: __ZNSt3__112construct_atB8ne180100IN5Catch8TestSpec6FilterEJRKS3_EPS3_EEPT_S8_DpOT0_, symObjAddr: 0x8A724, symBinAddr: 0x10008B038, symSize: 0x34 }
  - { offset: 0xBB0D2, size: 0x8, addend: 0x0, symName: __ZNSt3__142__uninitialized_allocator_move_if_noexceptB8ne180100INS_9allocatorIN5Catch8TestSpec6FilterEEENS_16reverse_iteratorIPS4_EES8_S8_EET2_RT_T0_T1_S9_, symObjAddr: 0x8ABC4, symBinAddr: 0x10008B4D8, symSize: 0x124 }
  - { offset: 0xBB173, size: 0x8, addend: 0x0, symName: __ZNSt3__14swapB8ne180100IPN5Catch8TestSpec6FilterEEENS_9enable_ifIXaasr21is_move_constructibleIT_EE5valuesr18is_move_assignableIS6_EE5valueEvE4typeERS6_S9_, symObjAddr: 0x8ACE8, symBinAddr: 0x10008B5FC, symSize: 0x3C }
  - { offset: 0xBB1C8, size: 0x8, addend: 0x0, symName: __ZNSt3__122__make_exception_guardB8ne180100INS_29_AllocatorDestroyRangeReverseINS_9allocatorIN5Catch8TestSpec6FilterEEENS_16reverse_iteratorIPS5_EEEEEENS_28__exception_guard_exceptionsIT_EESC_, symObjAddr: 0x8AD24, symBinAddr: 0x10008B638, symSize: 0x4C }
  - { offset: 0xBB200, size: 0x8, addend: 0x0, symName: __ZNSt3__114__construct_atB8ne180100IN5Catch8TestSpec6FilterEJS3_EPS3_EEPT_S6_DpOT0_, symObjAddr: 0x8AEF0, symBinAddr: 0x10008B804, symSize: 0x2C }
  - { offset: 0xBB259, size: 0x8, addend: 0x0, symName: __ZNSt3__112construct_atB8ne180100IN5Catch8TestSpec6FilterEJS3_EPS3_EEPT_S6_DpOT0_, symObjAddr: 0x8AF1C, symBinAddr: 0x10008B830, symSize: 0x34 }
  - { offset: 0xBB2B1, size: 0x8, addend: 0x0, symName: __ZNSt3__119__allocator_destroyB8ne180100INS_9allocatorIN5Catch8TestSpec6FilterEEENS_16reverse_iteratorINS6_IPS4_EEEES9_EEvRT_T0_T1_, symObjAddr: 0x8B1B4, symBinAddr: 0x10008BAC8, symSize: 0x70 }
  - { offset: 0xBB317, size: 0x8, addend: 0x0, symName: __ZNSt3__1neB8ne180100INS_16reverse_iteratorIPN5Catch8TestSpec6FilterEEES6_EEbRKNS1_IT_EERKNS1_IT0_EE, symObjAddr: 0x8B260, symBinAddr: 0x10008BB74, symSize: 0x60 }
  - { offset: 0xBB366, size: 0x8, addend: 0x0, symName: __ZNSt3__112__to_addressB8ne180100INS_16reverse_iteratorINS1_IPN5Catch8TestSpec6FilterEEEEEvEEu7__decayIDTclsr19__to_address_helperIT_EE6__callclsr3stdE7declvalIRKS8_EEEEESA_, symObjAddr: 0x8B2C0, symBinAddr: 0x10008BBD4, symSize: 0x24 }
  - { offset: 0xBB3C9, size: 0x8, addend: 0x0, symName: __ZNSt3__14prevB8ne180100INS_16reverse_iteratorIPN5Catch8TestSpec6FilterEEELi0EEET_S7_NS_15iterator_traitsIS7_E15difference_typeE, symObjAddr: 0x8B3BC, symBinAddr: 0x10008BCD0, symSize: 0x4C }
  - { offset: 0xBB416, size: 0x8, addend: 0x0, symName: __ZNSt3__19__advanceB8ne180100INS_16reverse_iteratorIPN5Catch8TestSpec6FilterEEEEEvRT_NS_15iterator_traitsIS7_E15difference_typeENS_26random_access_iterator_tagE, symObjAddr: 0x8B440, symBinAddr: 0x10008BD54, symSize: 0x2C }
  - { offset: 0xBB463, size: 0x8, addend: 0x0, symName: __ZNSt3__114__construct_atB8ne180100INS_10shared_ptrIN5Catch8TestSpec7PatternEEEJRKS5_EPS5_EEPT_SA_DpOT0_, symObjAddr: 0x8BB2C, symBinAddr: 0x10008C440, symSize: 0x2C }
  - { offset: 0xBB4BC, size: 0x8, addend: 0x0, symName: __ZNSt3__112construct_atB8ne180100INS_10shared_ptrIN5Catch8TestSpec7PatternEEEJRKS5_EPS5_EEPT_SA_DpOT0_, symObjAddr: 0x8BB58, symBinAddr: 0x10008C46C, symSize: 0x34 }
  - { offset: 0xBB514, size: 0x8, addend: 0x0, symName: __ZNSt3__142__uninitialized_allocator_move_if_noexceptB8ne180100INS_9allocatorINS_10shared_ptrIN5Catch8TestSpec7PatternEEEEENS_16reverse_iteratorIPS6_EESA_SA_EET2_RT_T0_T1_SB_, symObjAddr: 0x8BFEC, symBinAddr: 0x10008C900, symSize: 0x124 }
  - { offset: 0xBB5B5, size: 0x8, addend: 0x0, symName: __ZNSt3__14swapB8ne180100IPNS_10shared_ptrIN5Catch8TestSpec7PatternEEEEENS_9enable_ifIXaasr21is_move_constructibleIT_EE5valuesr18is_move_assignableIS8_EE5valueEvE4typeERS8_SB_, symObjAddr: 0x8C110, symBinAddr: 0x10008CA24, symSize: 0x3C }
  - { offset: 0xBB60A, size: 0x8, addend: 0x0, symName: __ZNSt3__122__make_exception_guardB8ne180100INS_29_AllocatorDestroyRangeReverseINS_9allocatorINS_10shared_ptrIN5Catch8TestSpec7PatternEEEEENS_16reverse_iteratorIPS7_EEEEEENS_28__exception_guard_exceptionsIT_EESE_, symObjAddr: 0x8C14C, symBinAddr: 0x10008CA60, symSize: 0x4C }
  - { offset: 0xBB642, size: 0x8, addend: 0x0, symName: __ZNSt3__114__construct_atB8ne180100INS_10shared_ptrIN5Catch8TestSpec7PatternEEEJS5_EPS5_EEPT_S8_DpOT0_, symObjAddr: 0x8C318, symBinAddr: 0x10008CC2C, symSize: 0x2C }
  - { offset: 0xBB69B, size: 0x8, addend: 0x0, symName: __ZNSt3__112construct_atB8ne180100INS_10shared_ptrIN5Catch8TestSpec7PatternEEEJS5_EPS5_EEPT_S8_DpOT0_, symObjAddr: 0x8C344, symBinAddr: 0x10008CC58, symSize: 0x34 }
  - { offset: 0xBB6F3, size: 0x8, addend: 0x0, symName: __ZNSt3__119__allocator_destroyB8ne180100INS_9allocatorINS_10shared_ptrIN5Catch8TestSpec7PatternEEEEENS_16reverse_iteratorINS8_IPS6_EEEESB_EEvRT_T0_T1_, symObjAddr: 0x8C4F0, symBinAddr: 0x10008CE04, symSize: 0x70 }
  - { offset: 0xBB759, size: 0x8, addend: 0x0, symName: __ZNSt3__1neB8ne180100INS_16reverse_iteratorIPNS_10shared_ptrIN5Catch8TestSpec7PatternEEEEES8_EEbRKNS1_IT_EERKNS1_IT0_EE, symObjAddr: 0x8C59C, symBinAddr: 0x10008CEB0, symSize: 0x60 }
  - { offset: 0xBB7A8, size: 0x8, addend: 0x0, symName: __ZNSt3__112__to_addressB8ne180100INS_16reverse_iteratorINS1_IPNS_10shared_ptrIN5Catch8TestSpec7PatternEEEEEEEvEEu7__decayIDTclsr19__to_address_helperIT_EE6__callclsr3stdE7declvalIRKSA_EEEEESC_, symObjAddr: 0x8C5FC, symBinAddr: 0x10008CF10, symSize: 0x24 }
  - { offset: 0xBB80B, size: 0x8, addend: 0x0, symName: __ZNSt3__14prevB8ne180100INS_16reverse_iteratorIPNS_10shared_ptrIN5Catch8TestSpec7PatternEEEEELi0EEET_S9_NS_15iterator_traitsIS9_E15difference_typeE, symObjAddr: 0x8C6F8, symBinAddr: 0x10008D00C, symSize: 0x4C }
  - { offset: 0xBB858, size: 0x8, addend: 0x0, symName: __ZNSt3__19__advanceB8ne180100INS_16reverse_iteratorIPNS_10shared_ptrIN5Catch8TestSpec7PatternEEEEEEEvRT_NS_15iterator_traitsIS9_E15difference_typeENS_26random_access_iterator_tagE, symObjAddr: 0x8C77C, symBinAddr: 0x10008D090, symSize: 0x2C }
  - { offset: 0xBB8A5, size: 0x8, addend: 0x0, symName: __ZNSt3__1miB8ne180100IPKcPcEEDTmicldtfp_4baseEcldtfp0_4baseEERKNS_11__wrap_iterIT_EERKNS5_IT0_EE, symObjAddr: 0x8CA10, symBinAddr: 0x10008D324, symSize: 0x40 }
  - { offset: 0xBB964, size: 0x8, addend: 0x0, symName: __ZNSt3__1eqB8ne180100IPKcEEbRKNS_11__wrap_iterIT_EES7_, symObjAddr: 0x8CB84, symBinAddr: 0x10008D498, symSize: 0x48 }
  - { offset: 0xBB9E0, size: 0x8, addend: 0x0, symName: __ZNSt3__1eqB8ne180100IPKwEEbRKNS_11__wrap_iterIT_EES7_, symObjAddr: 0x8CE44, symBinAddr: 0x10008D758, symSize: 0x48 }
  - { offset: 0xBBA26, size: 0x8, addend: 0x0, symName: __ZNSt3__118__constexpr_wcslenB8ne180100EPKw, symObjAddr: 0x8D0C8, symBinAddr: 0x10008D9DC, symSize: 0x24 }
  - { offset: 0xBBA54, size: 0x8, addend: 0x0, symName: __ZNSt3__1lsB8ne180100INS_11char_traitsIcEEEERNS_13basic_ostreamIcT_EES6_RKNS_8__iom_t4IcEE, symObjAddr: 0x8D104, symBinAddr: 0x10008DA18, symSize: 0x40 }
  - { offset: 0xBBA99, size: 0x8, addend: 0x0, symName: __ZNSt3__19uppercaseB8ne180100ERNS_8ios_baseE, symObjAddr: 0x8D144, symBinAddr: 0x10008DA58, symSize: 0x2C }
  - { offset: 0xBBAC8, size: 0x8, addend: 0x0, symName: __ZNSt3__19use_facetB8ne180100INS_5ctypeIcEEEERKT_RKNS_6localeE, symObjAddr: 0x8D2BC, symBinAddr: 0x10008DBD0, symSize: 0x2C }
  - { offset: 0xBBAFF, size: 0x8, addend: 0x0, symName: __ZNSt3__1eqB8ne180100IPKN5Catch11MessageInfoEPS2_EEbRKNS_11__wrap_iterIT_EERKNS6_IT0_EE, symObjAddr: 0x8DABC, symBinAddr: 0x10008E3D0, symSize: 0x48 }
  - { offset: 0xBBB4E, size: 0x8, addend: 0x0, symName: __ZNSt3__18distanceB8ne180100INS_11__wrap_iterIPKN5Catch11MessageInfoEEEEENS_15iterator_traitsIT_E15difference_typeES8_S8_, symObjAddr: 0x8DB30, symBinAddr: 0x10008E444, symSize: 0x3C }
  - { offset: 0xBBB94, size: 0x8, addend: 0x0, symName: __ZNSt3__110__distanceB8ne180100INS_11__wrap_iterIPKN5Catch11MessageInfoEEEEENS_15iterator_traitsIT_E15difference_typeES8_S8_NS_26random_access_iterator_tagE, symObjAddr: 0x8DB94, symBinAddr: 0x10008E4A8, symSize: 0x30 }
  - { offset: 0xBBBE5, size: 0x8, addend: 0x0, symName: __ZNSt3__112__to_addressB8ne180100IKN5Catch11MessageInfoEEEPT_S5_, symObjAddr: 0x8DBC4, symBinAddr: 0x10008E4D8, symSize: 0x14 }
  - { offset: 0xBBC1C, size: 0x8, addend: 0x0, symName: __ZNSt3__1neB8ne180100IPKN5Catch11MessageInfoEPS2_EEbRKNS_11__wrap_iterIT_EERKNS6_IT0_EE, symObjAddr: 0x8DBD8, symBinAddr: 0x10008E4EC, symSize: 0x34 }
  - { offset: 0xBBC6B, size: 0x8, addend: 0x0, symName: __ZNSt3__112__to_addressB8ne180100IN5Catch11SectionInfoEEEPT_S4_, symObjAddr: 0x8E088, symBinAddr: 0x10008E99C, symSize: 0x14 }
  - { offset: 0xBBCA2, size: 0x8, addend: 0x0, symName: __ZNSt3__112__destroy_atB8ne180100IN5Catch11SectionInfoELi0EEEvPT_, symObjAddr: 0x8E09C, symBinAddr: 0x10008E9B0, symSize: 0x24 }
  - { offset: 0xBBCDC, size: 0x8, addend: 0x0, symName: __ZNSt3__122__make_exception_guardB8ne180100INS_6vectorIN5Catch12_GLOBAL__N_110ColumnInfoENS_9allocatorIS4_EEE16__destroy_vectorEEENS_28__exception_guard_exceptionsIT_EESA_, symObjAddr: 0x8E624, symBinAddr: 0x10008EF38, symSize: 0x40 }
  - { offset: 0xBBD13, size: 0x8, addend: 0x0, symName: __ZNSt3__119__allocate_at_leastB8ne180100INS_9allocatorIN5Catch12_GLOBAL__N_110ColumnInfoEEEEENS_19__allocation_resultINS_16allocator_traitsIT_E7pointerEEERS8_m, symObjAddr: 0x8EA24, symBinAddr: 0x10008F338, symSize: 0x40 }
  - { offset: 0xBBD58, size: 0x8, addend: 0x0, symName: __ZNSt3__130__uninitialized_allocator_copyB8ne180100INS_9allocatorIN5Catch12_GLOBAL__N_110ColumnInfoEEEPKS4_S7_PS4_EET2_RT_T0_T1_S9_, symObjAddr: 0x8EC54, symBinAddr: 0x10008F568, symSize: 0x80 }
  - { offset: 0xBBDF6, size: 0x8, addend: 0x0, symName: __ZNSt3__114__unwrap_rangeB8ne180100IPKN5Catch12_GLOBAL__N_110ColumnInfoES5_EEDaT_T0_, symObjAddr: 0x8ED44, symBinAddr: 0x10008F658, symSize: 0x3C }
  - { offset: 0xBBE44, size: 0x8, addend: 0x0, symName: __ZNSt3__135__uninitialized_allocator_copy_implB8ne180100INS_9allocatorIN5Catch12_GLOBAL__N_110ColumnInfoEEEPKS4_S7_PS4_EET2_RT_T0_T1_S9_, symObjAddr: 0x8ED80, symBinAddr: 0x10008F694, symSize: 0xF4 }
  - { offset: 0xBBEE3, size: 0x8, addend: 0x0, symName: __ZNSt3__113__unwrap_iterB8ne180100IPN5Catch12_GLOBAL__N_110ColumnInfoENS_18__unwrap_iter_implIS4_Lb1EEELi0EEEDTclsrT0_8__unwrapclsr3stdE7declvalIT_EEEES8_, symObjAddr: 0x8EE74, symBinAddr: 0x10008F788, symSize: 0x24 }
  - { offset: 0xBBF2A, size: 0x8, addend: 0x0, symName: __ZNSt3__113__rewrap_iterB8ne180100IPN5Catch12_GLOBAL__N_110ColumnInfoES4_NS_18__unwrap_iter_implIS4_Lb1EEEEET_S7_T0_, symObjAddr: 0x8EE98, symBinAddr: 0x10008F7AC, symSize: 0x3C }
  - { offset: 0xBC08F, size: 0x8, addend: 0x0, symName: __ZNSt3__113__unwrap_iterB8ne180100IPKN5Catch12_GLOBAL__N_110ColumnInfoENS_18__unwrap_iter_implIS5_Lb1EEELi0EEEDTclsrT0_8__unwrapclsr3stdE7declvalIT_EEEES9_, symObjAddr: 0x8EF2C, symBinAddr: 0x10008F840, symSize: 0x24 }
  - { offset: 0xBC12E, size: 0x8, addend: 0x0, symName: __ZNSt3__112__to_addressB8ne180100IKN5Catch12_GLOBAL__N_110ColumnInfoEEEPT_S6_, symObjAddr: 0x8EFB0, symBinAddr: 0x10008F8C4, symSize: 0x14 }
  - { offset: 0xBC165, size: 0x8, addend: 0x0, symName: __ZNSt3__122__make_exception_guardB8ne180100INS_29_AllocatorDestroyRangeReverseINS_9allocatorIN5Catch12_GLOBAL__N_110ColumnInfoEEEPS5_EEEENS_28__exception_guard_exceptionsIT_EESA_, symObjAddr: 0x8EFF8, symBinAddr: 0x10008F90C, symSize: 0x4C }
  - { offset: 0xBC19D, size: 0x8, addend: 0x0, symName: __ZNSt3__112__to_addressB8ne180100IN5Catch12_GLOBAL__N_110ColumnInfoEEEPT_S5_, symObjAddr: 0x8F0B8, symBinAddr: 0x10008F9CC, symSize: 0x14 }
  - { offset: 0xBC1D4, size: 0x8, addend: 0x0, symName: __ZNSt3__114__construct_atB8ne180100IN5Catch12_GLOBAL__N_110ColumnInfoEJRKS3_EPS3_EEPT_S8_DpOT0_, symObjAddr: 0x8F1B0, symBinAddr: 0x10008FAC4, symSize: 0x2C }
  - { offset: 0xBC22D, size: 0x8, addend: 0x0, symName: __ZNSt3__112construct_atB8ne180100IN5Catch12_GLOBAL__N_110ColumnInfoEJRKS3_EPS3_EEPT_S8_DpOT0_, symObjAddr: 0x8F1DC, symBinAddr: 0x10008FAF0, symSize: 0x34 }
  - { offset: 0xBC285, size: 0x8, addend: 0x0, symName: __ZNSt3__119__allocator_destroyB8ne180100INS_9allocatorIN5Catch12_GLOBAL__N_110ColumnInfoEEENS_16reverse_iteratorIPS4_EES8_EEvRT_T0_T1_, symObjAddr: 0x8F33C, symBinAddr: 0x10008FC50, symSize: 0x70 }
  - { offset: 0xBC2E9, size: 0x8, addend: 0x0, symName: __ZNSt3__1neB8ne180100IPN5Catch12_GLOBAL__N_110ColumnInfoES4_EEbRKNS_16reverse_iteratorIT_EERKNS5_IT0_EE, symObjAddr: 0x8F3E0, symBinAddr: 0x10008FCF4, symSize: 0x48 }
  - { offset: 0xBC338, size: 0x8, addend: 0x0, symName: __ZNSt3__112__to_addressB8ne180100INS_16reverse_iteratorIPN5Catch12_GLOBAL__N_110ColumnInfoEEEvEEu7__decayIDTclsr19__to_address_helperIT_EE6__callclsr3stdE7declvalIRKS7_EEEEES9_, symObjAddr: 0x8F450, symBinAddr: 0x10008FD64, symSize: 0x24 }
  - { offset: 0xBC370, size: 0x8, addend: 0x0, symName: __ZNSt3__112__destroy_atB8ne180100IN5Catch12_GLOBAL__N_110ColumnInfoELi0EEEvPT_, symObjAddr: 0x8F4AC, symBinAddr: 0x10008FDC0, symSize: 0x24 }
  - { offset: 0xBC3D5, size: 0x8, addend: 0x0, symName: __ZNSt3__14prevB8ne180100IPN5Catch12_GLOBAL__N_110ColumnInfoELi0EEET_S5_NS_15iterator_traitsIS5_E15difference_typeE, symObjAddr: 0x8F534, symBinAddr: 0x10008FE48, symSize: 0x3C }
  - { offset: 0xBC422, size: 0x8, addend: 0x0, symName: __ZNSt3__19__advanceB8ne180100IPN5Catch12_GLOBAL__N_110ColumnInfoEEEvRT_NS_15iterator_traitsIS5_E15difference_typeENS_26random_access_iterator_tagE, symObjAddr: 0x8F5A8, symBinAddr: 0x10008FEBC, symSize: 0x28 }
  - { offset: 0xBC4C7, size: 0x8, addend: 0x0, symName: __ZNSt3__1eqB8ne180100IPN5Catch11SectionInfoEEEbRKNS_11__wrap_iterIT_EES8_, symObjAddr: 0x90778, symBinAddr: 0x10009108C, symSize: 0x48 }
  - { offset: 0xBC50D, size: 0x8, addend: 0x0, symName: __ZNSt3__112__to_addressB8ne180100IN5Catch13SummaryColumnEEEPT_S4_, symObjAddr: 0x90B94, symBinAddr: 0x1000914A8, symSize: 0x14 }
  - { offset: 0xBC544, size: 0x8, addend: 0x0, symName: __ZNSt3__114__construct_atB8ne180100IN5Catch13SummaryColumnEJS2_EPS2_EEPT_S5_DpOT0_, symObjAddr: 0x90C20, symBinAddr: 0x100091534, symSize: 0x2C }
  - { offset: 0xBC59D, size: 0x8, addend: 0x0, symName: __ZNSt3__112construct_atB8ne180100IN5Catch13SummaryColumnEJS2_EPS2_EEPT_S5_DpOT0_, symObjAddr: 0x90C4C, symBinAddr: 0x100091560, symSize: 0x34 }
  - { offset: 0xBC5F6, size: 0x8, addend: 0x0, symName: __ZNSt3__119__allocate_at_leastB8ne180100INS_9allocatorIN5Catch13SummaryColumnEEEEENS_19__allocation_resultINS_16allocator_traitsIT_E7pointerEEERS7_m, symObjAddr: 0x9127C, symBinAddr: 0x100091B90, symSize: 0x40 }
  - { offset: 0xBC63B, size: 0x8, addend: 0x0, symName: __ZNSt3__142__uninitialized_allocator_move_if_noexceptB8ne180100INS_9allocatorIN5Catch13SummaryColumnEEENS_16reverse_iteratorIPS3_EES7_S7_EET2_RT_T0_T1_S8_, symObjAddr: 0x91444, symBinAddr: 0x100091D58, symSize: 0x12C }
  - { offset: 0xBC6DC, size: 0x8, addend: 0x0, symName: __ZNSt3__14swapB8ne180100IPN5Catch13SummaryColumnEEENS_9enable_ifIXaasr21is_move_constructibleIT_EE5valuesr18is_move_assignableIS5_EE5valueEvE4typeERS5_S8_, symObjAddr: 0x915BC, symBinAddr: 0x100091ED0, symSize: 0x3C }
  - { offset: 0xBC731, size: 0x8, addend: 0x0, symName: __ZNSt3__122__make_exception_guardB8ne180100INS_29_AllocatorDestroyRangeReverseINS_9allocatorIN5Catch13SummaryColumnEEENS_16reverse_iteratorIPS4_EEEEEENS_28__exception_guard_exceptionsIT_EESB_, symObjAddr: 0x9160C, symBinAddr: 0x100091F20, symSize: 0x4C }
  - { offset: 0xBC769, size: 0x8, addend: 0x0, symName: __ZNSt3__1neB8ne180100IPN5Catch13SummaryColumnES3_EEbRKNS_16reverse_iteratorIT_EERKNS4_IT0_EE, symObjAddr: 0x9169C, symBinAddr: 0x100091FB0, symSize: 0x48 }
  - { offset: 0xBC7B8, size: 0x8, addend: 0x0, symName: __ZNSt3__112__to_addressB8ne180100INS_16reverse_iteratorIPN5Catch13SummaryColumnEEEvEEu7__decayIDTclsr19__to_address_helperIT_EE6__callclsr3stdE7declvalIRKS6_EEEEES8_, symObjAddr: 0x916E4, symBinAddr: 0x100091FF8, symSize: 0x24 }
  - { offset: 0xBC81B, size: 0x8, addend: 0x0, symName: __ZNSt3__14prevB8ne180100IPN5Catch13SummaryColumnELi0EEET_S4_NS_15iterator_traitsIS4_E15difference_typeE, symObjAddr: 0x91898, symBinAddr: 0x1000921AC, symSize: 0x3C }
  - { offset: 0xBC868, size: 0x8, addend: 0x0, symName: __ZNSt3__19__advanceB8ne180100IPN5Catch13SummaryColumnEEEvRT_NS_15iterator_traitsIS4_E15difference_typeENS_26random_access_iterator_tagE, symObjAddr: 0x9190C, symBinAddr: 0x100092220, symSize: 0x30 }
  - { offset: 0xBC8B4, size: 0x8, addend: 0x0, symName: __ZNSt3__119__allocator_destroyB8ne180100INS_9allocatorIN5Catch13SummaryColumnEEENS_16reverse_iteratorINS5_IPS3_EEEES8_EEvRT_T0_T1_, symObjAddr: 0x91A40, symBinAddr: 0x100092354, symSize: 0x70 }
  - { offset: 0xBC91A, size: 0x8, addend: 0x0, symName: __ZNSt3__1neB8ne180100INS_16reverse_iteratorIPN5Catch13SummaryColumnEEES5_EEbRKNS1_IT_EERKNS1_IT0_EE, symObjAddr: 0x91AEC, symBinAddr: 0x100092400, symSize: 0x60 }
  - { offset: 0xBC969, size: 0x8, addend: 0x0, symName: __ZNSt3__112__to_addressB8ne180100INS_16reverse_iteratorINS1_IPN5Catch13SummaryColumnEEEEEvEEu7__decayIDTclsr19__to_address_helperIT_EE6__callclsr3stdE7declvalIRKS7_EEEEES9_, symObjAddr: 0x91B74, symBinAddr: 0x100092488, symSize: 0x24 }
  - { offset: 0xBC9A1, size: 0x8, addend: 0x0, symName: __ZNSt3__112__destroy_atB8ne180100IN5Catch13SummaryColumnELi0EEEvPT_, symObjAddr: 0x91BEC, symBinAddr: 0x100092500, symSize: 0x24 }
  - { offset: 0xBCA06, size: 0x8, addend: 0x0, symName: __ZNSt3__14prevB8ne180100INS_16reverse_iteratorIPN5Catch13SummaryColumnEEELi0EEET_S6_NS_15iterator_traitsIS6_E15difference_typeE, symObjAddr: 0x91C94, symBinAddr: 0x1000925A8, symSize: 0x4C }
  - { offset: 0xBCA53, size: 0x8, addend: 0x0, symName: __ZNSt3__19__advanceB8ne180100INS_16reverse_iteratorIPN5Catch13SummaryColumnEEEEEvRT_NS_15iterator_traitsIS6_E15difference_typeENS_26random_access_iterator_tagE, symObjAddr: 0x91D18, symBinAddr: 0x10009262C, symSize: 0x2C }
  - { offset: 0xBCAA0, size: 0x8, addend: 0x0, symName: __ZNSt3__1eqB8ne180100IPKN5Catch13SummaryColumnEEEbRKNS_11__wrap_iterIT_EES9_, symObjAddr: 0x92330, symBinAddr: 0x100092C44, symSize: 0x48 }
  - { offset: 0xBCAE6, size: 0x8, addend: 0x0, symName: __ZNSt3__112__to_addressB8ne180100INS_10shared_ptrIN5Catch22CumulativeReporterBaseINS2_13JunitReporterEE11SectionNodeEEEEEPT_S9_, symObjAddr: 0x92870, symBinAddr: 0x100093184, symSize: 0x14 }
  - { offset: 0xBCB1D, size: 0x8, addend: 0x0, symName: __ZNSt3__112__destroy_atB8ne180100INS_10shared_ptrIN5Catch22CumulativeReporterBaseINS2_13JunitReporterEE11SectionNodeEEELi0EEEvPT_, symObjAddr: 0x92884, symBinAddr: 0x100093198, symSize: 0x24 }
  - { offset: 0xBCB57, size: 0x8, addend: 0x0, symName: __ZNSt3__112__to_addressB8ne180100INS_10shared_ptrIN5Catch22CumulativeReporterBaseINS2_13JunitReporterEE4NodeINS2_12TestRunStatsENS6_INS2_14TestGroupStatsENS6_INS2_13TestCaseStatsENS5_11SectionNodeEEEEEEEEEEEPT_SG_, symObjAddr: 0x92C84, symBinAddr: 0x100093598, symSize: 0x14 }
  - { offset: 0xBCB8E, size: 0x8, addend: 0x0, symName: __ZNSt3__112__destroy_atB8ne180100INS_10shared_ptrIN5Catch22CumulativeReporterBaseINS2_13JunitReporterEE4NodeINS2_12TestRunStatsENS6_INS2_14TestGroupStatsENS6_INS2_13TestCaseStatsENS5_11SectionNodeEEEEEEEEELi0EEEvPT_, symObjAddr: 0x92C98, symBinAddr: 0x1000935AC, symSize: 0x24 }
  - { offset: 0xBCBC8, size: 0x8, addend: 0x0, symName: __ZNSt3__112__to_addressB8ne180100INS_10shared_ptrIN5Catch22CumulativeReporterBaseINS2_13JunitReporterEE4NodeINS2_14TestGroupStatsENS6_INS2_13TestCaseStatsENS5_11SectionNodeEEEEEEEEEPT_SE_, symObjAddr: 0x930C4, symBinAddr: 0x1000939D8, symSize: 0x14 }
  - { offset: 0xBCBFF, size: 0x8, addend: 0x0, symName: __ZNSt3__112__destroy_atB8ne180100INS_10shared_ptrIN5Catch22CumulativeReporterBaseINS2_13JunitReporterEE4NodeINS2_14TestGroupStatsENS6_INS2_13TestCaseStatsENS5_11SectionNodeEEEEEEELi0EEEvPT_, symObjAddr: 0x930D8, symBinAddr: 0x1000939EC, symSize: 0x24 }
  - { offset: 0xBCC39, size: 0x8, addend: 0x0, symName: __ZNSt3__112__to_addressB8ne180100INS_10shared_ptrIN5Catch22CumulativeReporterBaseINS2_13JunitReporterEE4NodeINS2_13TestCaseStatsENS5_11SectionNodeEEEEEEEPT_SC_, symObjAddr: 0x93504, symBinAddr: 0x100093E18, symSize: 0x14 }
  - { offset: 0xBCC70, size: 0x8, addend: 0x0, symName: __ZNSt3__112__destroy_atB8ne180100INS_10shared_ptrIN5Catch22CumulativeReporterBaseINS2_13JunitReporterEE4NodeINS2_13TestCaseStatsENS5_11SectionNodeEEEEELi0EEEvPT_, symObjAddr: 0x93518, symBinAddr: 0x100093E2C, symSize: 0x24 }
  - { offset: 0xBCCAA, size: 0x8, addend: 0x0, symName: __ZNSt3__112__to_addressB8ne180100INS_6vectorINS_10shared_ptrIN5Catch22CumulativeReporterBaseINS3_13JunitReporterEE11SectionNodeEEENS_9allocatorIS8_EEEEEEPT_SD_, symObjAddr: 0x93944, symBinAddr: 0x100094258, symSize: 0x14 }
  - { offset: 0xBCCE1, size: 0x8, addend: 0x0, symName: __ZNSt3__112__destroy_atB8ne180100INS_6vectorINS_10shared_ptrIN5Catch22CumulativeReporterBaseINS3_13JunitReporterEE11SectionNodeEEENS_9allocatorIS8_EEEELi0EEEvPT_, symObjAddr: 0x93958, symBinAddr: 0x10009426C, symSize: 0x24 }
  - { offset: 0xBCD1B, size: 0x8, addend: 0x0, symName: __ZNSt3__112__to_addressB8ne180100IN5Catch14AssertionStatsEEEPT_S4_, symObjAddr: 0x93D08, symBinAddr: 0x10009461C, symSize: 0x14 }
  - { offset: 0xBCD52, size: 0x8, addend: 0x0, symName: __ZNSt3__112__destroy_atB8ne180100IN5Catch14AssertionStatsELi0EEEvPT_, symObjAddr: 0x93D1C, symBinAddr: 0x100094630, symSize: 0x2C }
  - { offset: 0xBCD8B, size: 0x8, addend: 0x0, symName: __ZNSt3__15fixedB8ne180100ERNS_8ios_baseE, symObjAddr: 0x93E24, symBinAddr: 0x100094738, symSize: 0x30 }
  - { offset: 0xBCDBA, size: 0x8, addend: 0x0, symName: __ZNSt3__112setprecisionB8ne180100Ei, symObjAddr: 0x93E8C, symBinAddr: 0x1000947A0, symSize: 0x2C }
  - { offset: 0xBCDE8, size: 0x8, addend: 0x0, symName: __ZNSt3__1lsB8ne180100IcNS_11char_traitsIcEEEERNS_13basic_ostreamIT_T0_EES7_RKNS_8__iom_t5E, symObjAddr: 0x93EB8, symBinAddr: 0x1000947CC, symSize: 0x40 }
  - { offset: 0xBCE37, size: 0x8, addend: 0x0, symName: __ZNSt3__1eqB8ne180100IPKNS_10shared_ptrIN5Catch22CumulativeReporterBaseINS2_13JunitReporterEE4NodeINS2_13TestCaseStatsENS5_11SectionNodeEEEEEEEbRKNS_11__wrap_iterIT_EESH_, symObjAddr: 0x93FFC, symBinAddr: 0x100094910, symSize: 0x48 }
  - { offset: 0xBCE7D, size: 0x8, addend: 0x0, symName: '__ZNSt3__17find_ifB8ne180100INS_11__wrap_iterIPKNS_12basic_stringIcNS_11char_traitsIcEENS_9allocatorIcEEEEEEZN5Catch12_GLOBAL__N_111fileNameTagERKNS_6vectorIS7_NS5_IS7_EEEEE3$_0EET_SJ_SJ_T0_', symObjAddr: 0x9405C, symBinAddr: 0x100094970, symSize: 0x74 }
  - { offset: 0xBCEDB, size: 0x8, addend: 0x0, symName: __ZNSt3__1eqB8ne180100IPKNS_10shared_ptrIN5Catch22CumulativeReporterBaseINS2_13JunitReporterEE11SectionNodeEEEEEbRKNS_11__wrap_iterIT_EESE_, symObjAddr: 0x941B0, symBinAddr: 0x100094AC4, symSize: 0x48 }
  - { offset: 0xBCF21, size: 0x8, addend: 0x0, symName: __ZNSt3__1eqB8ne180100IPKN5Catch14AssertionStatsEEEbRKNS_11__wrap_iterIT_EES9_, symObjAddr: 0x94294, symBinAddr: 0x100094BA8, symSize: 0x48 }
  - { offset: 0xBCF67, size: 0x8, addend: 0x0, symName: __ZNSt3__1eqB8ne180100IPKN5Catch11MessageInfoEEEbRKNS_11__wrap_iterIT_EES9_, symObjAddr: 0x94378, symBinAddr: 0x100094C8C, symSize: 0x48 }
  - { offset: 0xBCFAD, size: 0x8, addend: 0x0, symName: __ZNSt3__112__to_addressB8ne180100INS_10unique_ptrIN5Catch18IStreamingReporterENS_14default_deleteIS3_EEEEEEPT_S8_, symObjAddr: 0x94798, symBinAddr: 0x1000950AC, symSize: 0x14 }
  - { offset: 0xBCFE4, size: 0x8, addend: 0x0, symName: __ZNSt3__114__construct_atB8ne180100INS_10unique_ptrIN5Catch18IStreamingReporterENS_14default_deleteIS3_EEEEJS6_EPS6_EEPT_S9_DpOT0_, symObjAddr: 0x9481C, symBinAddr: 0x100095130, symSize: 0x2C }
  - { offset: 0xBD03D, size: 0x8, addend: 0x0, symName: __ZNSt3__112construct_atB8ne180100INS_10unique_ptrIN5Catch18IStreamingReporterENS_14default_deleteIS3_EEEEJS6_EPS6_EEPT_S9_DpOT0_, symObjAddr: 0x94848, symBinAddr: 0x10009515C, symSize: 0x34 }
  - { offset: 0xBD096, size: 0x8, addend: 0x0, symName: __ZNSt3__119__allocate_at_leastB8ne180100INS_9allocatorINS_10unique_ptrIN5Catch18IStreamingReporterENS_14default_deleteIS4_EEEEEEEENS_19__allocation_resultINS_16allocator_traitsIT_E7pointerEEERSB_m, symObjAddr: 0x94DE4, symBinAddr: 0x1000956F8, symSize: 0x40 }
  - { offset: 0xBD0DB, size: 0x8, addend: 0x0, symName: __ZNSt3__142__uninitialized_allocator_move_if_noexceptB8ne180100INS_9allocatorINS_10unique_ptrIN5Catch18IStreamingReporterENS_14default_deleteIS4_EEEEEENS_16reverse_iteratorIPS7_EESB_SB_EET2_RT_T0_T1_SC_, symObjAddr: 0x94FA8, symBinAddr: 0x1000958BC, symSize: 0x12C }
  - { offset: 0xBD17C, size: 0x8, addend: 0x0, symName: __ZNSt3__14swapB8ne180100IPNS_10unique_ptrIN5Catch18IStreamingReporterENS_14default_deleteIS3_EEEEEENS_9enable_ifIXaasr21is_move_constructibleIT_EE5valuesr18is_move_assignableIS9_EE5valueEvE4typeERS9_SC_, symObjAddr: 0x95120, symBinAddr: 0x100095A34, symSize: 0x3C }
  - { offset: 0xBD1D1, size: 0x8, addend: 0x0, symName: __ZNSt3__122__make_exception_guardB8ne180100INS_29_AllocatorDestroyRangeReverseINS_9allocatorINS_10unique_ptrIN5Catch18IStreamingReporterENS_14default_deleteIS5_EEEEEENS_16reverse_iteratorIPS8_EEEEEENS_28__exception_guard_exceptionsIT_EESF_, symObjAddr: 0x95170, symBinAddr: 0x100095A84, symSize: 0x4C }
  - { offset: 0xBD209, size: 0x8, addend: 0x0, symName: __ZNSt3__1neB8ne180100IPNS_10unique_ptrIN5Catch18IStreamingReporterENS_14default_deleteIS3_EEEES7_EEbRKNS_16reverse_iteratorIT_EERKNS8_IT0_EE, symObjAddr: 0x95200, symBinAddr: 0x100095B14, symSize: 0x48 }
  - { offset: 0xBD258, size: 0x8, addend: 0x0, symName: __ZNSt3__112__to_addressB8ne180100INS_16reverse_iteratorIPNS_10unique_ptrIN5Catch18IStreamingReporterENS_14default_deleteIS4_EEEEEEvEEu7__decayIDTclsr19__to_address_helperIT_EE6__callclsr3stdE7declvalIRKSA_EEEEESC_, symObjAddr: 0x95248, symBinAddr: 0x100095B5C, symSize: 0x24 }
  - { offset: 0xBD2BB, size: 0x8, addend: 0x0, symName: __ZNSt3__14prevB8ne180100IPNS_10unique_ptrIN5Catch18IStreamingReporterENS_14default_deleteIS3_EEEELi0EEET_S8_NS_15iterator_traitsIS8_E15difference_typeE, symObjAddr: 0x953FC, symBinAddr: 0x100095D10, symSize: 0x3C }
  - { offset: 0xBD308, size: 0x8, addend: 0x0, symName: __ZNSt3__19__advanceB8ne180100IPNS_10unique_ptrIN5Catch18IStreamingReporterENS_14default_deleteIS3_EEEEEEvRT_NS_15iterator_traitsIS8_E15difference_typeENS_26random_access_iterator_tagE, symObjAddr: 0x95470, symBinAddr: 0x100095D84, symSize: 0x28 }
  - { offset: 0xBD354, size: 0x8, addend: 0x0, symName: __ZNSt3__119__allocator_destroyB8ne180100INS_9allocatorINS_10unique_ptrIN5Catch18IStreamingReporterENS_14default_deleteIS4_EEEEEENS_16reverse_iteratorINS9_IPS7_EEEESC_EEvRT_T0_T1_, symObjAddr: 0x9559C, symBinAddr: 0x100095EB0, symSize: 0x70 }
  - { offset: 0xBD3BA, size: 0x8, addend: 0x0, symName: __ZNSt3__1neB8ne180100INS_16reverse_iteratorIPNS_10unique_ptrIN5Catch18IStreamingReporterENS_14default_deleteIS4_EEEEEES9_EEbRKNS1_IT_EERKNS1_IT0_EE, symObjAddr: 0x95648, symBinAddr: 0x100095F5C, symSize: 0x60 }
  - { offset: 0xBD409, size: 0x8, addend: 0x0, symName: __ZNSt3__112__to_addressB8ne180100INS_16reverse_iteratorINS1_IPNS_10unique_ptrIN5Catch18IStreamingReporterENS_14default_deleteIS4_EEEEEEEEvEEu7__decayIDTclsr19__to_address_helperIT_EE6__callclsr3stdE7declvalIRKSB_EEEEESD_, symObjAddr: 0x956D0, symBinAddr: 0x100095FE4, symSize: 0x24 }
  - { offset: 0xBD441, size: 0x8, addend: 0x0, symName: __ZNSt3__112__destroy_atB8ne180100INS_10unique_ptrIN5Catch18IStreamingReporterENS_14default_deleteIS3_EEEELi0EEEvPT_, symObjAddr: 0x95748, symBinAddr: 0x10009605C, symSize: 0x24 }
  - { offset: 0xBD4A6, size: 0x8, addend: 0x0, symName: __ZNSt3__14prevB8ne180100INS_16reverse_iteratorIPNS_10unique_ptrIN5Catch18IStreamingReporterENS_14default_deleteIS4_EEEEEELi0EEET_SA_NS_15iterator_traitsISA_E15difference_typeE, symObjAddr: 0x957F0, symBinAddr: 0x100096104, symSize: 0x4C }
  - { offset: 0xBD4F3, size: 0x8, addend: 0x0, symName: __ZNSt3__19__advanceB8ne180100INS_16reverse_iteratorIPNS_10unique_ptrIN5Catch18IStreamingReporterENS_14default_deleteIS4_EEEEEEEEvRT_NS_15iterator_traitsISA_E15difference_typeENS_26random_access_iterator_tagE, symObjAddr: 0x95874, symBinAddr: 0x100096188, symSize: 0x2C }
  - { offset: 0xBD540, size: 0x8, addend: 0x0, symName: __ZNSt3__1eqB8ne180100IPNS_10unique_ptrIN5Catch18IStreamingReporterENS_14default_deleteIS3_EEEEEEbRKNS_11__wrap_iterIT_EESC_, symObjAddr: 0x95C28, symBinAddr: 0x10009653C, symSize: 0x48 }
  - { offset: 0xBD586, size: 0x8, addend: 0x0, symName: __ZNSt3__119__allocate_at_leastB8ne180100INS_9allocatorIiEEEENS_19__allocation_resultINS_16allocator_traitsIT_E7pointerEEERS5_m, symObjAddr: 0x975B4, symBinAddr: 0x100097EC8, symSize: 0x40 }
  - { offset: 0xBD5CB, size: 0x8, addend: 0x0, symName: __ZNSt3__142__uninitialized_allocator_move_if_noexceptB8ne180100INS_9allocatorIiEENS_16reverse_iteratorIPiEES5_ivEET1_RT_T0_S9_S6_, symObjAddr: 0x9778C, symBinAddr: 0x1000980A0, symSize: 0x78 }
  - { offset: 0xBD649, size: 0x8, addend: 0x0, symName: __ZNSt3__14swapB8ne180100IPiEENS_9enable_ifIXaasr21is_move_constructibleIT_EE5valuesr18is_move_assignableIS3_EE5valueEvE4typeERS3_S6_, symObjAddr: 0x97850, symBinAddr: 0x100098164, symSize: 0x3C }
  - { offset: 0xBD69E, size: 0x8, addend: 0x0, symName: __ZNSt3__14moveB8ne180100INS_16reverse_iteratorIPiEES3_EET0_T_S5_S4_, symObjAddr: 0x978C8, symBinAddr: 0x1000981DC, symSize: 0x78 }
  - { offset: 0xBD6FC, size: 0x8, addend: 0x0, symName: __ZNSt3__16__moveB8ne180100INS_17_ClassicAlgPolicyENS_16reverse_iteratorIPiEES4_S4_EENS_4pairIT0_T2_EES6_T1_S7_, symObjAddr: 0x97940, symBinAddr: 0x100098254, symSize: 0x64 }
  - { offset: 0xBD76C, size: 0x8, addend: 0x0, symName: __ZNSt3__123__dispatch_copy_or_moveB8ne180100INS_17_ClassicAlgPolicyENS_11__move_loopIS1_EENS_14__move_trivialENS_16reverse_iteratorIPiEES7_S7_EENS_4pairIT2_T4_EES9_T3_SA_, symObjAddr: 0x979A4, symBinAddr: 0x1000982B8, symSize: 0x64 }
  - { offset: 0xBD7EE, size: 0x8, addend: 0x0, symName: __ZNSt3__121__unwrap_and_dispatchB8ne180100INS_10__overloadINS_11__move_loopINS_17_ClassicAlgPolicyEEENS_14__move_trivialEEENS_16reverse_iteratorIPiEES9_S9_Li0EEENS_4pairIT0_T2_EESB_T1_SC_, symObjAddr: 0x97A08, symBinAddr: 0x10009831C, symSize: 0x12C }
  - { offset: 0xBD885, size: 0x8, addend: 0x0, symName: __ZNSt3__114__unwrap_rangeB8ne180100INS_16reverse_iteratorIPiEES3_EEDaT_T0_, symObjAddr: 0x97B34, symBinAddr: 0x100098448, symSize: 0x4C }
  - { offset: 0xBD9AF, size: 0x8, addend: 0x0, symName: __ZNSt3__113__unwrap_iterB8ne180100INS_16reverse_iteratorIPiEENS_18__unwrap_iter_implIS3_Lb0EEELi0EEEDTclsrT0_8__unwrapclsr3stdE7declvalIT_EEEES7_, symObjAddr: 0x97C20, symBinAddr: 0x100098534, symSize: 0x44 }
  - { offset: 0xBD9F5, size: 0x8, addend: 0x0, symName: __ZNSt3__19make_pairB8ne180100INS_16reverse_iteratorIPiEES3_EENS_4pairINS_18__unwrap_ref_decayIT_E4typeENS5_IT0_E4typeEEEOS6_OS9_, symObjAddr: 0x97C64, symBinAddr: 0x100098578, symSize: 0x38 }
  - { offset: 0xBDA45, size: 0x8, addend: 0x0, symName: __ZNSt3__114__rewrap_rangeB8ne180100INS_16reverse_iteratorIPiEES3_S3_EET0_S4_T1_, symObjAddr: 0x97C9C, symBinAddr: 0x1000985B0, symSize: 0x5C }
  - { offset: 0xBDA9D, size: 0x8, addend: 0x0, symName: __ZNSt3__113__rewrap_iterB8ne180100INS_16reverse_iteratorIPiEES3_NS_18__unwrap_iter_implIS3_Lb0EEEEET_S6_T0_, symObjAddr: 0x97CF8, symBinAddr: 0x10009860C, symSize: 0x74 }
  - { offset: 0xBDB48, size: 0x8, addend: 0x0, symName: __ZNSt3__1neB8ne180100IPiS1_EEbRKNS_16reverse_iteratorIT_EERKNS2_IT0_EE, symObjAddr: 0x97E60, symBinAddr: 0x100098774, symSize: 0x48 }
  - { offset: 0xBDBEF, size: 0x8, addend: 0x0, symName: __ZNSt3__112__to_addressB8ne180100IiEEPT_S2_, symObjAddr: 0x98210, symBinAddr: 0x100098B24, symSize: 0x14 }
  - { offset: 0xBDC26, size: 0x8, addend: 0x0, symName: __ZNSt3__112__destroy_atB8ne180100IiLi0EEEvPT_, symObjAddr: 0x98224, symBinAddr: 0x100098B38, symSize: 0x10 }
  - { offset: 0xBDC60, size: 0x8, addend: 0x0, symName: __ZNSt3__114__construct_atB8ne180100IiJRKiEPiEEPT_S5_DpOT0_, symObjAddr: 0x98514, symBinAddr: 0x100098E28, symSize: 0x2C }
  - { offset: 0xBDCB9, size: 0x8, addend: 0x0, symName: __ZNSt3__112construct_atB8ne180100IiJRKiEPiEEPT_S5_DpOT0_, symObjAddr: 0x98540, symBinAddr: 0x100098E54, symSize: 0x24 }
  - { offset: 0xBDD12, size: 0x8, addend: 0x0, symName: __ZNSt3__14swapB8ne180100IPKN5Catch7IConfigEEENS_9enable_ifIXaasr21is_move_constructibleIT_EE5valuesr18is_move_assignableIS6_EE5valueEvE4typeERS6_S9_, symObjAddr: 0x98984, symBinAddr: 0x100099298, symSize: 0x3C }
  - { offset: 0xBDD67, size: 0x8, addend: 0x0, symName: __ZNSt3__17find_ifB8ne180100INS_11__wrap_iterIPNS_10shared_ptrIN5Catch16TestCaseTracking8ITrackerEEEEEZZNS3_10Generators16GeneratorTracker5closeEvENKUlvE_clEvEUlS6_E_EET_SD_SD_T0_, symObjAddr: 0x99080, symBinAddr: 0x100099994, symSize: 0xB8 }
  - { offset: 0xBDDC4, size: 0x8, addend: 0x0, symName: __ZNSt3__116__pad_and_outputB8ne180100IcNS_11char_traitsIcEEEENS_19ostreambuf_iteratorIT_T0_EES6_PKS4_S8_S8_RNS_8ios_baseES4_, symObjAddr: 0x99AF8, symBinAddr: 0x10009A40C, symSize: 0x240 }
  - { offset: 0xBDE94, size: 0x8, addend: 0x0, symName: __ZNSt3__110to_addressB8ne180100IcEEDaPT_, symObjAddr: 0x9A3CC, symBinAddr: 0x10009ACE0, symSize: 0x24 }
  - { offset: 0xBDECA, size: 0x8, addend: 0x0, symName: __ZNSt3__1neB8ne180100ERKNS_21__tree_const_iteratorINS_12__value_typeINS_12basic_stringIcNS_11char_traitsIcEENS_9allocatorIcEEEENS_10shared_ptrIN5Catch16IReporterFactoryEEEEEPNS_11__tree_nodeISC_PvEElEESJ_, symObjAddr: 0x9A6A4, symBinAddr: 0x10009AFB8, symSize: 0x34 }
  - { offset: 0xBDF07, size: 0x8, addend: 0x0, symName: __ZNSt3__17launderB8ne180100IKNS_4pairIKNS_12basic_stringIcNS_11char_traitsIcEENS_9allocatorIcEEEENS_10shared_ptrIN5Catch16IReporterFactoryEEEEEEEPT_SG_, symObjAddr: 0x9A89C, symBinAddr: 0x10009B1B0, symSize: 0x24 }
  - { offset: 0xBDF3E, size: 0x8, addend: 0x0, symName: __ZNSt3__19__launderB8ne180100IKNS_4pairIKNS_12basic_stringIcNS_11char_traitsIcEENS_9allocatorIcEEEENS_10shared_ptrIN5Catch16IReporterFactoryEEEEEEEPT_SG_, symObjAddr: 0x9A8C0, symBinAddr: 0x10009B1D4, symSize: 0x14 }
  - { offset: 0xBDF75, size: 0x8, addend: 0x0, symName: __ZNSt3__1eqB8ne180100ERKNS_21__tree_const_iteratorINS_12__value_typeINS_12basic_stringIcNS_11char_traitsIcEENS_9allocatorIcEEEENS_10shared_ptrIN5Catch16IReporterFactoryEEEEEPNS_11__tree_nodeISC_PvEElEESJ_, symObjAddr: 0x9A918, symBinAddr: 0x10009B22C, symSize: 0x30 }
  - { offset: 0xBDFB3, size: 0x8, addend: 0x0, symName: __ZNSt3__122__make_exception_guardB8ne180100INS_6vectorIN5Catch5clara6detail3OptENS_9allocatorIS5_EEE16__destroy_vectorEEENS_28__exception_guard_exceptionsIT_EESB_, symObjAddr: 0x9AF50, symBinAddr: 0x10009B864, symSize: 0x40 }
  - { offset: 0xBDFEA, size: 0x8, addend: 0x0, symName: __ZNSt3__122__make_exception_guardB8ne180100INS_6vectorIN5Catch5clara6detail3ArgENS_9allocatorIS5_EEE16__destroy_vectorEEENS_28__exception_guard_exceptionsIT_EESB_, symObjAddr: 0x9B26C, symBinAddr: 0x10009BB80, symSize: 0x40 }
  - { offset: 0xBE021, size: 0x8, addend: 0x0, symName: __ZNSt3__114__construct_atB8ne180100IN5Catch5clara6detail3OptEJRKS4_EPS4_EEPT_S9_DpOT0_, symObjAddr: 0x9B604, symBinAddr: 0x10009BF18, symSize: 0x2C }
  - { offset: 0xBE07A, size: 0x8, addend: 0x0, symName: __ZNSt3__112construct_atB8ne180100IN5Catch5clara6detail3OptEJRKS4_EPS4_EEPT_S9_DpOT0_, symObjAddr: 0x9B630, symBinAddr: 0x10009BF44, symSize: 0x34 }
  - { offset: 0xBE0D2, size: 0x8, addend: 0x0, symName: __ZNSt3__142__uninitialized_allocator_move_if_noexceptB8ne180100INS_9allocatorIN5Catch5clara6detail3OptEEENS_16reverse_iteratorIPS5_EES9_S9_EET2_RT_T0_T1_SA_, symObjAddr: 0x9BA1C, symBinAddr: 0x10009C330, symSize: 0x124 }
  - { offset: 0xBE173, size: 0x8, addend: 0x0, symName: __ZNSt3__14swapB8ne180100IPN5Catch5clara6detail3OptEEENS_9enable_ifIXaasr21is_move_constructibleIT_EE5valuesr18is_move_assignableIS7_EE5valueEvE4typeERS7_SA_, symObjAddr: 0x9BB40, symBinAddr: 0x10009C454, symSize: 0x3C }
  - { offset: 0xBE1C8, size: 0x8, addend: 0x0, symName: __ZNSt3__122__make_exception_guardB8ne180100INS_29_AllocatorDestroyRangeReverseINS_9allocatorIN5Catch5clara6detail3OptEEENS_16reverse_iteratorIPS6_EEEEEENS_28__exception_guard_exceptionsIT_EESD_, symObjAddr: 0x9BB7C, symBinAddr: 0x10009C490, symSize: 0x4C }
  - { offset: 0xBE200, size: 0x8, addend: 0x0, symName: __ZNSt3__114__construct_atB8ne180100IN5Catch5clara6detail3OptEJS4_EPS4_EEPT_S7_DpOT0_, symObjAddr: 0x9BD48, symBinAddr: 0x10009C65C, symSize: 0x2C }
  - { offset: 0xBE259, size: 0x8, addend: 0x0, symName: __ZNSt3__112construct_atB8ne180100IN5Catch5clara6detail3OptEJS4_EPS4_EEPT_S7_DpOT0_, symObjAddr: 0x9BD74, symBinAddr: 0x10009C688, symSize: 0x34 }
  - { offset: 0xBE2B1, size: 0x8, addend: 0x0, symName: __ZNSt3__119__allocator_destroyB8ne180100INS_9allocatorIN5Catch5clara6detail3OptEEENS_16reverse_iteratorINS7_IPS5_EEEESA_EEvRT_T0_T1_, symObjAddr: 0x9C07C, symBinAddr: 0x10009C990, symSize: 0x70 }
  - { offset: 0xBE317, size: 0x8, addend: 0x0, symName: __ZNSt3__1neB8ne180100INS_16reverse_iteratorIPN5Catch5clara6detail3OptEEES7_EEbRKNS1_IT_EERKNS1_IT0_EE, symObjAddr: 0x9C128, symBinAddr: 0x10009CA3C, symSize: 0x60 }
  - { offset: 0xBE366, size: 0x8, addend: 0x0, symName: __ZNSt3__112__to_addressB8ne180100INS_16reverse_iteratorINS1_IPN5Catch5clara6detail3OptEEEEEvEEu7__decayIDTclsr19__to_address_helperIT_EE6__callclsr3stdE7declvalIRKS9_EEEEESB_, symObjAddr: 0x9C188, symBinAddr: 0x10009CA9C, symSize: 0x24 }
  - { offset: 0xBE3C9, size: 0x8, addend: 0x0, symName: __ZNSt3__14prevB8ne180100INS_16reverse_iteratorIPN5Catch5clara6detail3OptEEELi0EEET_S8_NS_15iterator_traitsIS8_E15difference_typeE, symObjAddr: 0x9C284, symBinAddr: 0x10009CB98, symSize: 0x4C }
  - { offset: 0xBE416, size: 0x8, addend: 0x0, symName: __ZNSt3__19__advanceB8ne180100INS_16reverse_iteratorIPN5Catch5clara6detail3OptEEEEEvRT_NS_15iterator_traitsIS8_E15difference_typeENS_26random_access_iterator_tagE, symObjAddr: 0x9C308, symBinAddr: 0x10009CC1C, symSize: 0x2C }
  - { offset: 0xBE462, size: 0x8, addend: 0x0, symName: '__ZNSt3__111make_sharedB8ne180100IN5Catch5clara6detail11BoundLambdaIZNS1_21makeCommandLineParserERNS1_10ConfigDataEE3$_0EEJRKS7_EvEENS_10shared_ptrIT_EEDpOT0_', symObjAddr: 0x9C870, symBinAddr: 0x10009D184, symSize: 0x40 }
  - { offset: 0xBE6B1, size: 0x8, addend: 0x0, symName: '__ZNSt3__115allocate_sharedB8ne180100IN5Catch5clara6detail11BoundLambdaIZNS1_21makeCommandLineParserERNS1_10ConfigDataEE3$_0EENS_9allocatorIS8_EEJRKS7_EvEENS_10shared_ptrIT_EERKT0_DpOT1_', symObjAddr: 0x9C910, symBinAddr: 0x10009D224, symSize: 0x98 }
  - { offset: 0xBEA5B, size: 0x8, addend: 0x0, symName: '__ZNSt3__114__construct_atB8ne180100IN5Catch5clara6detail11BoundLambdaIZNS1_21makeCommandLineParserERNS1_10ConfigDataEE3$_0EEJRKS7_EPS8_EEPT_SD_DpOT0_', symObjAddr: 0x9CFB8, symBinAddr: 0x10009D8CC, symSize: 0x2C }
  - { offset: 0xBEAB4, size: 0x8, addend: 0x0, symName: '__ZNSt3__112construct_atB8ne180100IN5Catch5clara6detail11BoundLambdaIZNS1_21makeCommandLineParserERNS1_10ConfigDataEE3$_0EEJRKS7_EPS8_EEPT_SD_DpOT0_', symObjAddr: 0x9CFE4, symBinAddr: 0x10009D8F8, symSize: 0x34 }
  - { offset: 0xBEB0D, size: 0x8, addend: 0x0, symName: '__ZNSt3__112__destroy_atB8ne180100IN5Catch5clara6detail11BoundLambdaIZNS1_21makeCommandLineParserERNS1_10ConfigDataEE3$_0EELi0EEEvPT_', symObjAddr: 0x9D7B8, symBinAddr: 0x10009E0CC, symSize: 0x2C }
  - { offset: 0xBEB7C, size: 0x8, addend: 0x0, symName: '__ZNSt3__111make_sharedB8ne180100IN5Catch5clara6detail15BoundFlagLambdaIZNS1_21makeCommandLineParserERNS1_10ConfigDataEE3$_1EEJRKS7_EvEENS_10shared_ptrIT_EEDpOT0_', symObjAddr: 0x9DAE8, symBinAddr: 0x10009E3FC, symSize: 0x40 }
  - { offset: 0xBEDCB, size: 0x8, addend: 0x0, symName: '__ZNSt3__115allocate_sharedB8ne180100IN5Catch5clara6detail15BoundFlagLambdaIZNS1_21makeCommandLineParserERNS1_10ConfigDataEE3$_1EENS_9allocatorIS8_EEJRKS7_EvEENS_10shared_ptrIT_EERKT0_DpOT1_', symObjAddr: 0x9DB88, symBinAddr: 0x10009E49C, symSize: 0x98 }
  - { offset: 0xBF175, size: 0x8, addend: 0x0, symName: '__ZNSt3__114__construct_atB8ne180100IN5Catch5clara6detail15BoundFlagLambdaIZNS1_21makeCommandLineParserERNS1_10ConfigDataEE3$_1EEJRKS7_EPS8_EEPT_SD_DpOT0_', symObjAddr: 0x9E230, symBinAddr: 0x10009EB44, symSize: 0x2C }
  - { offset: 0xBF1CE, size: 0x8, addend: 0x0, symName: '__ZNSt3__112construct_atB8ne180100IN5Catch5clara6detail15BoundFlagLambdaIZNS1_21makeCommandLineParserERNS1_10ConfigDataEE3$_1EEJRKS7_EPS8_EEPT_SD_DpOT0_', symObjAddr: 0x9E25C, symBinAddr: 0x10009EB70, symSize: 0x34 }
  - { offset: 0xBF227, size: 0x8, addend: 0x0, symName: '__ZNSt3__112__destroy_atB8ne180100IN5Catch5clara6detail15BoundFlagLambdaIZNS1_21makeCommandLineParserERNS1_10ConfigDataEE3$_1EELi0EEEvPT_', symObjAddr: 0x9E528, symBinAddr: 0x10009EE3C, symSize: 0x2C }
  - { offset: 0xBF296, size: 0x8, addend: 0x0, symName: '__ZNSt3__111make_sharedB8ne180100IN5Catch5clara6detail11BoundLambdaIZNS1_21makeCommandLineParserERNS1_10ConfigDataEE3$_2EEJRKS7_EvEENS_10shared_ptrIT_EEDpOT0_', symObjAddr: 0x9E904, symBinAddr: 0x10009F218, symSize: 0x40 }
  - { offset: 0xBF4E5, size: 0x8, addend: 0x0, symName: '__ZNSt3__115allocate_sharedB8ne180100IN5Catch5clara6detail11BoundLambdaIZNS1_21makeCommandLineParserERNS1_10ConfigDataEE3$_2EENS_9allocatorIS8_EEJRKS7_EvEENS_10shared_ptrIT_EERKT0_DpOT1_', symObjAddr: 0x9E9A4, symBinAddr: 0x10009F2B8, symSize: 0x98 }
  - { offset: 0xBF88F, size: 0x8, addend: 0x0, symName: '__ZNSt3__114__construct_atB8ne180100IN5Catch5clara6detail11BoundLambdaIZNS1_21makeCommandLineParserERNS1_10ConfigDataEE3$_2EEJRKS7_EPS8_EEPT_SD_DpOT0_', symObjAddr: 0x9F04C, symBinAddr: 0x10009F960, symSize: 0x2C }
  - { offset: 0xBF8E8, size: 0x8, addend: 0x0, symName: '__ZNSt3__112construct_atB8ne180100IN5Catch5clara6detail11BoundLambdaIZNS1_21makeCommandLineParserERNS1_10ConfigDataEE3$_2EEJRKS7_EPS8_EEPT_SD_DpOT0_', symObjAddr: 0x9F078, symBinAddr: 0x10009F98C, symSize: 0x34 }
  - { offset: 0xBF941, size: 0x8, addend: 0x0, symName: '__ZNSt3__112__destroy_atB8ne180100IN5Catch5clara6detail11BoundLambdaIZNS1_21makeCommandLineParserERNS1_10ConfigDataEE3$_2EELi0EEEvPT_', symObjAddr: 0x9F540, symBinAddr: 0x10009FE54, symSize: 0x2C }
  - { offset: 0xBF9B0, size: 0x8, addend: 0x0, symName: '__ZNSt3__111make_sharedB8ne180100IN5Catch5clara6detail11BoundLambdaIZNS1_21makeCommandLineParserERNS1_10ConfigDataEE3$_3EEJRKS7_EvEENS_10shared_ptrIT_EEDpOT0_', symObjAddr: 0x9F91C, symBinAddr: 0x1000A0230, symSize: 0x40 }
  - { offset: 0xBFBFF, size: 0x8, addend: 0x0, symName: '__ZNSt3__115allocate_sharedB8ne180100IN5Catch5clara6detail11BoundLambdaIZNS1_21makeCommandLineParserERNS1_10ConfigDataEE3$_3EENS_9allocatorIS8_EEJRKS7_EvEENS_10shared_ptrIT_EERKT0_DpOT1_', symObjAddr: 0x9F9BC, symBinAddr: 0x1000A02D0, symSize: 0x98 }
  - { offset: 0xBFFA9, size: 0x8, addend: 0x0, symName: '__ZNSt3__114__construct_atB8ne180100IN5Catch5clara6detail11BoundLambdaIZNS1_21makeCommandLineParserERNS1_10ConfigDataEE3$_3EEJRKS7_EPS8_EEPT_SD_DpOT0_', symObjAddr: 0xA0064, symBinAddr: 0x1000A0978, symSize: 0x2C }
  - { offset: 0xC0002, size: 0x8, addend: 0x0, symName: '__ZNSt3__112construct_atB8ne180100IN5Catch5clara6detail11BoundLambdaIZNS1_21makeCommandLineParserERNS1_10ConfigDataEE3$_3EEJRKS7_EPS8_EEPT_SD_DpOT0_', symObjAddr: 0xA0090, symBinAddr: 0x1000A09A4, symSize: 0x34 }
  - { offset: 0xC005B, size: 0x8, addend: 0x0, symName: '__ZNSt3__112__destroy_atB8ne180100IN5Catch5clara6detail11BoundLambdaIZNS1_21makeCommandLineParserERNS1_10ConfigDataEE3$_3EELi0EEEvPT_', symObjAddr: 0xA057C, symBinAddr: 0x1000A0E90, symSize: 0x2C }
  - { offset: 0xC00CA, size: 0x8, addend: 0x0, symName: '__ZNSt3__111make_sharedB8ne180100IN5Catch5clara6detail11BoundLambdaIZNS1_21makeCommandLineParserERNS1_10ConfigDataEE3$_4EEJRKS7_EvEENS_10shared_ptrIT_EEDpOT0_', symObjAddr: 0xA0958, symBinAddr: 0x1000A126C, symSize: 0x40 }
  - { offset: 0xC0319, size: 0x8, addend: 0x0, symName: '__ZNSt3__115allocate_sharedB8ne180100IN5Catch5clara6detail11BoundLambdaIZNS1_21makeCommandLineParserERNS1_10ConfigDataEE3$_4EENS_9allocatorIS8_EEJRKS7_EvEENS_10shared_ptrIT_EERKT0_DpOT1_', symObjAddr: 0xA09F8, symBinAddr: 0x1000A130C, symSize: 0x98 }
  - { offset: 0xC06C3, size: 0x8, addend: 0x0, symName: '__ZNSt3__114__construct_atB8ne180100IN5Catch5clara6detail11BoundLambdaIZNS1_21makeCommandLineParserERNS1_10ConfigDataEE3$_4EEJRKS7_EPS8_EEPT_SD_DpOT0_', symObjAddr: 0xA10A0, symBinAddr: 0x1000A19B4, symSize: 0x2C }
  - { offset: 0xC071C, size: 0x8, addend: 0x0, symName: '__ZNSt3__112construct_atB8ne180100IN5Catch5clara6detail11BoundLambdaIZNS1_21makeCommandLineParserERNS1_10ConfigDataEE3$_4EEJRKS7_EPS8_EEPT_SD_DpOT0_', symObjAddr: 0xA10CC, symBinAddr: 0x1000A19E0, symSize: 0x34 }
  - { offset: 0xC0775, size: 0x8, addend: 0x0, symName: __ZNSt3__19transformB8ne180100INS_11__wrap_iterIPcEES3_ZN5Catch5clara6detail11convertIntoERKNS_12basic_stringIcNS_11char_traitsIcEENS_9allocatorIcEEEERbEUlhE_EET0_T_SI_SH_T1_, symObjAddr: 0xA15A0, symBinAddr: 0x1000A1EB4, symSize: 0x8C }
  - { offset: 0xC07EB, size: 0x8, addend: 0x0, symName: '__ZNSt3__112__destroy_atB8ne180100IN5Catch5clara6detail11BoundLambdaIZNS1_21makeCommandLineParserERNS1_10ConfigDataEE3$_4EELi0EEEvPT_', symObjAddr: 0xA1774, symBinAddr: 0x1000A2088, symSize: 0x2C }
  - { offset: 0xC085A, size: 0x8, addend: 0x0, symName: __ZNSt3__111make_sharedB8ne180100IN5Catch5clara6detail13BoundValueRefIdEEJRdEvEENS_10shared_ptrIT_EEDpOT0_, symObjAddr: 0xA1B50, symBinAddr: 0x1000A2464, symSize: 0x40 }
  - { offset: 0xC0AA8, size: 0x8, addend: 0x0, symName: __ZNSt3__115allocate_sharedB8ne180100IN5Catch5clara6detail13BoundValueRefIdEENS_9allocatorIS5_EEJRdEvEENS_10shared_ptrIT_EERKT0_DpOT1_, symObjAddr: 0xA1BF0, symBinAddr: 0x1000A2504, symSize: 0x98 }
  - { offset: 0xC0E52, size: 0x8, addend: 0x0, symName: __ZNSt3__114__construct_atB8ne180100IN5Catch5clara6detail13BoundValueRefIdEEJRdEPS5_EEPT_S9_DpOT0_, symObjAddr: 0xA2298, symBinAddr: 0x1000A2BAC, symSize: 0x2C }
  - { offset: 0xC0EAB, size: 0x8, addend: 0x0, symName: __ZNSt3__112construct_atB8ne180100IN5Catch5clara6detail13BoundValueRefIdEEJRdEPS5_EEPT_S9_DpOT0_, symObjAddr: 0xA22C4, symBinAddr: 0x1000A2BD8, symSize: 0x34 }
  - { offset: 0xC0F04, size: 0x8, addend: 0x0, symName: __ZNSt3__112__destroy_atB8ne180100IN5Catch5clara6detail13BoundValueRefIdEELi0EEEvPT_, symObjAddr: 0xA2678, symBinAddr: 0x1000A2F8C, symSize: 0x2C }
  - { offset: 0xC0F73, size: 0x8, addend: 0x0, symName: '__ZNSt3__111make_sharedB8ne180100IN5Catch5clara6detail11BoundLambdaIZNS1_21makeCommandLineParserERNS1_10ConfigDataEE3$_5EEJRKS7_EvEENS_10shared_ptrIT_EEDpOT0_', symObjAddr: 0xA2A54, symBinAddr: 0x1000A3368, symSize: 0x40 }
  - { offset: 0xC11C2, size: 0x8, addend: 0x0, symName: '__ZNSt3__115allocate_sharedB8ne180100IN5Catch5clara6detail11BoundLambdaIZNS1_21makeCommandLineParserERNS1_10ConfigDataEE3$_5EENS_9allocatorIS8_EEJRKS7_EvEENS_10shared_ptrIT_EERKT0_DpOT1_', symObjAddr: 0xA2AF4, symBinAddr: 0x1000A3408, symSize: 0x98 }
  - { offset: 0xC156C, size: 0x8, addend: 0x0, symName: '__ZNSt3__114__construct_atB8ne180100IN5Catch5clara6detail11BoundLambdaIZNS1_21makeCommandLineParserERNS1_10ConfigDataEE3$_5EEJRKS7_EPS8_EEPT_SD_DpOT0_', symObjAddr: 0xA319C, symBinAddr: 0x1000A3AB0, symSize: 0x2C }
  - { offset: 0xC15C5, size: 0x8, addend: 0x0, symName: '__ZNSt3__112construct_atB8ne180100IN5Catch5clara6detail11BoundLambdaIZNS1_21makeCommandLineParserERNS1_10ConfigDataEE3$_5EEJRKS7_EPS8_EEPT_SD_DpOT0_', symObjAddr: 0xA31C8, symBinAddr: 0x1000A3ADC, symSize: 0x34 }
  - { offset: 0xC17BE, size: 0x8, addend: 0x0, symName: __ZNSt3__17getlineB8ne180100IcNS_11char_traitsIcEENS_9allocatorIcEEEERNS_13basic_istreamIT_T0_EES9_RNS_12basic_stringIS6_S7_T1_EE, symObjAddr: 0xA3978, symBinAddr: 0x1000A428C, symSize: 0x5C }
  - { offset: 0xC1822, size: 0x8, addend: 0x0, symName: __ZNSt3__17getlineB8ne180100IcNS_11char_traitsIcEENS_9allocatorIcEEEERNS_13basic_istreamIT_T0_EES9_RNS_12basic_stringIS6_S7_T1_EES6_, symObjAddr: 0xA3C38, symBinAddr: 0x1000A454C, symSize: 0x238 }
  - { offset: 0xC18E1, size: 0x8, addend: 0x0, symName: __ZNSt3__114__construct_atB8ne180100INS_12basic_stringIcNS_11char_traitsIcEENS_9allocatorIcEEEEJRA2_KcEPS6_EEPT_SC_DpOT0_, symObjAddr: 0xA4164, symBinAddr: 0x1000A4A78, symSize: 0x2C }
  - { offset: 0xC193A, size: 0x8, addend: 0x0, symName: __ZNSt3__112construct_atB8ne180100INS_12basic_stringIcNS_11char_traitsIcEENS_9allocatorIcEEEEJRA2_KcEPS6_EEPT_SC_DpOT0_, symObjAddr: 0xA4190, symBinAddr: 0x1000A4AA4, symSize: 0x34 }
  - { offset: 0xC1993, size: 0x8, addend: 0x0, symName: '__ZNSt3__112__destroy_atB8ne180100IN5Catch5clara6detail11BoundLambdaIZNS1_21makeCommandLineParserERNS1_10ConfigDataEE3$_5EELi0EEEvPT_', symObjAddr: 0xA43C8, symBinAddr: 0x1000A4CDC, symSize: 0x2C }
  - { offset: 0xC1A02, size: 0x8, addend: 0x0, symName: '__ZNSt3__111make_sharedB8ne180100IN5Catch5clara6detail11BoundLambdaIZNS1_21makeCommandLineParserERNS1_10ConfigDataEE3$_6EEJRKS7_EvEENS_10shared_ptrIT_EEDpOT0_', symObjAddr: 0xA48D4, symBinAddr: 0x1000A51E8, symSize: 0x40 }
  - { offset: 0xC1C51, size: 0x8, addend: 0x0, symName: '__ZNSt3__115allocate_sharedB8ne180100IN5Catch5clara6detail11BoundLambdaIZNS1_21makeCommandLineParserERNS1_10ConfigDataEE3$_6EENS_9allocatorIS8_EEJRKS7_EvEENS_10shared_ptrIT_EERKT0_DpOT1_', symObjAddr: 0xA4974, symBinAddr: 0x1000A5288, symSize: 0x98 }
  - { offset: 0xC1FFB, size: 0x8, addend: 0x0, symName: '__ZNSt3__114__construct_atB8ne180100IN5Catch5clara6detail11BoundLambdaIZNS1_21makeCommandLineParserERNS1_10ConfigDataEE3$_6EEJRKS7_EPS8_EEPT_SD_DpOT0_', symObjAddr: 0xA501C, symBinAddr: 0x1000A5930, symSize: 0x2C }
  - { offset: 0xC2054, size: 0x8, addend: 0x0, symName: '__ZNSt3__112construct_atB8ne180100IN5Catch5clara6detail11BoundLambdaIZNS1_21makeCommandLineParserERNS1_10ConfigDataEE3$_6EEJRKS7_EPS8_EEPT_SD_DpOT0_', symObjAddr: 0xA5048, symBinAddr: 0x1000A595C, symSize: 0x34 }
  - { offset: 0xC20AD, size: 0x8, addend: 0x0, symName: '__ZNSt3__112__destroy_atB8ne180100IN5Catch5clara6detail11BoundLambdaIZNS1_21makeCommandLineParserERNS1_10ConfigDataEE3$_6EELi0EEEvPT_', symObjAddr: 0xA5544, symBinAddr: 0x1000A5E58, symSize: 0x2C }
  - { offset: 0xC211C, size: 0x8, addend: 0x0, symName: '__ZNSt3__111make_sharedB8ne180100IN5Catch5clara6detail11BoundLambdaIZNS1_21makeCommandLineParserERNS1_10ConfigDataEE3$_7EEJRKS7_EvEENS_10shared_ptrIT_EEDpOT0_', symObjAddr: 0xA5920, symBinAddr: 0x1000A6234, symSize: 0x40 }
  - { offset: 0xC236B, size: 0x8, addend: 0x0, symName: '__ZNSt3__115allocate_sharedB8ne180100IN5Catch5clara6detail11BoundLambdaIZNS1_21makeCommandLineParserERNS1_10ConfigDataEE3$_7EENS_9allocatorIS8_EEJRKS7_EvEENS_10shared_ptrIT_EERKT0_DpOT1_', symObjAddr: 0xA59C0, symBinAddr: 0x1000A62D4, symSize: 0x98 }
  - { offset: 0xC2715, size: 0x8, addend: 0x0, symName: '__ZNSt3__114__construct_atB8ne180100IN5Catch5clara6detail11BoundLambdaIZNS1_21makeCommandLineParserERNS1_10ConfigDataEE3$_7EEJRKS7_EPS8_EEPT_SD_DpOT0_', symObjAddr: 0xA6068, symBinAddr: 0x1000A697C, symSize: 0x2C }
  - { offset: 0xC276E, size: 0x8, addend: 0x0, symName: '__ZNSt3__112construct_atB8ne180100IN5Catch5clara6detail11BoundLambdaIZNS1_21makeCommandLineParserERNS1_10ConfigDataEE3$_7EEJRKS7_EPS8_EEPT_SD_DpOT0_', symObjAddr: 0xA6094, symBinAddr: 0x1000A69A8, symSize: 0x34 }
  - { offset: 0xC27C7, size: 0x8, addend: 0x0, symName: '__ZNSt3__112__destroy_atB8ne180100IN5Catch5clara6detail11BoundLambdaIZNS1_21makeCommandLineParserERNS1_10ConfigDataEE3$_7EELi0EEEvPT_', symObjAddr: 0xA6624, symBinAddr: 0x1000A6F38, symSize: 0x2C }
  - { offset: 0xC2836, size: 0x8, addend: 0x0, symName: '__ZNSt3__111make_sharedB8ne180100IN5Catch5clara6detail11BoundLambdaIZNS1_21makeCommandLineParserERNS1_10ConfigDataEE3$_8EEJRKS7_EvEENS_10shared_ptrIT_EEDpOT0_', symObjAddr: 0xA6A00, symBinAddr: 0x1000A7314, symSize: 0x40 }
  - { offset: 0xC2A85, size: 0x8, addend: 0x0, symName: '__ZNSt3__115allocate_sharedB8ne180100IN5Catch5clara6detail11BoundLambdaIZNS1_21makeCommandLineParserERNS1_10ConfigDataEE3$_8EENS_9allocatorIS8_EEJRKS7_EvEENS_10shared_ptrIT_EERKT0_DpOT1_', symObjAddr: 0xA6AA0, symBinAddr: 0x1000A73B4, symSize: 0x98 }
  - { offset: 0xC2E2F, size: 0x8, addend: 0x0, symName: '__ZNSt3__114__construct_atB8ne180100IN5Catch5clara6detail11BoundLambdaIZNS1_21makeCommandLineParserERNS1_10ConfigDataEE3$_8EEJRKS7_EPS8_EEPT_SD_DpOT0_', symObjAddr: 0xA7148, symBinAddr: 0x1000A7A5C, symSize: 0x2C }
  - { offset: 0xC2E88, size: 0x8, addend: 0x0, symName: '__ZNSt3__112construct_atB8ne180100IN5Catch5clara6detail11BoundLambdaIZNS1_21makeCommandLineParserERNS1_10ConfigDataEE3$_8EEJRKS7_EPS8_EEPT_SD_DpOT0_', symObjAddr: 0xA7174, symBinAddr: 0x1000A7A88, symSize: 0x34 }
  - { offset: 0xC2EE1, size: 0x8, addend: 0x0, symName: '__ZNSt3__112__destroy_atB8ne180100IN5Catch5clara6detail11BoundLambdaIZNS1_21makeCommandLineParserERNS1_10ConfigDataEE3$_8EELi0EEEvPT_', symObjAddr: 0xA76C0, symBinAddr: 0x1000A7FD4, symSize: 0x2C }
  - { offset: 0xC2F50, size: 0x8, addend: 0x0, symName: '__ZNSt3__111make_sharedB8ne180100IN5Catch5clara6detail11BoundLambdaIZNS1_21makeCommandLineParserERNS1_10ConfigDataEE3$_9EEJRKS7_EvEENS_10shared_ptrIT_EEDpOT0_', symObjAddr: 0xA7A9C, symBinAddr: 0x1000A83B0, symSize: 0x40 }
  - { offset: 0xC319F, size: 0x8, addend: 0x0, symName: '__ZNSt3__115allocate_sharedB8ne180100IN5Catch5clara6detail11BoundLambdaIZNS1_21makeCommandLineParserERNS1_10ConfigDataEE3$_9EENS_9allocatorIS8_EEJRKS7_EvEENS_10shared_ptrIT_EERKT0_DpOT1_', symObjAddr: 0xA7B3C, symBinAddr: 0x1000A8450, symSize: 0x98 }
  - { offset: 0xC3549, size: 0x8, addend: 0x0, symName: '__ZNSt3__114__construct_atB8ne180100IN5Catch5clara6detail11BoundLambdaIZNS1_21makeCommandLineParserERNS1_10ConfigDataEE3$_9EEJRKS7_EPS8_EEPT_SD_DpOT0_', symObjAddr: 0xA81E4, symBinAddr: 0x1000A8AF8, symSize: 0x2C }
  - { offset: 0xC35A2, size: 0x8, addend: 0x0, symName: '__ZNSt3__112construct_atB8ne180100IN5Catch5clara6detail11BoundLambdaIZNS1_21makeCommandLineParserERNS1_10ConfigDataEE3$_9EEJRKS7_EPS8_EEPT_SD_DpOT0_', symObjAddr: 0xA8210, symBinAddr: 0x1000A8B24, symSize: 0x34 }
  - { offset: 0xC35FB, size: 0x8, addend: 0x0, symName: '__ZNSt3__112__destroy_atB8ne180100IN5Catch5clara6detail11BoundLambdaIZNS1_21makeCommandLineParserERNS1_10ConfigDataEE3$_9EELi0EEEvPT_', symObjAddr: 0xA870C, symBinAddr: 0x1000A9020, symSize: 0x2C }
  - { offset: 0xC366A, size: 0x8, addend: 0x0, symName: '__ZNSt3__111make_sharedB8ne180100IN5Catch5clara6detail11BoundLambdaIZNS1_21makeCommandLineParserERNS1_10ConfigDataEE4$_10EEJRKS7_EvEENS_10shared_ptrIT_EEDpOT0_', symObjAddr: 0xA8AE8, symBinAddr: 0x1000A93FC, symSize: 0x40 }
  - { offset: 0xC38B9, size: 0x8, addend: 0x0, symName: '__ZNSt3__115allocate_sharedB8ne180100IN5Catch5clara6detail11BoundLambdaIZNS1_21makeCommandLineParserERNS1_10ConfigDataEE4$_10EENS_9allocatorIS8_EEJRKS7_EvEENS_10shared_ptrIT_EERKT0_DpOT1_', symObjAddr: 0xA8B88, symBinAddr: 0x1000A949C, symSize: 0x98 }
  - { offset: 0xC3C63, size: 0x8, addend: 0x0, symName: '__ZNSt3__114__construct_atB8ne180100IN5Catch5clara6detail11BoundLambdaIZNS1_21makeCommandLineParserERNS1_10ConfigDataEE4$_10EEJRKS7_EPS8_EEPT_SD_DpOT0_', symObjAddr: 0xA9230, symBinAddr: 0x1000A9B44, symSize: 0x2C }
  - { offset: 0xC3CBC, size: 0x8, addend: 0x0, symName: '__ZNSt3__112construct_atB8ne180100IN5Catch5clara6detail11BoundLambdaIZNS1_21makeCommandLineParserERNS1_10ConfigDataEE4$_10EEJRKS7_EPS8_EEPT_SD_DpOT0_', symObjAddr: 0xA925C, symBinAddr: 0x1000A9B70, symSize: 0x34 }
  - { offset: 0xC3D15, size: 0x8, addend: 0x0, symName: '__ZNSt3__112__destroy_atB8ne180100IN5Catch5clara6detail11BoundLambdaIZNS1_21makeCommandLineParserERNS1_10ConfigDataEE4$_10EELi0EEEvPT_', symObjAddr: 0xA9788, symBinAddr: 0x1000AA09C, symSize: 0x2C }
  - { offset: 0xC3D84, size: 0x8, addend: 0x0, symName: __ZNSt3__111make_sharedB8ne180100IN5Catch5clara6detail13BoundValueRefIjEEJRjEvEENS_10shared_ptrIT_EEDpOT0_, symObjAddr: 0xA9B64, symBinAddr: 0x1000AA478, symSize: 0x40 }
  - { offset: 0xC3FD2, size: 0x8, addend: 0x0, symName: __ZNSt3__115allocate_sharedB8ne180100IN5Catch5clara6detail13BoundValueRefIjEENS_9allocatorIS5_EEJRjEvEENS_10shared_ptrIT_EERKT0_DpOT1_, symObjAddr: 0xA9C04, symBinAddr: 0x1000AA518, symSize: 0x98 }
  - { offset: 0xC437C, size: 0x8, addend: 0x0, symName: __ZNSt3__114__construct_atB8ne180100IN5Catch5clara6detail13BoundValueRefIjEEJRjEPS5_EEPT_S9_DpOT0_, symObjAddr: 0xAA2AC, symBinAddr: 0x1000AABC0, symSize: 0x2C }
  - { offset: 0xC43D5, size: 0x8, addend: 0x0, symName: __ZNSt3__112construct_atB8ne180100IN5Catch5clara6detail13BoundValueRefIjEEJRjEPS5_EEPT_S9_DpOT0_, symObjAddr: 0xAA2D8, symBinAddr: 0x1000AABEC, symSize: 0x34 }
  - { offset: 0xC442E, size: 0x8, addend: 0x0, symName: __ZNSt3__112__destroy_atB8ne180100IN5Catch5clara6detail13BoundValueRefIjEELi0EEEvPT_, symObjAddr: 0xAA528, symBinAddr: 0x1000AAE3C, symSize: 0x2C }
  - { offset: 0xC449D, size: 0x8, addend: 0x0, symName: __ZNSt3__111make_sharedB8ne180100IN5Catch5clara6detail13BoundValueRefIxEEJRxEvEENS_10shared_ptrIT_EEDpOT0_, symObjAddr: 0xAA904, symBinAddr: 0x1000AB218, symSize: 0x40 }
  - { offset: 0xC46EB, size: 0x8, addend: 0x0, symName: __ZNSt3__115allocate_sharedB8ne180100IN5Catch5clara6detail13BoundValueRefIxEENS_9allocatorIS5_EEJRxEvEENS_10shared_ptrIT_EERKT0_DpOT1_, symObjAddr: 0xAA9A4, symBinAddr: 0x1000AB2B8, symSize: 0x98 }
  - { offset: 0xC4A95, size: 0x8, addend: 0x0, symName: __ZNSt3__114__construct_atB8ne180100IN5Catch5clara6detail13BoundValueRefIxEEJRxEPS5_EEPT_S9_DpOT0_, symObjAddr: 0xAB04C, symBinAddr: 0x1000AB960, symSize: 0x2C }
  - { offset: 0xC4AEE, size: 0x8, addend: 0x0, symName: __ZNSt3__112construct_atB8ne180100IN5Catch5clara6detail13BoundValueRefIxEEJRxEPS5_EEPT_S9_DpOT0_, symObjAddr: 0xAB078, symBinAddr: 0x1000AB98C, symSize: 0x34 }
  - { offset: 0xC4B47, size: 0x8, addend: 0x0, symName: __ZNSt3__112__destroy_atB8ne180100IN5Catch5clara6detail13BoundValueRefIxEELi0EEEvPT_, symObjAddr: 0xAB42C, symBinAddr: 0x1000ABD40, symSize: 0x2C }
  - { offset: 0xC4BB7, size: 0x8, addend: 0x0, symName: __ZNSt3__114__construct_atB8ne180100IN5Catch5clara6detail3ArgEJRKS4_EPS4_EEPT_S9_DpOT0_, symObjAddr: 0xAB948, symBinAddr: 0x1000AC25C, symSize: 0x2C }
  - { offset: 0xC4C10, size: 0x8, addend: 0x0, symName: __ZNSt3__112construct_atB8ne180100IN5Catch5clara6detail3ArgEJRKS4_EPS4_EEPT_S9_DpOT0_, symObjAddr: 0xAB974, symBinAddr: 0x1000AC288, symSize: 0x34 }
  - { offset: 0xC4C68, size: 0x8, addend: 0x0, symName: __ZNSt3__142__uninitialized_allocator_move_if_noexceptB8ne180100INS_9allocatorIN5Catch5clara6detail3ArgEEENS_16reverse_iteratorIPS5_EES9_S9_EET2_RT_T0_T1_SA_, symObjAddr: 0xABD60, symBinAddr: 0x1000AC674, symSize: 0x124 }
  - { offset: 0xC4D09, size: 0x8, addend: 0x0, symName: __ZNSt3__14swapB8ne180100IPN5Catch5clara6detail3ArgEEENS_9enable_ifIXaasr21is_move_constructibleIT_EE5valuesr18is_move_assignableIS7_EE5valueEvE4typeERS7_SA_, symObjAddr: 0xABE84, symBinAddr: 0x1000AC798, symSize: 0x3C }
  - { offset: 0xC4D5E, size: 0x8, addend: 0x0, symName: __ZNSt3__122__make_exception_guardB8ne180100INS_29_AllocatorDestroyRangeReverseINS_9allocatorIN5Catch5clara6detail3ArgEEENS_16reverse_iteratorIPS6_EEEEEENS_28__exception_guard_exceptionsIT_EESD_, symObjAddr: 0xABEC0, symBinAddr: 0x1000AC7D4, symSize: 0x4C }
  - { offset: 0xC4D96, size: 0x8, addend: 0x0, symName: __ZNSt3__114__construct_atB8ne180100IN5Catch5clara6detail3ArgEJS4_EPS4_EEPT_S7_DpOT0_, symObjAddr: 0xAC08C, symBinAddr: 0x1000AC9A0, symSize: 0x2C }
  - { offset: 0xC4DEF, size: 0x8, addend: 0x0, symName: __ZNSt3__112construct_atB8ne180100IN5Catch5clara6detail3ArgEJS4_EPS4_EEPT_S7_DpOT0_, symObjAddr: 0xAC0B8, symBinAddr: 0x1000AC9CC, symSize: 0x34 }
  - { offset: 0xC4E47, size: 0x8, addend: 0x0, symName: __ZNSt3__119__allocator_destroyB8ne180100INS_9allocatorIN5Catch5clara6detail3ArgEEENS_16reverse_iteratorINS7_IPS5_EEEESA_EEvRT_T0_T1_, symObjAddr: 0xAC338, symBinAddr: 0x1000ACC4C, symSize: 0x70 }
  - { offset: 0xC4EAD, size: 0x8, addend: 0x0, symName: __ZNSt3__1neB8ne180100INS_16reverse_iteratorIPN5Catch5clara6detail3ArgEEES7_EEbRKNS1_IT_EERKNS1_IT0_EE, symObjAddr: 0xAC3E4, symBinAddr: 0x1000ACCF8, symSize: 0x60 }
  - { offset: 0xC4EFC, size: 0x8, addend: 0x0, symName: __ZNSt3__112__to_addressB8ne180100INS_16reverse_iteratorINS1_IPN5Catch5clara6detail3ArgEEEEEvEEu7__decayIDTclsr19__to_address_helperIT_EE6__callclsr3stdE7declvalIRKS9_EEEEESB_, symObjAddr: 0xAC444, symBinAddr: 0x1000ACD58, symSize: 0x24 }
  - { offset: 0xC4F5F, size: 0x8, addend: 0x0, symName: __ZNSt3__14prevB8ne180100INS_16reverse_iteratorIPN5Catch5clara6detail3ArgEEELi0EEET_S8_NS_15iterator_traitsIS8_E15difference_typeE, symObjAddr: 0xAC540, symBinAddr: 0x1000ACE54, symSize: 0x4C }
  - { offset: 0xC4FAC, size: 0x8, addend: 0x0, symName: __ZNSt3__19__advanceB8ne180100INS_16reverse_iteratorIPN5Catch5clara6detail3ArgEEEEEvRT_NS_15iterator_traitsIS8_E15difference_typeENS_26random_access_iterator_tagE, symObjAddr: 0xAC5C4, symBinAddr: 0x1000ACED8, symSize: 0x2C }
  - { offset: 0xC503F, size: 0x8, addend: 0x0, symName: __ZNSt3__1eqB8ne180100ERKNS_21__tree_const_iteratorINS_12basic_stringIcNS_11char_traitsIcEENS_9allocatorIcEEEEPNS_11__tree_nodeIS6_PvEElEESD_, symObjAddr: 0xADE4C, symBinAddr: 0x1000AE760, symSize: 0x30 }
  - { offset: 0xC507D, size: 0x8, addend: 0x0, symName: __ZNSt3__112__destroy_atB8ne180100INS_4pairIKNS_12basic_stringIcNS_11char_traitsIcEENS_9allocatorIcEEEEN5Catch7TagInfoEEELi0EEEvPT_, symObjAddr: 0xAE3D0, symBinAddr: 0x1000AECE4, symSize: 0x24 }
  - { offset: 0xC50B6, size: 0x8, addend: 0x0, symName: __ZNSt3__17launderB8ne180100INS_4pairIKNS_12basic_stringIcNS_11char_traitsIcEENS_9allocatorIcEEEEN5Catch7TagInfoEEEEEPT_SD_, symObjAddr: 0xAE47C, symBinAddr: 0x1000AED90, symSize: 0x24 }
  - { offset: 0xC50ED, size: 0x8, addend: 0x0, symName: __ZNSt3__19__launderB8ne180100INS_4pairIKNS_12basic_stringIcNS_11char_traitsIcEENS_9allocatorIcEEEEN5Catch7TagInfoEEEEEPT_SD_, symObjAddr: 0xAE4A0, symBinAddr: 0x1000AEDB4, symSize: 0x14 }
  - { offset: 0xC5124, size: 0x8, addend: 0x0, symName: __ZNSt3__1neB8ne180100ERKNS_15__tree_iteratorINS_12__value_typeINS_12basic_stringIcNS_11char_traitsIcEENS_9allocatorIcEEEEN5Catch7TagInfoEEEPNS_11__tree_nodeISA_PvEElEESH_, symObjAddr: 0xAE718, symBinAddr: 0x1000AF02C, symSize: 0x34 }
  - { offset: 0xC5161, size: 0x8, addend: 0x0, symName: __ZNSt3__17launderB8ne180100IKNS_4pairIKNS_12basic_stringIcNS_11char_traitsIcEENS_9allocatorIcEEEEN5Catch7TagInfoEEEEEPT_SE_, symObjAddr: 0xAE8C0, symBinAddr: 0x1000AF1D4, symSize: 0x24 }
  - { offset: 0xC5198, size: 0x8, addend: 0x0, symName: __ZNSt3__19__launderB8ne180100IKNS_4pairIKNS_12basic_stringIcNS_11char_traitsIcEENS_9allocatorIcEEEEN5Catch7TagInfoEEEEEPT_SE_, symObjAddr: 0xAE8E4, symBinAddr: 0x1000AF1F8, symSize: 0x14 }
  - { offset: 0xC51CF, size: 0x8, addend: 0x0, symName: __ZNSt3__1eqB8ne180100ERKNS_15__tree_iteratorINS_12__value_typeINS_12basic_stringIcNS_11char_traitsIcEENS_9allocatorIcEEEEN5Catch7TagInfoEEEPNS_11__tree_nodeISA_PvEElEESH_, symObjAddr: 0xAE918, symBinAddr: 0x1000AF22C, symSize: 0x30 }
  - { offset: 0xC5237, size: 0x8, addend: 0x0, symName: __ZNSt3__114__construct_atB8ne180100INS_4pairIKNS_12basic_stringIcNS_11char_traitsIcEENS_9allocatorIcEEEEN5Catch7TagInfoEEEJNS1_IS7_SA_EEEPSB_EEPT_SF_DpOT0_, symObjAddr: 0xAF31C, symBinAddr: 0x1000AFC30, symSize: 0x2C }
  - { offset: 0xC5290, size: 0x8, addend: 0x0, symName: __ZNSt3__112construct_atB8ne180100INS_4pairIKNS_12basic_stringIcNS_11char_traitsIcEENS_9allocatorIcEEEEN5Catch7TagInfoEEEJNS1_IS7_SA_EEEPSB_EEPT_SF_DpOT0_, symObjAddr: 0xAF348, symBinAddr: 0x1000AFC5C, symSize: 0x34 }
  - { offset: 0xC538A, size: 0x8, addend: 0x0, symName: __ZNSt3__110scientificB8ne180100ERNS_8ios_baseE, symObjAddr: 0xAFB2C, symBinAddr: 0x1000B0440, symSize: 0x30 }
  - { offset: 0xC53B9, size: 0x8, addend: 0x0, symName: __ZNSt3__19use_facetB8ne180100INS_7collateIcEEEERKT_RKNS_6localeE, symObjAddr: 0xAFE00, symBinAddr: 0x1000B0714, symSize: 0x2C }
  - { offset: 0xC53EF, size: 0x8, addend: 0x0, symName: __ZNSt3__119__throw_regex_errorB8ne180100ILNS_15regex_constants10error_typeE17EEEvv, symObjAddr: 0xB00FC, symBinAddr: 0x1000B0A10, symSize: 0x60 }
  - { offset: 0xC58A6, size: 0x8, addend: 0x0, symName: __ZNSt3__119__throw_regex_errorB8ne180100ILNS_15regex_constants10error_typeE14EEEvv, symObjAddr: 0xB0AA0, symBinAddr: 0x1000B13B4, symSize: 0x60 }
  - { offset: 0xC6359, size: 0x8, addend: 0x0, symName: __ZNSt3__14swapB8ne180100IPNS_13__empty_stateIcEEEENS_9enable_ifIXaasr21is_move_constructibleIT_EE5valuesr18is_move_assignableIS5_EE5valueEvE4typeERS5_S8_, symObjAddr: 0xB1960, symBinAddr: 0x1000B2274, symSize: 0x3C }
  - { offset: 0xC63AE, size: 0x8, addend: 0x0, symName: __ZNSt3__14nextB8ne180100INS_11__wrap_iterIPKcEELi0EEET_S5_NS_15iterator_traitsIS5_E15difference_typeE, symObjAddr: 0xB3204, symBinAddr: 0x1000B3B18, symSize: 0x3C }
  - { offset: 0xC63FA, size: 0x8, addend: 0x0, symName: __ZNSt3__119__throw_regex_errorB8ne180100ILNS_15regex_constants10error_typeE6EEEvv, symObjAddr: 0xB3400, symBinAddr: 0x1000B3D14, symSize: 0x60 }
  - { offset: 0xC64A6, size: 0x8, addend: 0x0, symName: __ZNSt3__18__is_eolB8ne180100IcEEbT_, symObjAddr: 0xB374C, symBinAddr: 0x1000B4060, symSize: 0x48 }
  - { offset: 0xC64DE, size: 0x8, addend: 0x0, symName: __ZNSt3__14prevB8ne180100IPKcLi0EEET_S3_NS_15iterator_traitsIS3_E15difference_typeE, symObjAddr: 0xB3794, symBinAddr: 0x1000B40A8, symSize: 0x3C }
  - { offset: 0xC652B, size: 0x8, addend: 0x0, symName: __ZNSt3__19__advanceB8ne180100IPKcEEvRT_NS_15iterator_traitsIS3_E15difference_typeENS_26random_access_iterator_tagE, symObjAddr: 0xB3808, symBinAddr: 0x1000B411C, symSize: 0x28 }
  - { offset: 0xC65FE, size: 0x8, addend: 0x0, symName: __ZNSt3__19__advanceB8ne180100INS_11__wrap_iterIPKcEEEEvRT_NS_15iterator_traitsIS5_E15difference_typeENS_26random_access_iterator_tagE, symObjAddr: 0xB3A80, symBinAddr: 0x1000B4394, symSize: 0x2C }
  - { offset: 0xC6AB4, size: 0x8, addend: 0x0, symName: __ZNSt3__112__to_addressB8ne180100INS_9sub_matchIPKcEEEEPT_S6_, symObjAddr: 0xB539C, symBinAddr: 0x1000B5CB0, symSize: 0x14 }
  - { offset: 0xC6AEB, size: 0x8, addend: 0x0, symName: __ZNSt3__112__destroy_atB8ne180100INS_9sub_matchIPKcEELi0EEEvPT_, symObjAddr: 0xB53B0, symBinAddr: 0x1000B5CC4, symSize: 0x10 }
  - { offset: 0xC6B25, size: 0x8, addend: 0x0, symName: __ZNSt3__16fill_nB8ne180100IPNS_9sub_matchIPKcEEmS4_EET_S6_T0_RKT1_, symObjAddr: 0xB55D4, symBinAddr: 0x1000B5EE8, symSize: 0x44 }
  - { offset: 0xC6B8C, size: 0x8, addend: 0x0, symName: __ZNSt3__18__fill_nB8ne180100IPNS_9sub_matchIPKcEEmS4_EET_S6_T0_RKT1_, symObjAddr: 0xB5930, symBinAddr: 0x1000B6244, symSize: 0x6C }
  - { offset: 0xC6BF3, size: 0x8, addend: 0x0, symName: __ZNSt3__114__construct_atB8ne180100INS_9sub_matchIPKcEEJRKS4_EPS4_EEPT_S9_DpOT0_, symObjAddr: 0xB5A80, symBinAddr: 0x1000B6394, symSize: 0x2C }
  - { offset: 0xC6C4C, size: 0x8, addend: 0x0, symName: __ZNSt3__112construct_atB8ne180100INS_9sub_matchIPKcEEJRKS4_EPS4_EEPT_S9_DpOT0_, symObjAddr: 0xB5AAC, symBinAddr: 0x1000B63C0, symSize: 0x2C }
  - { offset: 0xC6CA5, size: 0x8, addend: 0x0, symName: __ZNSt3__119__allocate_at_leastB8ne180100INS_9allocatorINS_9sub_matchIPKcEEEEEENS_19__allocation_resultINS_16allocator_traitsIT_E7pointerEEERS9_m, symObjAddr: 0xB5C2C, symBinAddr: 0x1000B6540, symSize: 0x40 }
  - { offset: 0xC6CEA, size: 0x8, addend: 0x0, symName: __ZNSt3__119__throw_regex_errorB8ne180100ILNS_15regex_constants10error_typeE12EEEvv, symObjAddr: 0xB5FE4, symBinAddr: 0x1000B68F8, symSize: 0x60 }
  - { offset: 0xC6D11, size: 0x8, addend: 0x0, symName: __ZNSt3__14nextB8ne180100IPKcLi0EEET_S3_NS_15iterator_traitsIS3_E15difference_typeE, symObjAddr: 0xB6070, symBinAddr: 0x1000B6984, symSize: 0x34 }
  - { offset: 0xC6D5D, size: 0x8, addend: 0x0, symName: __ZNSt3__119__throw_regex_errorB8ne180100ILNS_15regex_constants10error_typeE16EEEvv, symObjAddr: 0xB60D8, symBinAddr: 0x1000B69EC, symSize: 0x60 }
  - { offset: 0xC6D84, size: 0x8, addend: 0x0, symName: __ZNSt3__112__to_addressB8ne180100INS_7__stateIcEEEEPT_S4_, symObjAddr: 0xB6548, symBinAddr: 0x1000B6E5C, symSize: 0x14 }
  - { offset: 0xC6DBB, size: 0x8, addend: 0x0, symName: __ZNSt3__114__construct_atB8ne180100INS_7__stateIcEEJS2_EPS2_EEPT_S5_DpOT0_, symObjAddr: 0xB65D4, symBinAddr: 0x1000B6EE8, symSize: 0x2C }
  - { offset: 0xC6E14, size: 0x8, addend: 0x0, symName: __ZNSt3__112construct_atB8ne180100INS_7__stateIcEEJS2_EPS2_EEPT_S5_DpOT0_, symObjAddr: 0xB6600, symBinAddr: 0x1000B6F14, symSize: 0x34 }
  - { offset: 0xC6E6D, size: 0x8, addend: 0x0, symName: __ZNSt3__119__allocate_at_leastB8ne180100INS_9allocatorINS_7__stateIcEEEEEENS_19__allocation_resultINS_16allocator_traitsIT_E7pointerEEERS7_m, symObjAddr: 0xB7050, symBinAddr: 0x1000B7964, symSize: 0x40 }
  - { offset: 0xC6EB2, size: 0x8, addend: 0x0, symName: __ZNSt3__142__uninitialized_allocator_move_if_noexceptB8ne180100INS_9allocatorINS_7__stateIcEEEENS_16reverse_iteratorIPS3_EES7_S7_EET2_RT_T0_T1_S8_, symObjAddr: 0xB7218, symBinAddr: 0x1000B7B2C, symSize: 0x12C }
  - { offset: 0xC6F53, size: 0x8, addend: 0x0, symName: __ZNSt3__14swapB8ne180100IPNS_7__stateIcEEEENS_9enable_ifIXaasr21is_move_constructibleIT_EE5valuesr18is_move_assignableIS5_EE5valueEvE4typeERS5_S8_, symObjAddr: 0xB7390, symBinAddr: 0x1000B7CA4, symSize: 0x3C }
  - { offset: 0xC6FA8, size: 0x8, addend: 0x0, symName: __ZNSt3__122__make_exception_guardB8ne180100INS_29_AllocatorDestroyRangeReverseINS_9allocatorINS_7__stateIcEEEENS_16reverse_iteratorIPS4_EEEEEENS_28__exception_guard_exceptionsIT_EESB_, symObjAddr: 0xB73E0, symBinAddr: 0x1000B7CF4, symSize: 0x4C }
  - { offset: 0xC6FE0, size: 0x8, addend: 0x0, symName: __ZNSt3__1neB8ne180100IPNS_7__stateIcEES3_EEbRKNS_16reverse_iteratorIT_EERKNS4_IT0_EE, symObjAddr: 0xB7470, symBinAddr: 0x1000B7D84, symSize: 0x48 }
  - { offset: 0xC702F, size: 0x8, addend: 0x0, symName: __ZNSt3__112__to_addressB8ne180100INS_16reverse_iteratorIPNS_7__stateIcEEEEvEEu7__decayIDTclsr19__to_address_helperIT_EE6__callclsr3stdE7declvalIRKS6_EEEEES8_, symObjAddr: 0xB74B8, symBinAddr: 0x1000B7DCC, symSize: 0x24 }
  - { offset: 0xC7092, size: 0x8, addend: 0x0, symName: __ZNSt3__14prevB8ne180100IPNS_7__stateIcEELi0EEET_S4_NS_15iterator_traitsIS4_E15difference_typeE, symObjAddr: 0xB766C, symBinAddr: 0x1000B7F80, symSize: 0x3C }
  - { offset: 0xC70DF, size: 0x8, addend: 0x0, symName: __ZNSt3__19__advanceB8ne180100IPNS_7__stateIcEEEEvRT_NS_15iterator_traitsIS4_E15difference_typeENS_26random_access_iterator_tagE, symObjAddr: 0xB76E0, symBinAddr: 0x1000B7FF4, symSize: 0x30 }
  - { offset: 0xC712B, size: 0x8, addend: 0x0, symName: __ZNSt3__119__allocator_destroyB8ne180100INS_9allocatorINS_7__stateIcEEEENS_16reverse_iteratorINS5_IPS3_EEEES8_EEvRT_T0_T1_, symObjAddr: 0xB7814, symBinAddr: 0x1000B8128, symSize: 0x70 }
  - { offset: 0xC7191, size: 0x8, addend: 0x0, symName: __ZNSt3__1neB8ne180100INS_16reverse_iteratorIPNS_7__stateIcEEEES5_EEbRKNS1_IT_EERKNS1_IT0_EE, symObjAddr: 0xB78C0, symBinAddr: 0x1000B81D4, symSize: 0x60 }
  - { offset: 0xC71E0, size: 0x8, addend: 0x0, symName: __ZNSt3__112__to_addressB8ne180100INS_16reverse_iteratorINS1_IPNS_7__stateIcEEEEEEvEEu7__decayIDTclsr19__to_address_helperIT_EE6__callclsr3stdE7declvalIRKS7_EEEEES9_, symObjAddr: 0xB7948, symBinAddr: 0x1000B825C, symSize: 0x24 }
  - { offset: 0xC7218, size: 0x8, addend: 0x0, symName: __ZNSt3__112__destroy_atB8ne180100INS_7__stateIcEELi0EEEvPT_, symObjAddr: 0xB79C0, symBinAddr: 0x1000B82D4, symSize: 0x24 }
  - { offset: 0xC727D, size: 0x8, addend: 0x0, symName: __ZNSt3__14prevB8ne180100INS_16reverse_iteratorIPNS_7__stateIcEEEELi0EEET_S6_NS_15iterator_traitsIS6_E15difference_typeE, symObjAddr: 0xB7A68, symBinAddr: 0x1000B837C, symSize: 0x4C }
  - { offset: 0xC72CA, size: 0x8, addend: 0x0, symName: __ZNSt3__19__advanceB8ne180100INS_16reverse_iteratorIPNS_7__stateIcEEEEEEvRT_NS_15iterator_traitsIS6_E15difference_typeENS_26random_access_iterator_tagE, symObjAddr: 0xB7AEC, symBinAddr: 0x1000B8400, symSize: 0x2C }
  - { offset: 0xC7317, size: 0x8, addend: 0x0, symName: __ZNSt3__112__to_addressB8ne180100INS_4pairImPKcEEEEPT_S6_, symObjAddr: 0xB83E8, symBinAddr: 0x1000B8CFC, symSize: 0x14 }
  - { offset: 0xC734E, size: 0x8, addend: 0x0, symName: __ZNSt3__112__destroy_atB8ne180100INS_4pairImPKcEELi0EEEvPT_, symObjAddr: 0xB83FC, symBinAddr: 0x1000B8D10, symSize: 0x10 }
  - { offset: 0xC7387, size: 0x8, addend: 0x0, symName: __ZNSt3__142__uninitialized_allocator_move_if_noexceptB8ne180100INS_9allocatorINS_9sub_matchIPKcEEEENS_16reverse_iteratorIPS5_EES9_S9_EET2_RT_T0_T1_SA_, symObjAddr: 0xB8B08, symBinAddr: 0x1000B941C, symSize: 0x12C }
  - { offset: 0xC7428, size: 0x8, addend: 0x0, symName: __ZNSt3__14swapB8ne180100IPNS_9sub_matchIPKcEEEENS_9enable_ifIXaasr21is_move_constructibleIT_EE5valuesr18is_move_assignableIS7_EE5valueEvE4typeERS7_SA_, symObjAddr: 0xB8C80, symBinAddr: 0x1000B9594, symSize: 0x3C }
  - { offset: 0xC747D, size: 0x8, addend: 0x0, symName: __ZNSt3__122__make_exception_guardB8ne180100INS_29_AllocatorDestroyRangeReverseINS_9allocatorINS_9sub_matchIPKcEEEENS_16reverse_iteratorIPS6_EEEEEENS_28__exception_guard_exceptionsIT_EESD_, symObjAddr: 0xB8CBC, symBinAddr: 0x1000B95D0, symSize: 0x4C }
  - { offset: 0xC74B5, size: 0x8, addend: 0x0, symName: __ZNSt3__1neB8ne180100IPNS_9sub_matchIPKcEES5_EEbRKNS_16reverse_iteratorIT_EERKNS6_IT0_EE, symObjAddr: 0xB8D4C, symBinAddr: 0x1000B9660, symSize: 0x48 }
  - { offset: 0xC7504, size: 0x8, addend: 0x0, symName: __ZNSt3__112__to_addressB8ne180100INS_16reverse_iteratorIPNS_9sub_matchIPKcEEEEvEEu7__decayIDTclsr19__to_address_helperIT_EE6__callclsr3stdE7declvalIRKS8_EEEEESA_, symObjAddr: 0xB8DC4, symBinAddr: 0x1000B96D8, symSize: 0x24 }
  - { offset: 0xC753C, size: 0x8, addend: 0x0, symName: __ZNSt3__114__construct_atB8ne180100INS_9sub_matchIPKcEEJS4_EPS4_EEPT_S7_DpOT0_, symObjAddr: 0xB8F14, symBinAddr: 0x1000B9828, symSize: 0x2C }
  - { offset: 0xC7595, size: 0x8, addend: 0x0, symName: __ZNSt3__112construct_atB8ne180100INS_9sub_matchIPKcEEJS4_EPS4_EEPT_S7_DpOT0_, symObjAddr: 0xB8F40, symBinAddr: 0x1000B9854, symSize: 0x2C }
  - { offset: 0xC7619, size: 0x8, addend: 0x0, symName: __ZNSt3__14prevB8ne180100IPNS_9sub_matchIPKcEELi0EEET_S6_NS_15iterator_traitsIS6_E15difference_typeE, symObjAddr: 0xB8FD0, symBinAddr: 0x1000B98E4, symSize: 0x3C }
  - { offset: 0xC7666, size: 0x8, addend: 0x0, symName: __ZNSt3__19__advanceB8ne180100IPNS_9sub_matchIPKcEEEEvRT_NS_15iterator_traitsIS6_E15difference_typeENS_26random_access_iterator_tagE, symObjAddr: 0xB9044, symBinAddr: 0x1000B9958, symSize: 0x30 }
  - { offset: 0xC76B2, size: 0x8, addend: 0x0, symName: __ZNSt3__119__allocator_destroyB8ne180100INS_9allocatorINS_9sub_matchIPKcEEEENS_16reverse_iteratorINS7_IPS5_EEEESA_EEvRT_T0_T1_, symObjAddr: 0xB9178, symBinAddr: 0x1000B9A8C, symSize: 0x70 }
  - { offset: 0xC7718, size: 0x8, addend: 0x0, symName: __ZNSt3__1neB8ne180100INS_16reverse_iteratorIPNS_9sub_matchIPKcEEEES7_EEbRKNS1_IT_EERKNS1_IT0_EE, symObjAddr: 0xB9224, symBinAddr: 0x1000B9B38, symSize: 0x60 }
  - { offset: 0xC7767, size: 0x8, addend: 0x0, symName: __ZNSt3__112__to_addressB8ne180100INS_16reverse_iteratorINS1_IPNS_9sub_matchIPKcEEEEEEvEEu7__decayIDTclsr19__to_address_helperIT_EE6__callclsr3stdE7declvalIRKS9_EEEEESB_, symObjAddr: 0xB9284, symBinAddr: 0x1000B9B98, symSize: 0x24 }
  - { offset: 0xC77CA, size: 0x8, addend: 0x0, symName: __ZNSt3__14prevB8ne180100INS_16reverse_iteratorIPNS_9sub_matchIPKcEEEELi0EEET_S8_NS_15iterator_traitsIS8_E15difference_typeE, symObjAddr: 0xB9380, symBinAddr: 0x1000B9C94, symSize: 0x4C }
  - { offset: 0xC7817, size: 0x8, addend: 0x0, symName: __ZNSt3__19__advanceB8ne180100INS_16reverse_iteratorIPNS_9sub_matchIPKcEEEEEEvRT_NS_15iterator_traitsIS8_E15difference_typeENS_26random_access_iterator_tagE, symObjAddr: 0xB9404, symBinAddr: 0x1000B9D18, symSize: 0x2C }
  - { offset: 0xC7864, size: 0x8, addend: 0x0, symName: __ZNSt3__114__construct_atB8ne180100INS_4pairImPKcEEJEPS4_EEPT_S7_DpOT0_, symObjAddr: 0xB9CC0, symBinAddr: 0x1000BA5D4, symSize: 0x24 }
  - { offset: 0xC78A7, size: 0x8, addend: 0x0, symName: __ZNSt3__112construct_atB8ne180100INS_4pairImPKcEEJEPS4_EEPT_S7_DpOT0_, symObjAddr: 0xB9CE4, symBinAddr: 0x1000BA5F8, symSize: 0x2C }
  - { offset: 0xC78EA, size: 0x8, addend: 0x0, symName: __ZNSt3__119__allocate_at_leastB8ne180100INS_9allocatorINS_4pairImPKcEEEEEENS_19__allocation_resultINS_16allocator_traitsIT_E7pointerEEERS9_m, symObjAddr: 0xB9F8C, symBinAddr: 0x1000BA8A0, symSize: 0x40 }
  - { offset: 0xC792F, size: 0x8, addend: 0x0, symName: __ZNSt3__142__uninitialized_allocator_move_if_noexceptB8ne180100INS_9allocatorINS_4pairImPKcEEEENS_16reverse_iteratorIPS5_EES9_S9_EET2_RT_T0_T1_SA_, symObjAddr: 0xBA20C, symBinAddr: 0x1000BAB20, symSize: 0x12C }
  - { offset: 0xC79D0, size: 0x8, addend: 0x0, symName: __ZNSt3__14swapB8ne180100IPNS_4pairImPKcEEEENS_9enable_ifIXaasr21is_move_constructibleIT_EE5valuesr18is_move_assignableIS7_EE5valueEvE4typeERS7_SA_, symObjAddr: 0xBA384, symBinAddr: 0x1000BAC98, symSize: 0x3C }
  - { offset: 0xC7A25, size: 0x8, addend: 0x0, symName: __ZNSt3__122__make_exception_guardB8ne180100INS_29_AllocatorDestroyRangeReverseINS_9allocatorINS_4pairImPKcEEEENS_16reverse_iteratorIPS6_EEEEEENS_28__exception_guard_exceptionsIT_EESD_, symObjAddr: 0xBA3D4, symBinAddr: 0x1000BACE8, symSize: 0x4C }
  - { offset: 0xC7A5D, size: 0x8, addend: 0x0, symName: __ZNSt3__1neB8ne180100IPNS_4pairImPKcEES5_EEbRKNS_16reverse_iteratorIT_EERKNS6_IT0_EE, symObjAddr: 0xBA464, symBinAddr: 0x1000BAD78, symSize: 0x48 }
  - { offset: 0xC7AAC, size: 0x8, addend: 0x0, symName: __ZNSt3__112__to_addressB8ne180100INS_16reverse_iteratorIPNS_4pairImPKcEEEEvEEu7__decayIDTclsr19__to_address_helperIT_EE6__callclsr3stdE7declvalIRKS8_EEEEESA_, symObjAddr: 0xBA4DC, symBinAddr: 0x1000BADF0, symSize: 0x24 }
  - { offset: 0xC7AE4, size: 0x8, addend: 0x0, symName: __ZNSt3__114__construct_atB8ne180100INS_4pairImPKcEEJS4_EPS4_EEPT_S7_DpOT0_, symObjAddr: 0xBA62C, symBinAddr: 0x1000BAF40, symSize: 0x2C }
  - { offset: 0xC7B3D, size: 0x8, addend: 0x0, symName: __ZNSt3__112construct_atB8ne180100INS_4pairImPKcEEJS4_EPS4_EEPT_S7_DpOT0_, symObjAddr: 0xBA658, symBinAddr: 0x1000BAF6C, symSize: 0x24 }
  - { offset: 0xC7BC1, size: 0x8, addend: 0x0, symName: __ZNSt3__14prevB8ne180100IPNS_4pairImPKcEELi0EEET_S6_NS_15iterator_traitsIS6_E15difference_typeE, symObjAddr: 0xBA6E0, symBinAddr: 0x1000BAFF4, symSize: 0x3C }
  - { offset: 0xC7C0E, size: 0x8, addend: 0x0, symName: __ZNSt3__19__advanceB8ne180100IPNS_4pairImPKcEEEEvRT_NS_15iterator_traitsIS6_E15difference_typeENS_26random_access_iterator_tagE, symObjAddr: 0xBA754, symBinAddr: 0x1000BB068, symSize: 0x28 }
  - { offset: 0xC7C5A, size: 0x8, addend: 0x0, symName: __ZNSt3__119__allocator_destroyB8ne180100INS_9allocatorINS_4pairImPKcEEEENS_16reverse_iteratorINS7_IPS5_EEEESA_EEvRT_T0_T1_, symObjAddr: 0xBA880, symBinAddr: 0x1000BB194, symSize: 0x70 }
  - { offset: 0xC7CC0, size: 0x8, addend: 0x0, symName: __ZNSt3__1neB8ne180100INS_16reverse_iteratorIPNS_4pairImPKcEEEES7_EEbRKNS1_IT_EERKNS1_IT0_EE, symObjAddr: 0xBA92C, symBinAddr: 0x1000BB240, symSize: 0x60 }
  - { offset: 0xC7D0F, size: 0x8, addend: 0x0, symName: __ZNSt3__112__to_addressB8ne180100INS_16reverse_iteratorINS1_IPNS_4pairImPKcEEEEEEvEEu7__decayIDTclsr19__to_address_helperIT_EE6__callclsr3stdE7declvalIRKS9_EEEEESB_, symObjAddr: 0xBA98C, symBinAddr: 0x1000BB2A0, symSize: 0x24 }
  - { offset: 0xC7D72, size: 0x8, addend: 0x0, symName: __ZNSt3__14prevB8ne180100INS_16reverse_iteratorIPNS_4pairImPKcEEEELi0EEET_S8_NS_15iterator_traitsIS8_E15difference_typeE, symObjAddr: 0xBAA88, symBinAddr: 0x1000BB39C, symSize: 0x4C }
  - { offset: 0xC7DBF, size: 0x8, addend: 0x0, symName: __ZNSt3__19__advanceB8ne180100INS_16reverse_iteratorIPNS_4pairImPKcEEEEEEvRT_NS_15iterator_traitsIS8_E15difference_typeENS_26random_access_iterator_tagE, symObjAddr: 0xBAB0C, symBinAddr: 0x1000BB420, symSize: 0x2C }
  - { offset: 0xC7E0C, size: 0x8, addend: 0x0, symName: __ZNSt3__122__make_exception_guardB8ne180100INS_6vectorINS_9sub_matchIPKcEENS_9allocatorIS5_EEE16__destroy_vectorEEENS_28__exception_guard_exceptionsIT_EESB_, symObjAddr: 0xBB12C, symBinAddr: 0x1000BBA40, symSize: 0x40 }
  - { offset: 0xC7E42, size: 0x8, addend: 0x0, symName: __ZNSt3__130__uninitialized_allocator_copyB8ne180100INS_9allocatorINS_9sub_matchIPKcEEEEPS5_S7_S7_EET2_RT_T0_T1_S8_, symObjAddr: 0xBB298, symBinAddr: 0x1000BBBAC, symSize: 0x80 }
  - { offset: 0xC7EE0, size: 0x8, addend: 0x0, symName: __ZNSt3__114__unwrap_rangeB8ne180100IPNS_9sub_matchIPKcEES5_EEDaT_T0_, symObjAddr: 0xBB318, symBinAddr: 0x1000BBC2C, symSize: 0x3C }
  - { offset: 0xC7F2E, size: 0x8, addend: 0x0, symName: __ZNSt3__135__uninitialized_allocator_copy_implB8ne180100INS_9allocatorINS_9sub_matchIPKcEEEEPS5_S7_S7_EET2_RT_T0_T1_S8_, symObjAddr: 0xBB354, symBinAddr: 0x1000BBC68, symSize: 0xF4 }
  - { offset: 0xC7FCD, size: 0x8, addend: 0x0, symName: __ZNSt3__113__unwrap_iterB8ne180100IPNS_9sub_matchIPKcEENS_18__unwrap_iter_implIS5_Lb1EEELi0EEEDTclsrT0_8__unwrapclsr3stdE7declvalIT_EEEES9_, symObjAddr: 0xBB448, symBinAddr: 0x1000BBD5C, symSize: 0x24 }
  - { offset: 0xC8014, size: 0x8, addend: 0x0, symName: __ZNSt3__113__rewrap_iterB8ne180100IPNS_9sub_matchIPKcEES5_NS_18__unwrap_iter_implIS5_Lb1EEEEET_S8_T0_, symObjAddr: 0xBB46C, symBinAddr: 0x1000BBD80, symSize: 0x3C }
  - { offset: 0xC8194, size: 0x8, addend: 0x0, symName: __ZNSt3__122__make_exception_guardB8ne180100INS_29_AllocatorDestroyRangeReverseINS_9allocatorINS_9sub_matchIPKcEEEEPS6_EEEENS_28__exception_guard_exceptionsIT_EESB_, symObjAddr: 0xBB570, symBinAddr: 0x1000BBE84, symSize: 0x4C }
  - { offset: 0xC81CC, size: 0x8, addend: 0x0, symName: __ZNSt3__114__construct_atB8ne180100INS_9sub_matchIPKcEEJRS4_EPS4_EEPT_S8_DpOT0_, symObjAddr: 0xBB714, symBinAddr: 0x1000BC028, symSize: 0x2C }
  - { offset: 0xC8225, size: 0x8, addend: 0x0, symName: __ZNSt3__112construct_atB8ne180100INS_9sub_matchIPKcEEJRS4_EPS4_EEPT_S8_DpOT0_, symObjAddr: 0xBB740, symBinAddr: 0x1000BC054, symSize: 0x2C }
  - { offset: 0xC827D, size: 0x8, addend: 0x0, symName: __ZNSt3__119__allocator_destroyB8ne180100INS_9allocatorINS_9sub_matchIPKcEEEENS_16reverse_iteratorIPS5_EES9_EEvRT_T0_T1_, symObjAddr: 0xBB824, symBinAddr: 0x1000BC138, symSize: 0x70 }
  - { offset: 0xC8339, size: 0x8, addend: 0x0, symName: __ZNSt3__122__make_exception_guardB8ne180100INS_6vectorINS_4pairImPKcEENS_9allocatorIS5_EEE16__destroy_vectorEEENS_28__exception_guard_exceptionsIT_EESB_, symObjAddr: 0xBBAB4, symBinAddr: 0x1000BC3C8, symSize: 0x40 }
  - { offset: 0xC836F, size: 0x8, addend: 0x0, symName: __ZNSt3__130__uninitialized_allocator_copyB8ne180100INS_9allocatorINS_4pairImPKcEEEEPS5_S7_S7_EET2_RT_T0_T1_S8_, symObjAddr: 0xBBCCC, symBinAddr: 0x1000BC5E0, symSize: 0x80 }
  - { offset: 0xC840D, size: 0x8, addend: 0x0, symName: __ZNSt3__114__unwrap_rangeB8ne180100IPNS_4pairImPKcEES5_EEDaT_T0_, symObjAddr: 0xBBD4C, symBinAddr: 0x1000BC660, symSize: 0x3C }
  - { offset: 0xC845B, size: 0x8, addend: 0x0, symName: __ZNSt3__135__uninitialized_allocator_copy_implB8ne180100INS_9allocatorINS_4pairImPKcEEEEPS5_S7_S7_EET2_RT_T0_T1_S8_, symObjAddr: 0xBBD88, symBinAddr: 0x1000BC69C, symSize: 0xF4 }
  - { offset: 0xC84FA, size: 0x8, addend: 0x0, symName: __ZNSt3__113__unwrap_iterB8ne180100IPNS_4pairImPKcEENS_18__unwrap_iter_implIS5_Lb1EEELi0EEEDTclsrT0_8__unwrapclsr3stdE7declvalIT_EEEES9_, symObjAddr: 0xBBE7C, symBinAddr: 0x1000BC790, symSize: 0x24 }
  - { offset: 0xC8541, size: 0x8, addend: 0x0, symName: __ZNSt3__113__rewrap_iterB8ne180100IPNS_4pairImPKcEES5_NS_18__unwrap_iter_implIS5_Lb1EEEEET_S8_T0_, symObjAddr: 0xBBEA0, symBinAddr: 0x1000BC7B4, symSize: 0x3C }
  - { offset: 0xC86C1, size: 0x8, addend: 0x0, symName: __ZNSt3__122__make_exception_guardB8ne180100INS_29_AllocatorDestroyRangeReverseINS_9allocatorINS_4pairImPKcEEEEPS6_EEEENS_28__exception_guard_exceptionsIT_EESB_, symObjAddr: 0xBBFA4, symBinAddr: 0x1000BC8B8, symSize: 0x4C }
  - { offset: 0xC86F9, size: 0x8, addend: 0x0, symName: __ZNSt3__114__construct_atB8ne180100INS_4pairImPKcEEJRS4_EPS4_EEPT_S8_DpOT0_, symObjAddr: 0xBC148, symBinAddr: 0x1000BCA5C, symSize: 0x2C }
  - { offset: 0xC8752, size: 0x8, addend: 0x0, symName: __ZNSt3__112construct_atB8ne180100INS_4pairImPKcEEJRS4_EPS4_EEPT_S8_DpOT0_, symObjAddr: 0xBC174, symBinAddr: 0x1000BCA88, symSize: 0x24 }
  - { offset: 0xC87AA, size: 0x8, addend: 0x0, symName: __ZNSt3__119__allocator_destroyB8ne180100INS_9allocatorINS_4pairImPKcEEEENS_16reverse_iteratorIPS5_EES9_EEvRT_T0_T1_, symObjAddr: 0xBC250, symBinAddr: 0x1000BCB64, symSize: 0x70 }
  - { offset: 0xC8865, size: 0x8, addend: 0x0, symName: __ZNSt3__119__throw_regex_errorB8ne180100ILNS_15regex_constants10error_typeE11EEEvv, symObjAddr: 0xBCB24, symBinAddr: 0x1000BD438, symSize: 0x60 }
  - { offset: 0xC88FF, size: 0x8, addend: 0x0, symName: __ZNSt3__119__throw_regex_errorB8ne180100ILNS_15regex_constants10error_typeE3EEEvv, symObjAddr: 0xBCEAC, symBinAddr: 0x1000BD7C0, symSize: 0x60 }
  - { offset: 0xC8925, size: 0x8, addend: 0x0, symName: __ZNSt3__119__throw_regex_errorB8ne180100ILNS_15regex_constants10error_typeE4EEEvv, symObjAddr: 0xBDCB4, symBinAddr: 0x1000BE5C8, symSize: 0x60 }
  - { offset: 0xC8D66, size: 0x8, addend: 0x0, symName: __ZNSt3__15equalB8ne180100IPKcS2_EEbT_S3_T0_, symObjAddr: 0xBEE04, symBinAddr: 0x1000BF718, symSize: 0x38 }
  - { offset: 0xC8DC4, size: 0x8, addend: 0x0, symName: __ZNSt3__15equalB8ne180100IPKcS2_NS_10__equal_toEEEbT_S4_T0_T1_, symObjAddr: 0xBEE3C, symBinAddr: 0x1000BF750, symSize: 0x5C }
  - { offset: 0xC8E3A, size: 0x8, addend: 0x0, symName: __ZNSt3__112__to_addressB8ne180100INS_4pairIccEEEEPT_S4_, symObjAddr: 0xC03E8, symBinAddr: 0x1000C0CFC, symSize: 0x14 }
  - { offset: 0xC8E71, size: 0x8, addend: 0x0, symName: __ZNSt3__112__destroy_atB8ne180100INS_4pairIccEELi0EEEvPT_, symObjAddr: 0xC03FC, symBinAddr: 0x1000C0D10, symSize: 0x10 }
  - { offset: 0xC8EAB, size: 0x8, addend: 0x0, symName: __ZNSt3__112__to_addressB8ne180100INS_4pairINS_12basic_stringIcNS_11char_traitsIcEENS_9allocatorIcEEEES7_EEEEPT_SA_, symObjAddr: 0xC0794, symBinAddr: 0x1000C10A8, symSize: 0x14 }
  - { offset: 0xC8EE2, size: 0x8, addend: 0x0, symName: __ZNSt3__112__destroy_atB8ne180100INS_4pairINS_12basic_stringIcNS_11char_traitsIcEENS_9allocatorIcEEEES7_EELi0EEEvPT_, symObjAddr: 0xC07A8, symBinAddr: 0x1000C10BC, symSize: 0x24 }
  - { offset: 0xC8F1B, size: 0x8, addend: 0x0, symName: __ZNSt3__1eqB8ne180100IccccEEbRKNS_4pairIT_T0_EERKNS1_IT1_T2_EE, symObjAddr: 0xC0D04, symBinAddr: 0x1000C1618, symSize: 0x64 }
  - { offset: 0xC8F7D, size: 0x8, addend: 0x0, symName: __ZNSt3__1leB8ne180100ENS_15strong_orderingENS_20_CmpUnspecifiedParamE, symObjAddr: 0xC0ECC, symBinAddr: 0x1000C17E0, symSize: 0x24 }
  - { offset: 0xC8FB6, size: 0x8, addend: 0x0, symName: __ZNSt3__14findB8ne180100INS_11__wrap_iterIPKcEEcEET_S5_S5_RKT0_, symObjAddr: 0xC0FC8, symBinAddr: 0x1000C18DC, symSize: 0x78 }
  - { offset: 0xC9023, size: 0x8, addend: 0x0, symName: __ZNSt3__18distanceB8ne180100IPcEENS_15iterator_traitsIT_E15difference_typeES3_S3_, symObjAddr: 0xC13D0, symBinAddr: 0x1000C1CE4, symSize: 0x2C }
  - { offset: 0xC9069, size: 0x8, addend: 0x0, symName: __ZNSt3__110__distanceB8ne180100IPcEENS_15iterator_traitsIT_E15difference_typeES3_S3_NS_26random_access_iterator_tagE, symObjAddr: 0xC154C, symBinAddr: 0x1000C1E60, symSize: 0x20 }
  - { offset: 0xC90BA, size: 0x8, addend: 0x0, symName: __ZNSt3__119__allocate_at_leastB8ne180100INS_9allocatorIcEEEENS_19__allocation_resultINS_16allocator_traitsIT_E7pointerEEERS5_m, symObjAddr: 0xC156C, symBinAddr: 0x1000C1E80, symSize: 0x40 }
  - { offset: 0xC9100, size: 0x8, addend: 0x0, symName: __ZNSt3__113__rewrap_iterB8ne180100INS_11__wrap_iterIPKcEES3_NS_18__unwrap_iter_implIS4_Lb1EEEEET_S7_T0_, symObjAddr: 0xC1748, symBinAddr: 0x1000C205C, symSize: 0x4C }
  - { offset: 0xC9158, size: 0x8, addend: 0x0, symName: __ZNSt3__111__find_implB8ne180100IKccNS_10__identityELi0EEEPT_S4_S4_RKT0_RT1_, symObjAddr: 0xC1794, symBinAddr: 0x1000C20A8, symSize: 0x78 }
  - { offset: 0xC91E6, size: 0x8, addend: 0x0, symName: __ZNSt3__114__construct_atB8ne180100IcJcEPcEEPT_S3_DpOT0_, symObjAddr: 0xC1CA0, symBinAddr: 0x1000C25B4, symSize: 0x2C }
  - { offset: 0xC923F, size: 0x8, addend: 0x0, symName: __ZNSt3__112construct_atB8ne180100IcJcEPcEEPT_S3_DpOT0_, symObjAddr: 0xC1CCC, symBinAddr: 0x1000C25E0, symSize: 0x24 }
  - { offset: 0xC9297, size: 0x8, addend: 0x0, symName: __ZNSt3__142__uninitialized_allocator_move_if_noexceptB8ne180100INS_9allocatorIcEENS_16reverse_iteratorIPcEES5_cvEET1_RT_T0_S9_S6_, symObjAddr: 0xC2238, symBinAddr: 0x1000C2B4C, symSize: 0x78 }
  - { offset: 0xC9315, size: 0x8, addend: 0x0, symName: __ZNSt3__14swapB8ne180100IPcEENS_9enable_ifIXaasr21is_move_constructibleIT_EE5valuesr18is_move_assignableIS3_EE5valueEvE4typeERS3_S6_, symObjAddr: 0xC22FC, symBinAddr: 0x1000C2C10, symSize: 0x3C }
  - { offset: 0xC936A, size: 0x8, addend: 0x0, symName: __ZNSt3__14moveB8ne180100INS_16reverse_iteratorIPcEES3_EET0_T_S5_S4_, symObjAddr: 0xC234C, symBinAddr: 0x1000C2C60, symSize: 0x78 }
  - { offset: 0xC93C8, size: 0x8, addend: 0x0, symName: __ZNSt3__16__moveB8ne180100INS_17_ClassicAlgPolicyENS_16reverse_iteratorIPcEES4_S4_EENS_4pairIT0_T2_EES6_T1_S7_, symObjAddr: 0xC23C4, symBinAddr: 0x1000C2CD8, symSize: 0x64 }
  - { offset: 0xC9438, size: 0x8, addend: 0x0, symName: __ZNSt3__123__dispatch_copy_or_moveB8ne180100INS_17_ClassicAlgPolicyENS_11__move_loopIS1_EENS_14__move_trivialENS_16reverse_iteratorIPcEES7_S7_EENS_4pairIT2_T4_EES9_T3_SA_, symObjAddr: 0xC2428, symBinAddr: 0x1000C2D3C, symSize: 0x64 }
  - { offset: 0xC94BA, size: 0x8, addend: 0x0, symName: __ZNSt3__121__unwrap_and_dispatchB8ne180100INS_10__overloadINS_11__move_loopINS_17_ClassicAlgPolicyEEENS_14__move_trivialEEENS_16reverse_iteratorIPcEES9_S9_Li0EEENS_4pairIT0_T2_EESB_T1_SC_, symObjAddr: 0xC248C, symBinAddr: 0x1000C2DA0, symSize: 0x12C }
  - { offset: 0xC9551, size: 0x8, addend: 0x0, symName: __ZNSt3__114__unwrap_rangeB8ne180100INS_16reverse_iteratorIPcEES3_EEDaT_T0_, symObjAddr: 0xC25B8, symBinAddr: 0x1000C2ECC, symSize: 0x4C }
  - { offset: 0xC967B, size: 0x8, addend: 0x0, symName: __ZNSt3__113__unwrap_iterB8ne180100INS_16reverse_iteratorIPcEENS_18__unwrap_iter_implIS3_Lb0EEELi0EEEDTclsrT0_8__unwrapclsr3stdE7declvalIT_EEEES7_, symObjAddr: 0xC26A4, symBinAddr: 0x1000C2FB8, symSize: 0x44 }
  - { offset: 0xC96C1, size: 0x8, addend: 0x0, symName: __ZNSt3__19make_pairB8ne180100INS_16reverse_iteratorIPcEES3_EENS_4pairINS_18__unwrap_ref_decayIT_E4typeENS5_IT0_E4typeEEEOS6_OS9_, symObjAddr: 0xC26E8, symBinAddr: 0x1000C2FFC, symSize: 0x38 }
  - { offset: 0xC9711, size: 0x8, addend: 0x0, symName: __ZNSt3__114__rewrap_rangeB8ne180100INS_16reverse_iteratorIPcEES3_S3_EET0_S4_T1_, symObjAddr: 0xC2720, symBinAddr: 0x1000C3034, symSize: 0x5C }
  - { offset: 0xC9769, size: 0x8, addend: 0x0, symName: __ZNSt3__113__rewrap_iterB8ne180100INS_16reverse_iteratorIPcEES3_NS_18__unwrap_iter_implIS3_Lb0EEEEET_S6_T0_, symObjAddr: 0xC277C, symBinAddr: 0x1000C3090, symSize: 0x74 }
  - { offset: 0xC9814, size: 0x8, addend: 0x0, symName: __ZNSt3__1neB8ne180100IPcS1_EEbRKNS_16reverse_iteratorIT_EERKNS2_IT0_EE, symObjAddr: 0xC28E4, symBinAddr: 0x1000C31F8, symSize: 0x48 }
  - { offset: 0xC98BB, size: 0x8, addend: 0x0, symName: __ZNSt3__114__construct_atB8ne180100IcJRKcEPcEEPT_S5_DpOT0_, symObjAddr: 0xC2E00, symBinAddr: 0x1000C3714, symSize: 0x2C }
  - { offset: 0xC9914, size: 0x8, addend: 0x0, symName: __ZNSt3__112construct_atB8ne180100IcJRKcEPcEEPT_S5_DpOT0_, symObjAddr: 0xC2E2C, symBinAddr: 0x1000C3740, symSize: 0x24 }
  - { offset: 0xC996C, size: 0x8, addend: 0x0, symName: __ZNSt3__17__is_07B8ne180100Eh, symObjAddr: 0xC2FE0, symBinAddr: 0x1000C38F4, symSize: 0x24 }
  - { offset: 0xC999A, size: 0x8, addend: 0x0, symName: __ZNSt3__17__is_89B8ne180100Eh, symObjAddr: 0xC3004, symBinAddr: 0x1000C3918, symSize: 0x24 }
  - { offset: 0xC99C8, size: 0x8, addend: 0x0, symName: __ZNSt3__110__to_lowerB8ne180100Eh, symObjAddr: 0xC3028, symBinAddr: 0x1000C393C, symSize: 0x1C }
  - { offset: 0xC99F6, size: 0x8, addend: 0x0, symName: __ZNSt3__119__throw_regex_errorB8ne180100ILNS_15regex_constants10error_typeE5EEEvv, symObjAddr: 0xC3044, symBinAddr: 0x1000C3958, symSize: 0x60 }
  - { offset: 0xC9A1D, size: 0x8, addend: 0x0, symName: __ZNSt3__16searchB8ne180100INS_11__wrap_iterIPKcEEPcEET_S6_S6_T0_S7_, symObjAddr: 0xC4C90, symBinAddr: 0x1000C55A4, symSize: 0x54 }
  - { offset: 0xC9A89, size: 0x8, addend: 0x0, symName: __ZNSt3__119__throw_regex_errorB8ne180100ILNS_15regex_constants10error_typeE1EEEvv, symObjAddr: 0xC4D34, symBinAddr: 0x1000C5648, symSize: 0x60 }
  - { offset: 0xC9AB0, size: 0x8, addend: 0x0, symName: __ZNSt3__16searchB8ne180100INS_11__wrap_iterIPKcEEPcNS_10__equal_toEEET_S7_S7_T0_S8_T1_, symObjAddr: 0xC4E14, symBinAddr: 0x1000C5728, symSize: 0x74 }
  - { offset: 0xC9B44, size: 0x8, addend: 0x0, symName: __ZNSt3__113__search_implB8ne180100INS_11__wrap_iterIPKcEES4_PcS5_NS_10__equal_toENS_10__identityES7_EENS_4pairIT_S9_EES9_T0_T1_T2_RT3_RT4_RT5_PNS_9enable_ifIXaasr37__has_random_access_iterator_categoryIS9_EE5valuesr37__has_random_access_iterator_categoryISC_EE5valueEvE4typeE, symObjAddr: 0xC4E88, symBinAddr: 0x1000C579C, symSize: 0x108 }
  - { offset: 0xC9C34, size: 0x8, addend: 0x0, symName: __ZNSt3__19make_pairB8ne180100IRNS_11__wrap_iterIPKcEES5_EENS_4pairINS_18__unwrap_ref_decayIT_E4typeENS7_IT0_E4typeEEEOS8_OSB_, symObjAddr: 0xC4F90, symBinAddr: 0x1000C58A4, symSize: 0x38 }
  - { offset: 0xC9C84, size: 0x8, addend: 0x0, symName: __ZNSt3__1miB8ne180100IPKcS2_EEDTmicldtfp_4baseEcldtfp0_4baseEERKNS_11__wrap_iterIT_EERKNS4_IT0_EE, symObjAddr: 0xC4FC8, symBinAddr: 0x1000C58DC, symSize: 0x40 }
  - { offset: 0xC9CD3, size: 0x8, addend: 0x0, symName: __ZNSt3__127__search_random_access_implB8ne180100INS_17_ClassicAlgPolicyENS_11__wrap_iterIPKcEES5_PcS6_NS_10__equal_toENS_10__identityES8_llEENS_4pairIT0_SA_EESA_T1_T2_T3_RT4_RT5_RT6_T7_T8_, symObjAddr: 0xC5008, symBinAddr: 0x1000C591C, symSize: 0x1F0 }
  - { offset: 0xC9E13, size: 0x8, addend: 0x0, symName: __ZNSt3__18__invokeB8ne180100IRNS_10__equal_toEJRKcRcEEEDTclclsr3stdE7declvalIT_EEspclsr3stdE7declvalIT0_EEEEOS6_DpOS7_, symObjAddr: 0xC52C4, symBinAddr: 0x1000C5BD8, symSize: 0x38 }
  - { offset: 0xC9E7B, size: 0x8, addend: 0x0, symName: __ZNSt3__18__invokeB8ne180100IRNS_10__identityEJRcEEEDTclclsr3stdE7declvalIT_EEspclsr3stdE7declvalIT0_EEEEOS4_DpOS5_, symObjAddr: 0xC52FC, symBinAddr: 0x1000C5C10, symSize: 0x2C }
  - { offset: 0xC9ECE, size: 0x8, addend: 0x0, symName: __ZNSt3__19make_pairB8ne180100IRNS_11__wrap_iterIPKcEES4_EENS_4pairINS_18__unwrap_ref_decayIT_E4typeENS7_IT0_E4typeEEEOS8_OSB_, symObjAddr: 0xC5328, symBinAddr: 0x1000C5C3C, symSize: 0x38 }
  - { offset: 0xC9F1E, size: 0x8, addend: 0x0, symName: __ZNSt3__18distanceB8ne180100INS_11__wrap_iterIPKcEEEENS_15iterator_traitsIT_E15difference_typeES6_S6_, symObjAddr: 0xC5724, symBinAddr: 0x1000C6038, symSize: 0x3C }
  - { offset: 0xC9F64, size: 0x8, addend: 0x0, symName: __ZNSt3__110__distanceB8ne180100INS_11__wrap_iterIPKcEEEENS_15iterator_traitsIT_E15difference_typeES6_S6_NS_26random_access_iterator_tagE, symObjAddr: 0xC58B8, symBinAddr: 0x1000C61CC, symSize: 0x30 }
  - { offset: 0xC9FB5, size: 0x8, addend: 0x0, symName: __ZNSt3__18distanceB8ne180100INS_11__wrap_iterIPcEEEENS_15iterator_traitsIT_E15difference_typeES5_S5_, symObjAddr: 0xC5BA0, symBinAddr: 0x1000C64B4, symSize: 0x3C }
  - { offset: 0xC9FFB, size: 0x8, addend: 0x0, symName: __ZNSt3__110__distanceB8ne180100INS_11__wrap_iterIPcEEEENS_15iterator_traitsIT_E15difference_typeES5_S5_NS_26random_access_iterator_tagE, symObjAddr: 0xC5D34, symBinAddr: 0x1000C6648, symSize: 0x30 }
  - { offset: 0xCA04C, size: 0x8, addend: 0x0, symName: __ZNSt3__1miB8ne180100IPcS1_EEDTmicldtfp_4baseEcldtfp0_4baseEERKNS_11__wrap_iterIT_EERKNS3_IT0_EE, symObjAddr: 0xC5D64, symBinAddr: 0x1000C6678, symSize: 0x40 }
  - { offset: 0xCA09A, size: 0x8, addend: 0x0, symName: __ZNSt3__119__throw_regex_errorB8ne180100ILNS_15regex_constants10error_typeE2EEEvv, symObjAddr: 0xC5E00, symBinAddr: 0x1000C6714, symSize: 0x60 }
  - { offset: 0xCA0C0, size: 0x8, addend: 0x0, symName: __ZNSt3__19make_pairB8ne180100INS_12basic_stringIcNS_11char_traitsIcEENS_9allocatorIcEEEES6_EENS_4pairINS_18__unwrap_ref_decayIT_E4typeENS8_IT0_E4typeEEEOS9_OSC_, symObjAddr: 0xC6144, symBinAddr: 0x1000C6A58, symSize: 0x40 }
  - { offset: 0xCA10F, size: 0x8, addend: 0x0, symName: __ZNSt3__119__throw_regex_errorB8ne180100ILNS_15regex_constants10error_typeE9EEEvv, symObjAddr: 0xC6284, symBinAddr: 0x1000C6B98, symSize: 0x60 }
  - { offset: 0xCA136, size: 0x8, addend: 0x0, symName: __ZNSt3__114__construct_atB8ne180100INS_4pairINS_12basic_stringIcNS_11char_traitsIcEENS_9allocatorIcEEEES7_EEJS8_EPS8_EEPT_SB_DpOT0_, symObjAddr: 0xC65A0, symBinAddr: 0x1000C6EB4, symSize: 0x2C }
  - { offset: 0xCA18F, size: 0x8, addend: 0x0, symName: __ZNSt3__112construct_atB8ne180100INS_4pairINS_12basic_stringIcNS_11char_traitsIcEENS_9allocatorIcEEEES7_EEJS8_EPS8_EEPT_SB_DpOT0_, symObjAddr: 0xC65CC, symBinAddr: 0x1000C6EE0, symSize: 0x34 }
  - { offset: 0xCA1E8, size: 0x8, addend: 0x0, symName: __ZNSt3__119__allocate_at_leastB8ne180100INS_9allocatorINS_4pairINS_12basic_stringIcNS_11char_traitsIcEENS1_IcEEEES7_EEEEEENS_19__allocation_resultINS_16allocator_traitsIT_E7pointerEEERSC_m, symObjAddr: 0xC6AF0, symBinAddr: 0x1000C7404, symSize: 0x40 }
  - { offset: 0xCA22D, size: 0x8, addend: 0x0, symName: __ZNSt3__142__uninitialized_allocator_move_if_noexceptB8ne180100INS_9allocatorINS_4pairINS_12basic_stringIcNS_11char_traitsIcEENS1_IcEEEES7_EEEENS_16reverse_iteratorIPS8_EESC_SC_EET2_RT_T0_T1_SD_, symObjAddr: 0xC6CA8, symBinAddr: 0x1000C75BC, symSize: 0x12C }
  - { offset: 0xCA2CE, size: 0x8, addend: 0x0, symName: __ZNSt3__14swapB8ne180100IPNS_4pairINS_12basic_stringIcNS_11char_traitsIcEENS_9allocatorIcEEEES7_EEEENS_9enable_ifIXaasr21is_move_constructibleIT_EE5valuesr18is_move_assignableISB_EE5valueEvE4typeERSB_SE_, symObjAddr: 0xC6E20, symBinAddr: 0x1000C7734, symSize: 0x3C }
  - { offset: 0xCA323, size: 0x8, addend: 0x0, symName: __ZNSt3__122__make_exception_guardB8ne180100INS_29_AllocatorDestroyRangeReverseINS_9allocatorINS_4pairINS_12basic_stringIcNS_11char_traitsIcEENS2_IcEEEES8_EEEENS_16reverse_iteratorIPS9_EEEEEENS_28__exception_guard_exceptionsIT_EESG_, symObjAddr: 0xC6E70, symBinAddr: 0x1000C7784, symSize: 0x4C }
  - { offset: 0xCA35B, size: 0x8, addend: 0x0, symName: __ZNSt3__1neB8ne180100IPNS_4pairINS_12basic_stringIcNS_11char_traitsIcEENS_9allocatorIcEEEES7_EES9_EEbRKNS_16reverse_iteratorIT_EERKNSA_IT0_EE, symObjAddr: 0xC6F00, symBinAddr: 0x1000C7814, symSize: 0x48 }
  - { offset: 0xCA3AA, size: 0x8, addend: 0x0, symName: __ZNSt3__112__to_addressB8ne180100INS_16reverse_iteratorIPNS_4pairINS_12basic_stringIcNS_11char_traitsIcEENS_9allocatorIcEEEES8_EEEEvEEu7__decayIDTclsr19__to_address_helperIT_EE6__callclsr3stdE7declvalIRKSC_EEEEESE_, symObjAddr: 0xC6F48, symBinAddr: 0x1000C785C, symSize: 0x24 }
  - { offset: 0xCA40D, size: 0x8, addend: 0x0, symName: __ZNSt3__14prevB8ne180100IPNS_4pairINS_12basic_stringIcNS_11char_traitsIcEENS_9allocatorIcEEEES7_EELi0EEET_SA_NS_15iterator_traitsISA_E15difference_typeE, symObjAddr: 0xC70FC, symBinAddr: 0x1000C7A10, symSize: 0x3C }
  - { offset: 0xCA45A, size: 0x8, addend: 0x0, symName: __ZNSt3__19__advanceB8ne180100IPNS_4pairINS_12basic_stringIcNS_11char_traitsIcEENS_9allocatorIcEEEES7_EEEEvRT_NS_15iterator_traitsISA_E15difference_typeENS_26random_access_iterator_tagE, symObjAddr: 0xC7170, symBinAddr: 0x1000C7A84, symSize: 0x30 }
  - { offset: 0xCA4A6, size: 0x8, addend: 0x0, symName: __ZNSt3__119__allocator_destroyB8ne180100INS_9allocatorINS_4pairINS_12basic_stringIcNS_11char_traitsIcEENS1_IcEEEES7_EEEENS_16reverse_iteratorINSA_IPS8_EEEESD_EEvRT_T0_T1_, symObjAddr: 0xC72A4, symBinAddr: 0x1000C7BB8, symSize: 0x70 }
  - { offset: 0xCA50C, size: 0x8, addend: 0x0, symName: __ZNSt3__1neB8ne180100INS_16reverse_iteratorIPNS_4pairINS_12basic_stringIcNS_11char_traitsIcEENS_9allocatorIcEEEES8_EEEESB_EEbRKNS1_IT_EERKNS1_IT0_EE, symObjAddr: 0xC7350, symBinAddr: 0x1000C7C64, symSize: 0x60 }
  - { offset: 0xCA55B, size: 0x8, addend: 0x0, symName: __ZNSt3__112__to_addressB8ne180100INS_16reverse_iteratorINS1_IPNS_4pairINS_12basic_stringIcNS_11char_traitsIcEENS_9allocatorIcEEEES8_EEEEEEvEEu7__decayIDTclsr19__to_address_helperIT_EE6__callclsr3stdE7declvalIRKSD_EEEEESF_, symObjAddr: 0xC73B0, symBinAddr: 0x1000C7CC4, symSize: 0x24 }
  - { offset: 0xCA5BE, size: 0x8, addend: 0x0, symName: __ZNSt3__14prevB8ne180100INS_16reverse_iteratorIPNS_4pairINS_12basic_stringIcNS_11char_traitsIcEENS_9allocatorIcEEEES8_EEEELi0EEET_SC_NS_15iterator_traitsISC_E15difference_typeE, symObjAddr: 0xC74AC, symBinAddr: 0x1000C7DC0, symSize: 0x4C }
  - { offset: 0xCA60B, size: 0x8, addend: 0x0, symName: __ZNSt3__19__advanceB8ne180100INS_16reverse_iteratorIPNS_4pairINS_12basic_stringIcNS_11char_traitsIcEENS_9allocatorIcEEEES8_EEEEEEvRT_NS_15iterator_traitsISC_E15difference_typeENS_26random_access_iterator_tagE, symObjAddr: 0xC7530, symBinAddr: 0x1000C7E44, symSize: 0x2C }
  - { offset: 0xCA657, size: 0x8, addend: 0x0, symName: __ZNSt3__19make_pairB8ne180100IccEENS_4pairINS_18__unwrap_ref_decayIT_E4typeENS2_IT0_E4typeEEEOS3_OS6_, symObjAddr: 0xC7900, symBinAddr: 0x1000C8214, symSize: 0x34 }
  - { offset: 0xCA6A6, size: 0x8, addend: 0x0, symName: __ZNSt3__19make_pairB8ne180100IRcS1_EENS_4pairINS_18__unwrap_ref_decayIT_E4typeENS3_IT0_E4typeEEEOS4_OS7_, symObjAddr: 0xC7934, symBinAddr: 0x1000C8248, symSize: 0x34 }
  - { offset: 0xCA6F6, size: 0x8, addend: 0x0, symName: __ZNSt3__114__construct_atB8ne180100INS_4pairIccEEJS2_EPS2_EEPT_S5_DpOT0_, symObjAddr: 0xC7C1C, symBinAddr: 0x1000C8530, symSize: 0x2C }
  - { offset: 0xCA74F, size: 0x8, addend: 0x0, symName: __ZNSt3__112construct_atB8ne180100INS_4pairIccEEJS2_EPS2_EEPT_S5_DpOT0_, symObjAddr: 0xC7C48, symBinAddr: 0x1000C855C, symSize: 0x24 }
  - { offset: 0xCA7A8, size: 0x8, addend: 0x0, symName: __ZNSt3__119__allocate_at_leastB8ne180100INS_9allocatorINS_4pairIccEEEEEENS_19__allocation_resultINS_16allocator_traitsIT_E7pointerEEERS7_m, symObjAddr: 0xC80D4, symBinAddr: 0x1000C89E8, symSize: 0x40 }
  - { offset: 0xCA7ED, size: 0x8, addend: 0x0, symName: __ZNSt3__142__uninitialized_allocator_move_if_noexceptB8ne180100INS_9allocatorINS_4pairIccEEEENS_16reverse_iteratorIPS3_EES7_S7_EET2_RT_T0_T1_S8_, symObjAddr: 0xC8288, symBinAddr: 0x1000C8B9C, symSize: 0x12C }
  - { offset: 0xCA88E, size: 0x8, addend: 0x0, symName: __ZNSt3__14swapB8ne180100IPNS_4pairIccEEEENS_9enable_ifIXaasr21is_move_constructibleIT_EE5valuesr18is_move_assignableIS5_EE5valueEvE4typeERS5_S8_, symObjAddr: 0xC8400, symBinAddr: 0x1000C8D14, symSize: 0x3C }
  - { offset: 0xCA8E3, size: 0x8, addend: 0x0, symName: __ZNSt3__122__make_exception_guardB8ne180100INS_29_AllocatorDestroyRangeReverseINS_9allocatorINS_4pairIccEEEENS_16reverse_iteratorIPS4_EEEEEENS_28__exception_guard_exceptionsIT_EESB_, symObjAddr: 0xC8450, symBinAddr: 0x1000C8D64, symSize: 0x4C }
  - { offset: 0xCA91B, size: 0x8, addend: 0x0, symName: __ZNSt3__1neB8ne180100IPNS_4pairIccEES3_EEbRKNS_16reverse_iteratorIT_EERKNS4_IT0_EE, symObjAddr: 0xC84E0, symBinAddr: 0x1000C8DF4, symSize: 0x48 }
  - { offset: 0xCA96A, size: 0x8, addend: 0x0, symName: __ZNSt3__112__to_addressB8ne180100INS_16reverse_iteratorIPNS_4pairIccEEEEvEEu7__decayIDTclsr19__to_address_helperIT_EE6__callclsr3stdE7declvalIRKS6_EEEEES8_, symObjAddr: 0xC8528, symBinAddr: 0x1000C8E3C, symSize: 0x24 }
  - { offset: 0xCA9CD, size: 0x8, addend: 0x0, symName: __ZNSt3__14prevB8ne180100IPNS_4pairIccEELi0EEET_S4_NS_15iterator_traitsIS4_E15difference_typeE, symObjAddr: 0xC86DC, symBinAddr: 0x1000C8FF0, symSize: 0x3C }
  - { offset: 0xCAA1A, size: 0x8, addend: 0x0, symName: __ZNSt3__19__advanceB8ne180100IPNS_4pairIccEEEEvRT_NS_15iterator_traitsIS4_E15difference_typeENS_26random_access_iterator_tagE, symObjAddr: 0xC8750, symBinAddr: 0x1000C9064, symSize: 0x28 }
  - { offset: 0xCAA66, size: 0x8, addend: 0x0, symName: __ZNSt3__119__allocator_destroyB8ne180100INS_9allocatorINS_4pairIccEEEENS_16reverse_iteratorINS5_IPS3_EEEES8_EEvRT_T0_T1_, symObjAddr: 0xC887C, symBinAddr: 0x1000C9190, symSize: 0x70 }
  - { offset: 0xCAACC, size: 0x8, addend: 0x0, symName: __ZNSt3__1neB8ne180100INS_16reverse_iteratorIPNS_4pairIccEEEES5_EEbRKNS1_IT_EERKNS1_IT0_EE, symObjAddr: 0xC8928, symBinAddr: 0x1000C923C, symSize: 0x60 }
  - { offset: 0xCAB1B, size: 0x8, addend: 0x0, symName: __ZNSt3__112__to_addressB8ne180100INS_16reverse_iteratorINS1_IPNS_4pairIccEEEEEEvEEu7__decayIDTclsr19__to_address_helperIT_EE6__callclsr3stdE7declvalIRKS7_EEEEES9_, symObjAddr: 0xC8988, symBinAddr: 0x1000C929C, symSize: 0x24 }
  - { offset: 0xCAB7E, size: 0x8, addend: 0x0, symName: __ZNSt3__14prevB8ne180100INS_16reverse_iteratorIPNS_4pairIccEEEELi0EEET_S6_NS_15iterator_traitsIS6_E15difference_typeE, symObjAddr: 0xC8A84, symBinAddr: 0x1000C9398, symSize: 0x4C }
  - { offset: 0xCABCB, size: 0x8, addend: 0x0, symName: __ZNSt3__19__advanceB8ne180100INS_16reverse_iteratorIPNS_4pairIccEEEEEEvRT_NS_15iterator_traitsIS6_E15difference_typeENS_26random_access_iterator_tagE, symObjAddr: 0xC8B08, symBinAddr: 0x1000C941C, symSize: 0x2C }
  - { offset: 0xCAD23, size: 0x8, addend: 0x0, symName: __ZNSt3__119__throw_regex_errorB8ne180100ILNS_15regex_constants10error_typeE8EEEvv, symObjAddr: 0xC9678, symBinAddr: 0x1000C9F8C, symSize: 0x60 }
  - { offset: 0xCAD49, size: 0x8, addend: 0x0, symName: __ZNSt3__119__throw_regex_errorB8ne180100ILNS_15regex_constants10error_typeE7EEEvv, symObjAddr: 0xC96D8, symBinAddr: 0x1000C9FEC, symSize: 0x60 }
  - { offset: 0xCB6BA, size: 0x8, addend: 0x0, symName: __ZNSt3__119__throw_regex_errorB8ne180100ILNS_15regex_constants10error_typeE15EEEvv, symObjAddr: 0xCA714, symBinAddr: 0x1000CB028, symSize: 0x60 }
  - { offset: 0xCB754, size: 0x8, addend: 0x0, symName: __ZNSt3__111regex_matchB8ne180100INS_11__wrap_iterIPKcEEcNS_12regex_traitsIcEEEEbT_S7_RKNS_11basic_regexIT0_T1_EENS_15regex_constants15match_flag_typeE, symObjAddr: 0xCC1E8, symBinAddr: 0x1000CCAFC, symSize: 0xA0 }
  - { offset: 0xCBAED, size: 0x8, addend: 0x0, symName: __ZNSt3__111regex_matchB8ne180100INS_11__wrap_iterIPKcEENS_9allocatorINS_9sub_matchIS4_EEEEcNS_12regex_traitsIcEEEEbT_SB_RNS_13match_resultsISB_T0_EERKNS_11basic_regexIT1_T2_EENS_15regex_constants15match_flag_typeE, symObjAddr: 0xCC2C8, symBinAddr: 0x1000CCBDC, symSize: 0xD0 }
  - { offset: 0xCBB97, size: 0x8, addend: 0x0, symName: __ZNSt3__112__to_addressB8ne180100INS_9sub_matchINS_11__wrap_iterIPKcEEEEEEPT_S8_, symObjAddr: 0xCC9A4, symBinAddr: 0x1000CD2B8, symSize: 0x14 }
  - { offset: 0xCBBCE, size: 0x8, addend: 0x0, symName: __ZNSt3__112__destroy_atB8ne180100INS_9sub_matchINS_11__wrap_iterIPKcEEEELi0EEEvPT_, symObjAddr: 0xCC9B8, symBinAddr: 0x1000CD2CC, symSize: 0x10 }
  - { offset: 0xCBC07, size: 0x8, addend: 0x0, symName: __ZNSt3__112regex_searchB8ne180100IPKcNS_9allocatorINS_9sub_matchINS_11__wrap_iterIS2_EEEEEEcNS_12regex_traitsIcEEEEbNS5_IT_EESC_RNS_13match_resultsISC_T0_EERKNS_11basic_regexIT1_T2_EENS_15regex_constants15match_flag_typeE, symObjAddr: 0xCCAA4, symBinAddr: 0x1000CD3B8, symSize: 0x124 }
  - { offset: 0xCBCB6, size: 0x8, addend: 0x0, symName: __ZNSt3__18distanceB8ne180100IPKcEENS_15iterator_traitsIT_E15difference_typeES4_S4_, symObjAddr: 0xCE244, symBinAddr: 0x1000CEB58, symSize: 0x2C }
  - { offset: 0xCBCFC, size: 0x8, addend: 0x0, symName: __ZNSt3__110__distanceB8ne180100IPKcEENS_15iterator_traitsIT_E15difference_typeES4_S4_NS_26random_access_iterator_tagE, symObjAddr: 0xCE968, symBinAddr: 0x1000CF27C, symSize: 0x20 }
  - { offset: 0xCC113, size: 0x8, addend: 0x0, symName: __ZNSt3__14swapB8ne180100IPPNS_7__stateIcEEEENS_9enable_ifIXaasr21is_move_constructibleIT_EE5valuesr18is_move_assignableIS6_EE5valueEvE4typeERS6_S9_, symObjAddr: 0xCFE14, symBinAddr: 0x1000D0728, symSize: 0x3C }
  - { offset: 0xCC168, size: 0x8, addend: 0x0, symName: __ZNSt3__14moveB8ne180100IPPNS_7__stateIcEES4_EET0_T_S6_S5_, symObjAddr: 0xCFF44, symBinAddr: 0x1000D0858, symSize: 0x40 }
  - { offset: 0xCC1C6, size: 0x8, addend: 0x0, symName: __ZNSt3__112__to_addressB8ne180100IPNS_7__stateIcEEEEPT_S5_, symObjAddr: 0xD0048, symBinAddr: 0x1000D095C, symSize: 0x14 }
  - { offset: 0xCC1FD, size: 0x8, addend: 0x0, symName: __ZNSt3__16__moveB8ne180100INS_17_ClassicAlgPolicyEPPNS_7__stateIcEES5_S5_EENS_4pairIT0_T2_EES7_T1_S8_, symObjAddr: 0xD005C, symBinAddr: 0x1000D0970, symSize: 0x44 }
  - { offset: 0xCC26D, size: 0x8, addend: 0x0, symName: __ZNSt3__123__dispatch_copy_or_moveB8ne180100INS_17_ClassicAlgPolicyENS_11__move_loopIS1_EENS_14__move_trivialEPPNS_7__stateIcEES8_S8_EENS_4pairIT2_T4_EESA_T3_SB_, symObjAddr: 0xD00A0, symBinAddr: 0x1000D09B4, symSize: 0x44 }
  - { offset: 0xCC2EF, size: 0x8, addend: 0x0, symName: __ZNSt3__121__unwrap_and_dispatchB8ne180100INS_10__overloadINS_11__move_loopINS_17_ClassicAlgPolicyEEENS_14__move_trivialEEEPPNS_7__stateIcEESA_SA_Li0EEENS_4pairIT0_T2_EESC_T1_SD_, symObjAddr: 0xD00E4, symBinAddr: 0x1000D09F8, symSize: 0xB4 }
  - { offset: 0xCC384, size: 0x8, addend: 0x0, symName: __ZNSt3__114__unwrap_rangeB8ne180100IPPNS_7__stateIcEES4_EEDaT_T0_, symObjAddr: 0xD0198, symBinAddr: 0x1000D0AAC, symSize: 0x3C }
  - { offset: 0xCC597, size: 0x8, addend: 0x0, symName: __ZNSt3__113__unwrap_iterB8ne180100IPPNS_7__stateIcEENS_18__unwrap_iter_implIS4_Lb1EEELi0EEEDTclsrT0_8__unwrapclsr3stdE7declvalIT_EEEES8_, symObjAddr: 0xD021C, symBinAddr: 0x1000D0B30, symSize: 0x24 }
  - { offset: 0xCC5DD, size: 0x8, addend: 0x0, symName: __ZNSt3__19make_pairB8ne180100IPPNS_7__stateIcEES4_EENS_4pairINS_18__unwrap_ref_decayIT_E4typeENS6_IT0_E4typeEEEOS7_OSA_, symObjAddr: 0xD0240, symBinAddr: 0x1000D0B54, symSize: 0x38 }
  - { offset: 0xCC62D, size: 0x8, addend: 0x0, symName: __ZNSt3__114__rewrap_rangeB8ne180100IPPNS_7__stateIcEES4_S4_EET0_S5_T1_, symObjAddr: 0xD0278, symBinAddr: 0x1000D0B8C, symSize: 0x2C }
  - { offset: 0xCC685, size: 0x8, addend: 0x0, symName: __ZNSt3__113__rewrap_iterB8ne180100IPPNS_7__stateIcEES4_NS_18__unwrap_iter_implIS4_Lb1EEEEET_S7_T0_, symObjAddr: 0xD02A4, symBinAddr: 0x1000D0BB8, symSize: 0x3C }
  - { offset: 0xCC730, size: 0x8, addend: 0x0, symName: __ZNSt3__119__copy_trivial_implB8ne180100IPNS_7__stateIcEES3_EENS_4pairIPT_PT0_EES6_S6_S8_, symObjAddr: 0xD03A8, symBinAddr: 0x1000D0CBC, symSize: 0x80 }
  - { offset: 0xCC79D, size: 0x8, addend: 0x0, symName: __ZNSt3__119__constexpr_memmoveB8ne180100IPNS_7__stateIcEES3_Li0EEEPT_S5_PT0_NS_15__element_countE, symObjAddr: 0xD0428, symBinAddr: 0x1000D0D3C, symSize: 0x64 }
  - { offset: 0xCC810, size: 0x8, addend: 0x0, symName: __ZNSt3__19make_pairB8ne180100IRPPNS_7__stateIcEES4_EENS_4pairINS_18__unwrap_ref_decayIT_E4typeENS7_IT0_E4typeEEEOS8_OSB_, symObjAddr: 0xD048C, symBinAddr: 0x1000D0DA0, symSize: 0x38 }
  - { offset: 0xCC8B8, size: 0x8, addend: 0x0, symName: __ZNSt3__18distanceB8ne180100INS_13move_iteratorIPPNS_7__stateIcEEEEEENS_15iterator_traitsIT_E15difference_typeES8_S8_, symObjAddr: 0xD06B0, symBinAddr: 0x1000D0FC4, symSize: 0x3C }
  - { offset: 0xCC8FE, size: 0x8, addend: 0x0, symName: __ZNSt3__114__construct_atB8ne180100IPNS_7__stateIcEEJS3_EPS3_EEPT_S6_DpOT0_, symObjAddr: 0xD083C, symBinAddr: 0x1000D1150, symSize: 0x2C }
  - { offset: 0xCC957, size: 0x8, addend: 0x0, symName: __ZNSt3__112construct_atB8ne180100IPNS_7__stateIcEEJS3_EPS3_EEPT_S6_DpOT0_, symObjAddr: 0xD0868, symBinAddr: 0x1000D117C, symSize: 0x24 }
  - { offset: 0xCC9B0, size: 0x8, addend: 0x0, symName: __ZNSt3__110__distanceB8ne180100INS_13move_iteratorIPPNS_7__stateIcEEEEEENS_15iterator_traitsIT_E15difference_typeES8_S8_NS_26random_access_iterator_tagE, symObjAddr: 0xD0908, symBinAddr: 0x1000D121C, symSize: 0x30 }
  - { offset: 0xCCA00, size: 0x8, addend: 0x0, symName: __ZNSt3__1miB8ne180100IPPNS_7__stateIcEES4_EEDTmicldtfp_4baseEcldtfp0_4baseEERKNS_13move_iteratorIT_EERKNS6_IT0_EE, symObjAddr: 0xD0938, symBinAddr: 0x1000D124C, symSize: 0x4C }
  - { offset: 0xCCA50, size: 0x8, addend: 0x0, symName: __ZNSt3__114__construct_atB8ne180100IPNS_7__stateIcEEJRKS3_EPS3_EEPT_S8_DpOT0_, symObjAddr: 0xD09B8, symBinAddr: 0x1000D12CC, symSize: 0x2C }
  - { offset: 0xCCAA9, size: 0x8, addend: 0x0, symName: __ZNSt3__112construct_atB8ne180100IPNS_7__stateIcEEJRKS3_EPS3_EEPT_S8_DpOT0_, symObjAddr: 0xD09E4, symBinAddr: 0x1000D12F8, symSize: 0x24 }
  - { offset: 0xCCB02, size: 0x8, addend: 0x0, symName: __ZNSt3__113move_backwardB8ne180100IPPNS_7__stateIcEES4_EET0_T_S6_S5_, symObjAddr: 0xD0A68, symBinAddr: 0x1000D137C, symSize: 0x40 }
  - { offset: 0xCCB60, size: 0x8, addend: 0x0, symName: __ZNSt3__115__move_backwardB8ne180100INS_17_ClassicAlgPolicyEPPNS_7__stateIcEES5_S5_EENS_4pairIT0_T2_EES7_T1_S8_, symObjAddr: 0xD0AA8, symBinAddr: 0x1000D13BC, symSize: 0x44 }
  - { offset: 0xCCBD0, size: 0x8, addend: 0x0, symName: __ZNSt3__123__dispatch_copy_or_moveB8ne180100INS_17_ClassicAlgPolicyENS_20__move_backward_loopIS1_EENS_23__move_backward_trivialEPPNS_7__stateIcEES8_S8_EENS_4pairIT2_T4_EESA_T3_SB_, symObjAddr: 0xD0AEC, symBinAddr: 0x1000D1400, symSize: 0x44 }
  - { offset: 0xCCC52, size: 0x8, addend: 0x0, symName: __ZNSt3__121__unwrap_and_dispatchB8ne180100INS_10__overloadINS_20__move_backward_loopINS_17_ClassicAlgPolicyEEENS_23__move_backward_trivialEEEPPNS_7__stateIcEESA_SA_Li0EEENS_4pairIT0_T2_EESC_T1_SD_, symObjAddr: 0xD0B30, symBinAddr: 0x1000D1444, symSize: 0xB4 }
  - { offset: 0xCCD6E, size: 0x8, addend: 0x0, symName: __ZNSt3__128__copy_backward_trivial_implB8ne180100IPNS_7__stateIcEES3_EENS_4pairIPT_PT0_EES6_S6_S8_, symObjAddr: 0xD0C2C, symBinAddr: 0x1000D1540, symSize: 0x90 }
  - { offset: 0xCCDDA, size: 0x8, addend: 0x0, symName: __ZNSt3__19make_pairB8ne180100IRPPNS_7__stateIcEES5_EENS_4pairINS_18__unwrap_ref_decayIT_E4typeENS7_IT0_E4typeEEEOS8_OSB_, symObjAddr: 0xD0CBC, symBinAddr: 0x1000D15D0, symSize: 0x38 }
  - { offset: 0xCCE2A, size: 0x8, addend: 0x0, symName: __ZNSt3__119__allocate_at_leastB8ne180100INS_9allocatorIPNS_7__stateIcEEEEEENS_19__allocation_resultINS_16allocator_traitsIT_E7pointerEEERS8_m, symObjAddr: 0xD0EAC, symBinAddr: 0x1000D17C0, symSize: 0x40 }
  - { offset: 0xCCE70, size: 0x8, addend: 0x0, symName: __ZNSt3__112__destroy_atB8ne180100IPNS_7__stateIcEELi0EEEvPT_, symObjAddr: 0xD14CC, symBinAddr: 0x1000D1DE0, symSize: 0x10 }
  - { offset: 0xCCEA9, size: 0x8, addend: 0x0, symName: __ZNSt3__1neB8ne180100ERKNS_16__deque_iteratorINS_7__stateIcEEPS2_RS2_PS3_lLl42EEES8_, symObjAddr: 0xD18FC, symBinAddr: 0x1000D2210, symSize: 0x34 }
  - { offset: 0xCCEE6, size: 0x8, addend: 0x0, symName: __ZNSt3__1eqB8ne180100ERKNS_16__deque_iteratorINS_7__stateIcEEPS2_RS2_PS3_lLl42EEES8_, symObjAddr: 0xD19A0, symBinAddr: 0x1000D22B4, symSize: 0x30 }
  - { offset: 0xCCF24, size: 0x8, addend: 0x0, symName: __ZNSt3__18distanceB8ne180100IPNS_9sub_matchIPKcEEEENS_15iterator_traitsIT_E15difference_typeES7_S7_, symObjAddr: 0xD27D8, symBinAddr: 0x1000D30EC, symSize: 0x2C }
  - { offset: 0xCCF6A, size: 0x8, addend: 0x0, symName: __ZNSt3__14nextB8ne180100IPNS_9sub_matchIPKcEELi0EEET_S6_NS_15iterator_traitsIS6_E15difference_typeE, symObjAddr: 0xD2804, symBinAddr: 0x1000D3118, symSize: 0x34 }
  - { offset: 0xCCFB7, size: 0x8, addend: 0x0, symName: __ZNSt3__14copyB8ne180100IPNS_9sub_matchIPKcEES5_EET0_T_S7_S6_, symObjAddr: 0xD2838, symBinAddr: 0x1000D314C, symSize: 0x40 }
  - { offset: 0xCD015, size: 0x8, addend: 0x0, symName: __ZNSt3__16__copyB8ne180100INS_17_ClassicAlgPolicyEPNS_9sub_matchIPKcEES6_S6_EENS_4pairIT0_T2_EES8_T1_S9_, symObjAddr: 0xD2878, symBinAddr: 0x1000D318C, symSize: 0x44 }
  - { offset: 0xCD085, size: 0x8, addend: 0x0, symName: __ZNSt3__123__dispatch_copy_or_moveB8ne180100INS_17_ClassicAlgPolicyENS_11__copy_loopIS1_EENS_14__copy_trivialEPNS_9sub_matchIPKcEES9_S9_EENS_4pairIT2_T4_EESB_T3_SC_, symObjAddr: 0xD28BC, symBinAddr: 0x1000D31D0, symSize: 0x44 }
  - { offset: 0xCD107, size: 0x8, addend: 0x0, symName: __ZNSt3__121__unwrap_and_dispatchB8ne180100INS_10__overloadINS_11__copy_loopINS_17_ClassicAlgPolicyEEENS_14__copy_trivialEEEPNS_9sub_matchIPKcEESB_SB_Li0EEENS_4pairIT0_T2_EESD_T1_SE_, symObjAddr: 0xD2900, symBinAddr: 0x1000D3214, symSize: 0xB4 }
  - { offset: 0xCD19B, size: 0x8, addend: 0x0, symName: __ZNSt3__19make_pairB8ne180100IPNS_9sub_matchIPKcEES5_EENS_4pairINS_18__unwrap_ref_decayIT_E4typeENS7_IT0_E4typeEEEOS8_OSB_, symObjAddr: 0xD2A3C, symBinAddr: 0x1000D3350, symSize: 0x38 }
  - { offset: 0xCD1EB, size: 0x8, addend: 0x0, symName: __ZNSt3__114__rewrap_rangeB8ne180100IPNS_9sub_matchIPKcEES5_S5_EET0_S6_T1_, symObjAddr: 0xD2A74, symBinAddr: 0x1000D3388, symSize: 0x2C }
  - { offset: 0xCD243, size: 0x8, addend: 0x0, symName: __ZNSt3__110__distanceB8ne180100IPNS_9sub_matchIPKcEEEENS_15iterator_traitsIT_E15difference_typeES7_S7_NS_26random_access_iterator_tagE, symObjAddr: 0xD2ACC, symBinAddr: 0x1000D33E0, symSize: 0x28 }
  - { offset: 0xCD294, size: 0x8, addend: 0x0, symName: __ZNSt3__18distanceB8ne180100IPNS_4pairImPKcEEEENS_15iterator_traitsIT_E15difference_typeES7_S7_, symObjAddr: 0xD2CF4, symBinAddr: 0x1000D3608, symSize: 0x2C }
  - { offset: 0xCD2DA, size: 0x8, addend: 0x0, symName: __ZNSt3__14nextB8ne180100IPNS_4pairImPKcEELi0EEET_S6_NS_15iterator_traitsIS6_E15difference_typeE, symObjAddr: 0xD2D20, symBinAddr: 0x1000D3634, symSize: 0x34 }
  - { offset: 0xCD327, size: 0x8, addend: 0x0, symName: __ZNSt3__14copyB8ne180100IPNS_4pairImPKcEES5_EET0_T_S7_S6_, symObjAddr: 0xD2D54, symBinAddr: 0x1000D3668, symSize: 0x40 }
  - { offset: 0xCD385, size: 0x8, addend: 0x0, symName: __ZNSt3__16__copyB8ne180100INS_17_ClassicAlgPolicyEPNS_4pairImPKcEES6_S6_EENS2_IT0_T2_EES7_T1_S8_, symObjAddr: 0xD2D94, symBinAddr: 0x1000D36A8, symSize: 0x44 }
  - { offset: 0xCD3F5, size: 0x8, addend: 0x0, symName: __ZNSt3__123__dispatch_copy_or_moveB8ne180100INS_17_ClassicAlgPolicyENS_11__copy_loopIS1_EENS_14__copy_trivialEPNS_4pairImPKcEES9_S9_EENS5_IT2_T4_EESA_T3_SB_, symObjAddr: 0xD2E6C, symBinAddr: 0x1000D3780, symSize: 0x44 }
  - { offset: 0xCD477, size: 0x8, addend: 0x0, symName: __ZNSt3__121__unwrap_and_dispatchB8ne180100INS_10__overloadINS_11__copy_loopINS_17_ClassicAlgPolicyEEENS_14__copy_trivialEEEPNS_4pairImPKcEESB_SB_Li0EEENS7_IT0_T2_EESC_T1_SD_, symObjAddr: 0xD2EB0, symBinAddr: 0x1000D37C4, symSize: 0xB4 }
  - { offset: 0xCD50B, size: 0x8, addend: 0x0, symName: __ZNSt3__19make_pairB8ne180100IPNS_4pairImPKcEES5_EENS1_INS_18__unwrap_ref_decayIT_E4typeENS6_IT0_E4typeEEEOS7_OSA_, symObjAddr: 0xD2FEC, symBinAddr: 0x1000D3900, symSize: 0x38 }
  - { offset: 0xCD55B, size: 0x8, addend: 0x0, symName: __ZNSt3__114__rewrap_rangeB8ne180100IPNS_4pairImPKcEES5_S5_EET0_S6_T1_, symObjAddr: 0xD3024, symBinAddr: 0x1000D3938, symSize: 0x2C }
  - { offset: 0xCD5B3, size: 0x8, addend: 0x0, symName: __ZNSt3__110__distanceB8ne180100IPNS_4pairImPKcEEEENS_15iterator_traitsIT_E15difference_typeES7_S7_NS_26random_access_iterator_tagE, symObjAddr: 0xD30F0, symBinAddr: 0x1000D3A04, symSize: 0x28 }
  - { offset: 0xCD604, size: 0x8, addend: 0x0, symName: __ZNSt3__114__construct_atB8ne180100INS_9sub_matchINS_11__wrap_iterIPKcEEEEJEPS6_EEPT_S9_DpOT0_, symObjAddr: 0xD38C0, symBinAddr: 0x1000D41D4, symSize: 0x24 }
  - { offset: 0xCD647, size: 0x8, addend: 0x0, symName: __ZNSt3__112construct_atB8ne180100INS_9sub_matchINS_11__wrap_iterIPKcEEEEJEPS6_EEPT_S9_DpOT0_, symObjAddr: 0xD38E4, symBinAddr: 0x1000D41F8, symSize: 0x2C }
  - { offset: 0xCD68A, size: 0x8, addend: 0x0, symName: __ZNSt3__119__allocate_at_leastB8ne180100INS_9allocatorINS_9sub_matchINS_11__wrap_iterIPKcEEEEEEEENS_19__allocation_resultINS_16allocator_traitsIT_E7pointerEEERSB_m, symObjAddr: 0xD3B50, symBinAddr: 0x1000D4464, symSize: 0x40 }
  - { offset: 0xCD6CF, size: 0x8, addend: 0x0, symName: __ZNSt3__142__uninitialized_allocator_move_if_noexceptB8ne180100INS_9allocatorINS_9sub_matchINS_11__wrap_iterIPKcEEEEEENS_16reverse_iteratorIPS7_EESB_SB_EET2_RT_T0_T1_SC_, symObjAddr: 0xD3DDC, symBinAddr: 0x1000D46F0, symSize: 0x12C }
  - { offset: 0xCD770, size: 0x8, addend: 0x0, symName: __ZNSt3__14swapB8ne180100IPNS_9sub_matchINS_11__wrap_iterIPKcEEEEEENS_9enable_ifIXaasr21is_move_constructibleIT_EE5valuesr18is_move_assignableIS9_EE5valueEvE4typeERS9_SC_, symObjAddr: 0xD3F54, symBinAddr: 0x1000D4868, symSize: 0x3C }
  - { offset: 0xCD7C5, size: 0x8, addend: 0x0, symName: __ZNSt3__122__make_exception_guardB8ne180100INS_29_AllocatorDestroyRangeReverseINS_9allocatorINS_9sub_matchINS_11__wrap_iterIPKcEEEEEENS_16reverse_iteratorIPS8_EEEEEENS_28__exception_guard_exceptionsIT_EESF_, symObjAddr: 0xD3FA4, symBinAddr: 0x1000D48B8, symSize: 0x4C }
  - { offset: 0xCD7FD, size: 0x8, addend: 0x0, symName: __ZNSt3__1neB8ne180100IPNS_9sub_matchINS_11__wrap_iterIPKcEEEES7_EEbRKNS_16reverse_iteratorIT_EERKNS8_IT0_EE, symObjAddr: 0xD4034, symBinAddr: 0x1000D4948, symSize: 0x48 }
  - { offset: 0xCD84C, size: 0x8, addend: 0x0, symName: __ZNSt3__112__to_addressB8ne180100INS_16reverse_iteratorIPNS_9sub_matchINS_11__wrap_iterIPKcEEEEEEvEEu7__decayIDTclsr19__to_address_helperIT_EE6__callclsr3stdE7declvalIRKSA_EEEEESC_, symObjAddr: 0xD40AC, symBinAddr: 0x1000D49C0, symSize: 0x24 }
  - { offset: 0xCD884, size: 0x8, addend: 0x0, symName: __ZNSt3__114__construct_atB8ne180100INS_9sub_matchINS_11__wrap_iterIPKcEEEEJS6_EPS6_EEPT_S9_DpOT0_, symObjAddr: 0xD41FC, symBinAddr: 0x1000D4B10, symSize: 0x2C }
  - { offset: 0xCD8DD, size: 0x8, addend: 0x0, symName: __ZNSt3__112construct_atB8ne180100INS_9sub_matchINS_11__wrap_iterIPKcEEEEJS6_EPS6_EEPT_S9_DpOT0_, symObjAddr: 0xD4228, symBinAddr: 0x1000D4B3C, symSize: 0x2C }
  - { offset: 0xCD961, size: 0x8, addend: 0x0, symName: __ZNSt3__14prevB8ne180100IPNS_9sub_matchINS_11__wrap_iterIPKcEEEELi0EEET_S8_NS_15iterator_traitsIS8_E15difference_typeE, symObjAddr: 0xD42B8, symBinAddr: 0x1000D4BCC, symSize: 0x3C }
  - { offset: 0xCD9AE, size: 0x8, addend: 0x0, symName: __ZNSt3__19__advanceB8ne180100IPNS_9sub_matchINS_11__wrap_iterIPKcEEEEEEvRT_NS_15iterator_traitsIS8_E15difference_typeENS_26random_access_iterator_tagE, symObjAddr: 0xD432C, symBinAddr: 0x1000D4C40, symSize: 0x30 }
  - { offset: 0xCD9FA, size: 0x8, addend: 0x0, symName: __ZNSt3__119__allocator_destroyB8ne180100INS_9allocatorINS_9sub_matchINS_11__wrap_iterIPKcEEEEEENS_16reverse_iteratorINS9_IPS7_EEEESC_EEvRT_T0_T1_, symObjAddr: 0xD4460, symBinAddr: 0x1000D4D74, symSize: 0x70 }
  - { offset: 0xCDA60, size: 0x8, addend: 0x0, symName: __ZNSt3__1neB8ne180100INS_16reverse_iteratorIPNS_9sub_matchINS_11__wrap_iterIPKcEEEEEES9_EEbRKNS1_IT_EERKNS1_IT0_EE, symObjAddr: 0xD450C, symBinAddr: 0x1000D4E20, symSize: 0x60 }
  - { offset: 0xCDAAF, size: 0x8, addend: 0x0, symName: __ZNSt3__112__to_addressB8ne180100INS_16reverse_iteratorINS1_IPNS_9sub_matchINS_11__wrap_iterIPKcEEEEEEEEvEEu7__decayIDTclsr19__to_address_helperIT_EE6__callclsr3stdE7declvalIRKSB_EEEEESD_, symObjAddr: 0xD456C, symBinAddr: 0x1000D4E80, symSize: 0x24 }
  - { offset: 0xCDB12, size: 0x8, addend: 0x0, symName: __ZNSt3__14prevB8ne180100INS_16reverse_iteratorIPNS_9sub_matchINS_11__wrap_iterIPKcEEEEEELi0EEET_SA_NS_15iterator_traitsISA_E15difference_typeE, symObjAddr: 0xD4668, symBinAddr: 0x1000D4F7C, symSize: 0x4C }
  - { offset: 0xCDB5F, size: 0x8, addend: 0x0, symName: __ZNSt3__19__advanceB8ne180100INS_16reverse_iteratorIPNS_9sub_matchINS_11__wrap_iterIPKcEEEEEEEEvRT_NS_15iterator_traitsISA_E15difference_typeENS_26random_access_iterator_tagE, symObjAddr: 0xD46EC, symBinAddr: 0x1000D5000, symSize: 0x2C }
  - { offset: 0xCDF72, size: 0x8, addend: 0x0, symName: __ZNSt3__14swapB8ne180100IPPcEENS_9enable_ifIXaasr21is_move_constructibleIT_EE5valuesr18is_move_assignableIS4_EE5valueEvE4typeERS4_S7_, symObjAddr: 0xD5EC8, symBinAddr: 0x1000D67DC, symSize: 0x3C }
  - { offset: 0xCDFC7, size: 0x8, addend: 0x0, symName: __ZNSt3__14moveB8ne180100IPPcS2_EET0_T_S4_S3_, symObjAddr: 0xD5FAC, symBinAddr: 0x1000D68C0, symSize: 0x40 }
  - { offset: 0xCE025, size: 0x8, addend: 0x0, symName: __ZNSt3__16__moveB8ne180100INS_17_ClassicAlgPolicyEPPcS3_S3_EENS_4pairIT0_T2_EES5_T1_S6_, symObjAddr: 0xD60B0, symBinAddr: 0x1000D69C4, symSize: 0x44 }
  - { offset: 0xCE095, size: 0x8, addend: 0x0, symName: __ZNSt3__123__dispatch_copy_or_moveB8ne180100INS_17_ClassicAlgPolicyENS_11__move_loopIS1_EENS_14__move_trivialEPPcS6_S6_EENS_4pairIT2_T4_EES8_T3_S9_, symObjAddr: 0xD60F4, symBinAddr: 0x1000D6A08, symSize: 0x44 }
  - { offset: 0xCE117, size: 0x8, addend: 0x0, symName: __ZNSt3__121__unwrap_and_dispatchB8ne180100INS_10__overloadINS_11__move_loopINS_17_ClassicAlgPolicyEEENS_14__move_trivialEEEPPcS8_S8_Li0EEENS_4pairIT0_T2_EESA_T1_SB_, symObjAddr: 0xD6138, symBinAddr: 0x1000D6A4C, symSize: 0xB4 }
  - { offset: 0xCE1AC, size: 0x8, addend: 0x0, symName: __ZNSt3__114__unwrap_rangeB8ne180100IPPcS2_EEDaT_T0_, symObjAddr: 0xD61EC, symBinAddr: 0x1000D6B00, symSize: 0x3C }
  - { offset: 0xCE338, size: 0x8, addend: 0x0, symName: __ZNSt3__113__unwrap_iterB8ne180100IPPcNS_18__unwrap_iter_implIS2_Lb1EEELi0EEEDTclsrT0_8__unwrapclsr3stdE7declvalIT_EEEES6_, symObjAddr: 0xD6270, symBinAddr: 0x1000D6B84, symSize: 0x24 }
  - { offset: 0xCE37E, size: 0x8, addend: 0x0, symName: __ZNSt3__19make_pairB8ne180100IPPcS2_EENS_4pairINS_18__unwrap_ref_decayIT_E4typeENS4_IT0_E4typeEEEOS5_OS8_, symObjAddr: 0xD6294, symBinAddr: 0x1000D6BA8, symSize: 0x38 }
  - { offset: 0xCE3CE, size: 0x8, addend: 0x0, symName: __ZNSt3__114__rewrap_rangeB8ne180100IPPcS2_S2_EET0_S3_T1_, symObjAddr: 0xD62CC, symBinAddr: 0x1000D6BE0, symSize: 0x2C }
  - { offset: 0xCE426, size: 0x8, addend: 0x0, symName: __ZNSt3__113__rewrap_iterB8ne180100IPPcS2_NS_18__unwrap_iter_implIS2_Lb1EEEEET_S5_T0_, symObjAddr: 0xD62F8, symBinAddr: 0x1000D6C0C, symSize: 0x3C }
  - { offset: 0xCE4D1, size: 0x8, addend: 0x0, symName: __ZNSt3__119__copy_trivial_implB8ne180100IPcS1_EENS_4pairIPT_PT0_EES4_S4_S6_, symObjAddr: 0xD63FC, symBinAddr: 0x1000D6D10, symSize: 0x80 }
  - { offset: 0xCE53E, size: 0x8, addend: 0x0, symName: __ZNSt3__119__constexpr_memmoveB8ne180100IPcS1_Li0EEEPT_S3_PT0_NS_15__element_countE, symObjAddr: 0xD647C, symBinAddr: 0x1000D6D90, symSize: 0x64 }
  - { offset: 0xCE5B1, size: 0x8, addend: 0x0, symName: __ZNSt3__19make_pairB8ne180100IRPPcS2_EENS_4pairINS_18__unwrap_ref_decayIT_E4typeENS5_IT0_E4typeEEEOS6_OS9_, symObjAddr: 0xD64E0, symBinAddr: 0x1000D6DF4, symSize: 0x38 }
  - { offset: 0xCE659, size: 0x8, addend: 0x0, symName: __ZNSt3__18distanceB8ne180100INS_13move_iteratorIPPcEEEENS_15iterator_traitsIT_E15difference_typeES6_S6_, symObjAddr: 0xD6704, symBinAddr: 0x1000D7018, symSize: 0x3C }
  - { offset: 0xCE69F, size: 0x8, addend: 0x0, symName: __ZNSt3__114__construct_atB8ne180100IPcJS1_EPS1_EEPT_S4_DpOT0_, symObjAddr: 0xD6890, symBinAddr: 0x1000D71A4, symSize: 0x2C }
  - { offset: 0xCE6F8, size: 0x8, addend: 0x0, symName: __ZNSt3__112construct_atB8ne180100IPcJS1_EPS1_EEPT_S4_DpOT0_, symObjAddr: 0xD68BC, symBinAddr: 0x1000D71D0, symSize: 0x24 }
  - { offset: 0xCE751, size: 0x8, addend: 0x0, symName: __ZNSt3__110__distanceB8ne180100INS_13move_iteratorIPPcEEEENS_15iterator_traitsIT_E15difference_typeES6_S6_NS_26random_access_iterator_tagE, symObjAddr: 0xD695C, symBinAddr: 0x1000D7270, symSize: 0x30 }
  - { offset: 0xCE7A1, size: 0x8, addend: 0x0, symName: __ZNSt3__1miB8ne180100IPPcS2_EEDTmicldtfp_4baseEcldtfp0_4baseEERKNS_13move_iteratorIT_EERKNS4_IT0_EE, symObjAddr: 0xD698C, symBinAddr: 0x1000D72A0, symSize: 0x4C }
  - { offset: 0xCE7F1, size: 0x8, addend: 0x0, symName: __ZNSt3__114__construct_atB8ne180100IPcJRKS1_EPS1_EEPT_S6_DpOT0_, symObjAddr: 0xD6A0C, symBinAddr: 0x1000D7320, symSize: 0x2C }
  - { offset: 0xCE84A, size: 0x8, addend: 0x0, symName: __ZNSt3__112construct_atB8ne180100IPcJRKS1_EPS1_EEPT_S6_DpOT0_, symObjAddr: 0xD6A38, symBinAddr: 0x1000D734C, symSize: 0x24 }
  - { offset: 0xCE8A3, size: 0x8, addend: 0x0, symName: __ZNSt3__113move_backwardB8ne180100IPPcS2_EET0_T_S4_S3_, symObjAddr: 0xD6A5C, symBinAddr: 0x1000D7370, symSize: 0x40 }
  - { offset: 0xCE901, size: 0x8, addend: 0x0, symName: __ZNSt3__115__move_backwardB8ne180100INS_17_ClassicAlgPolicyEPPcS3_S3_EENS_4pairIT0_T2_EES5_T1_S6_, symObjAddr: 0xD6A9C, symBinAddr: 0x1000D73B0, symSize: 0x44 }
  - { offset: 0xCE971, size: 0x8, addend: 0x0, symName: __ZNSt3__123__dispatch_copy_or_moveB8ne180100INS_17_ClassicAlgPolicyENS_20__move_backward_loopIS1_EENS_23__move_backward_trivialEPPcS6_S6_EENS_4pairIT2_T4_EES8_T3_S9_, symObjAddr: 0xD6AE0, symBinAddr: 0x1000D73F4, symSize: 0x44 }
  - { offset: 0xCE9F3, size: 0x8, addend: 0x0, symName: __ZNSt3__121__unwrap_and_dispatchB8ne180100INS_10__overloadINS_20__move_backward_loopINS_17_ClassicAlgPolicyEEENS_23__move_backward_trivialEEEPPcS8_S8_Li0EEENS_4pairIT0_T2_EESA_T1_SB_, symObjAddr: 0xD6B24, symBinAddr: 0x1000D7438, symSize: 0xB4 }
  - { offset: 0xCEA88, size: 0x8, addend: 0x0, symName: __ZNSt3__128__copy_backward_trivial_implB8ne180100IPcS1_EENS_4pairIPT_PT0_EES4_S4_S6_, symObjAddr: 0xD6C20, symBinAddr: 0x1000D7534, symSize: 0x90 }
  - { offset: 0xCEAF4, size: 0x8, addend: 0x0, symName: __ZNSt3__19make_pairB8ne180100IRPPcS3_EENS_4pairINS_18__unwrap_ref_decayIT_E4typeENS5_IT0_E4typeEEEOS6_OS9_, symObjAddr: 0xD6CB0, symBinAddr: 0x1000D75C4, symSize: 0x38 }
  - { offset: 0xCEB44, size: 0x8, addend: 0x0, symName: __ZNSt3__119__allocate_at_leastB8ne180100INS_9allocatorIPcEEEENS_19__allocation_resultINS_16allocator_traitsIT_E7pointerEEERS6_m, symObjAddr: 0xD6E68, symBinAddr: 0x1000D777C, symSize: 0x40 }
  - { offset: 0xCEB8A, size: 0x8, addend: 0x0, symName: __ZNSt3__112__destroy_atB8ne180100INS_4pairIKNS_12basic_stringIcNS_11char_traitsIcEENS_9allocatorIcEEEENS_10shared_ptrIN5Catch16IReporterFactoryEEEEELi0EEEvPT_, symObjAddr: 0xD9344, symBinAddr: 0x1000D9C58, symSize: 0x24 }
  - { offset: 0xCEBC3, size: 0x8, addend: 0x0, symName: __ZNSt3__17launderB8ne180100INS_4pairIKNS_12basic_stringIcNS_11char_traitsIcEENS_9allocatorIcEEEENS_10shared_ptrIN5Catch16IReporterFactoryEEEEEEEPT_SF_, symObjAddr: 0xD93F0, symBinAddr: 0x1000D9D04, symSize: 0x24 }
  - { offset: 0xCEBFA, size: 0x8, addend: 0x0, symName: __ZNSt3__19__launderB8ne180100INS_4pairIKNS_12basic_stringIcNS_11char_traitsIcEENS_9allocatorIcEEEENS_10shared_ptrIN5Catch16IReporterFactoryEEEEEEEPT_SF_, symObjAddr: 0xD9414, symBinAddr: 0x1000D9D28, symSize: 0x14 }
  - { offset: 0xCEC88, size: 0x8, addend: 0x0, symName: __ZNSt3__114__construct_atB8ne180100INS_4pairIKNS_12basic_stringIcNS_11char_traitsIcEENS_9allocatorIcEEEENS_10shared_ptrIN5Catch16IReporterFactoryEEEEEJRS8_RKSC_EPSD_EEPT_SJ_DpOT0_, symObjAddr: 0xD9F50, symBinAddr: 0x1000DA864, symSize: 0x34 }
  - { offset: 0xCECF6, size: 0x8, addend: 0x0, symName: __ZNSt3__112construct_atB8ne180100INS_4pairIKNS_12basic_stringIcNS_11char_traitsIcEENS_9allocatorIcEEEENS_10shared_ptrIN5Catch16IReporterFactoryEEEEEJRS8_RKSC_EPSD_EEPT_SJ_DpOT0_, symObjAddr: 0xD9F84, symBinAddr: 0x1000DA898, symSize: 0x3C }
  - { offset: 0xCED64, size: 0x8, addend: 0x0, symName: __ZNSt3__14swapB8ne180100IPN5Catch6ConfigEEENS_9enable_ifIXaasr21is_move_constructibleIT_EE5valuesr18is_move_assignableIS5_EE5valueEvE4typeERS5_S8_, symObjAddr: 0xDA75C, symBinAddr: 0x1000DB070, symSize: 0x3C }
  - { offset: 0xCEDB8, size: 0x8, addend: 0x0, symName: __ZNSt3__115allocate_sharedB8ne180100IN5Catch6ConfigENS_9allocatorIS2_EEJRNS1_10ConfigDataEEvEENS_10shared_ptrIT_EERKT0_DpOT1_, symObjAddr: 0xDA7B0, symBinAddr: 0x1000DB0C4, symSize: 0x98 }
  - { offset: 0xCF162, size: 0x8, addend: 0x0, symName: __ZNSt3__114__construct_atB8ne180100IN5Catch6ConfigEJRNS1_10ConfigDataEEPS2_EEPT_S7_DpOT0_, symObjAddr: 0xDAE58, symBinAddr: 0x1000DB76C, symSize: 0x2C }
  - { offset: 0xCF1BB, size: 0x8, addend: 0x0, symName: __ZNSt3__112construct_atB8ne180100IN5Catch6ConfigEJRNS1_10ConfigDataEEPS2_EEPT_S7_DpOT0_, symObjAddr: 0xDAE84, symBinAddr: 0x1000DB798, symSize: 0x34 }
  - { offset: 0xCF214, size: 0x8, addend: 0x0, symName: __ZNSt3__112__destroy_atB8ne180100IN5Catch6ConfigELi0EEEvPT_, symObjAddr: 0xDAF98, symBinAddr: 0x1000DB8AC, symSize: 0x2C }
  - { offset: 0xCF284, size: 0x8, addend: 0x0, symName: __ZNSt3__112__destroy_atB8ne180100INS_4pairIKNS_12basic_stringIcNS_11char_traitsIcEENS_9allocatorIcEEEEN5Catch8TagAliasEEELi0EEEvPT_, symObjAddr: 0xDBCA4, symBinAddr: 0x1000DC5B8, symSize: 0x24 }
  - { offset: 0xCF2BD, size: 0x8, addend: 0x0, symName: __ZNSt3__17launderB8ne180100INS_4pairIKNS_12basic_stringIcNS_11char_traitsIcEENS_9allocatorIcEEEEN5Catch8TagAliasEEEEEPT_SD_, symObjAddr: 0xDBD50, symBinAddr: 0x1000DC664, symSize: 0x24 }
  - { offset: 0xCF2F4, size: 0x8, addend: 0x0, symName: __ZNSt3__19__launderB8ne180100INS_4pairIKNS_12basic_stringIcNS_11char_traitsIcEENS_9allocatorIcEEEEN5Catch8TagAliasEEEEEPT_SD_, symObjAddr: 0xDBD74, symBinAddr: 0x1000DC688, symSize: 0x14 }
  - { offset: 0xCF32B, size: 0x8, addend: 0x0, symName: __ZNSt3__1neB8ne180100ERKNS_21__tree_const_iteratorINS_12__value_typeINS_12basic_stringIcNS_11char_traitsIcEENS_9allocatorIcEEEEN5Catch8TagAliasEEEPNS_11__tree_nodeISA_PvEElEESH_, symObjAddr: 0xDBFEC, symBinAddr: 0x1000DC900, symSize: 0x34 }
  - { offset: 0xCF368, size: 0x8, addend: 0x0, symName: __ZNSt3__17launderB8ne180100IKNS_4pairIKNS_12basic_stringIcNS_11char_traitsIcEENS_9allocatorIcEEEEN5Catch8TagAliasEEEEEPT_SE_, symObjAddr: 0xDC194, symBinAddr: 0x1000DCAA8, symSize: 0x24 }
  - { offset: 0xCF39F, size: 0x8, addend: 0x0, symName: __ZNSt3__19__launderB8ne180100IKNS_4pairIKNS_12basic_stringIcNS_11char_traitsIcEENS_9allocatorIcEEEEN5Catch8TagAliasEEEEEPT_SE_, symObjAddr: 0xDC1B8, symBinAddr: 0x1000DCACC, symSize: 0x14 }
  - { offset: 0xCF3D6, size: 0x8, addend: 0x0, symName: __ZNSt3__1eqB8ne180100ERKNS_21__tree_const_iteratorINS_12__value_typeINS_12basic_stringIcNS_11char_traitsIcEENS_9allocatorIcEEEEN5Catch8TagAliasEEEPNS_11__tree_nodeISA_PvEElEESH_, symObjAddr: 0xDC1EC, symBinAddr: 0x1000DCB00, symSize: 0x30 }
  - { offset: 0xCF4A0, size: 0x8, addend: 0x0, symName: __ZNSt3__114__construct_atB8ne180100INS_4pairIKNS_12basic_stringIcNS_11char_traitsIcEENS_9allocatorIcEEEEN5Catch8TagAliasEEEJNS1_IS7_SA_EEEPSB_EEPT_SF_DpOT0_, symObjAddr: 0xDCD24, symBinAddr: 0x1000DD638, symSize: 0x2C }
  - { offset: 0xCF4F9, size: 0x8, addend: 0x0, symName: __ZNSt3__112construct_atB8ne180100INS_4pairIKNS_12basic_stringIcNS_11char_traitsIcEENS_9allocatorIcEEEEN5Catch8TagAliasEEEJNS1_IS7_SA_EEEPSB_EEPT_SF_DpOT0_, symObjAddr: 0xDCD50, symBinAddr: 0x1000DD664, symSize: 0x34 }
  - { offset: 0xD0033, size: 0x8, addend: 0x0, symName: __ZNSt3__115allocate_sharedB8ne180100IN5Catch16TestCaseTracking14SectionTrackerENS_9allocatorIS3_EEJNS2_15NameAndLocationERNS2_14TrackerContextEDnEvEENS_10shared_ptrIT_EERKT0_DpOT1_, symObjAddr: 0xDEDDC, symBinAddr: 0x1000DF6F0, symSize: 0xA8 }
  - { offset: 0xD0468, size: 0x8, addend: 0x0, symName: __ZNSt3__114__construct_atB8ne180100IN5Catch16TestCaseTracking14SectionTrackerEJNS2_15NameAndLocationERNS2_14TrackerContextEDnEPS3_EEPT_S9_DpOT0_, symObjAddr: 0xDF4C4, symBinAddr: 0x1000DFDD8, symSize: 0x3C }
  - { offset: 0xD04EB, size: 0x8, addend: 0x0, symName: __ZNSt3__112construct_atB8ne180100IN5Catch16TestCaseTracking14SectionTrackerEJNS2_15NameAndLocationERNS2_14TrackerContextEDnEPS3_EEPT_S9_DpOT0_, symObjAddr: 0xDF500, symBinAddr: 0x1000DFE14, symSize: 0x44 }
  - { offset: 0xD056E, size: 0x8, addend: 0x0, symName: __ZNSt3__112__destroy_atB8ne180100IN5Catch16TestCaseTracking14SectionTrackerELi0EEEvPT_, symObjAddr: 0xDF624, symBinAddr: 0x1000DFF38, symSize: 0x2C }
  - { offset: 0xD05DE, size: 0x8, addend: 0x0, symName: __ZNSt3__14swapB8ne180100IPN5Catch16TestCaseTracking8ITrackerEEENS_9enable_ifIXaasr21is_move_constructibleIT_EE5valuesr18is_move_assignableIS6_EE5valueEvE4typeERS6_S9_, symObjAddr: 0xDF900, symBinAddr: 0x1000E0214, symSize: 0x3C }
  - { offset: 0xD0633, size: 0x8, addend: 0x0, symName: __ZNSt3__14swapB8ne180100IPN5Catch16TestCaseTracking14SectionTrackerEEENS_9enable_ifIXaasr21is_move_constructibleIT_EE5valuesr18is_move_assignableIS6_EE5valueEvE4typeERS6_S9_, symObjAddr: 0xDFAA0, symBinAddr: 0x1000E03B4, symSize: 0x3C }
  - { offset: 0xD0687, size: 0x8, addend: 0x0, symName: __ZNSt3__115allocate_sharedB8ne180100IN5Catch16TestCaseTracking14SectionTrackerENS_9allocatorIS3_EEJRKNS2_15NameAndLocationERNS2_14TrackerContextEPNS2_8ITrackerEEvEENS_10shared_ptrIT_EERKT0_DpOT1_, symObjAddr: 0xDFADC, symBinAddr: 0x1000E03F0, symSize: 0xA8 }
  - { offset: 0xD072E, size: 0x8, addend: 0x0, symName: __ZNSt3__114__construct_atB8ne180100IN5Catch16TestCaseTracking14SectionTrackerEJRKNS2_15NameAndLocationERNS2_14TrackerContextEPNS2_8ITrackerEEPS3_EEPT_SD_DpOT0_, symObjAddr: 0xDFCD4, symBinAddr: 0x1000E05E8, symSize: 0x3C }
  - { offset: 0xD07B1, size: 0x8, addend: 0x0, symName: __ZNSt3__112construct_atB8ne180100IN5Catch16TestCaseTracking14SectionTrackerEJRKNS2_15NameAndLocationERNS2_14TrackerContextEPNS2_8ITrackerEEPS3_EEPT_SD_DpOT0_, symObjAddr: 0xDFD10, symBinAddr: 0x1000E0624, symSize: 0x48 }
  - { offset: 0xD0833, size: 0x8, addend: 0x0, symName: __ZNSt3__115allocate_sharedB8ne180100IN5Catch8TestSpec11NamePatternENS_9allocatorIS3_EEJRNS_12basic_stringIcNS_11char_traitsIcEENS4_IcEEEESB_EvEENS_10shared_ptrIT_EERKT0_DpOT1_, symObjAddr: 0xDFE38, symBinAddr: 0x1000E074C, symSize: 0xA0 }
  - { offset: 0xD0BFD, size: 0x8, addend: 0x0, symName: __ZNSt3__114__construct_atB8ne180100IN5Catch8TestSpec11NamePatternEJRNS_12basic_stringIcNS_11char_traitsIcEENS_9allocatorIcEEEESA_EPS3_EEPT_SD_DpOT0_, symObjAddr: 0xE0500, symBinAddr: 0x1000E0E14, symSize: 0x34 }
  - { offset: 0xD0C6B, size: 0x8, addend: 0x0, symName: __ZNSt3__112construct_atB8ne180100IN5Catch8TestSpec11NamePatternEJRNS_12basic_stringIcNS_11char_traitsIcEENS_9allocatorIcEEEESA_EPS3_EEPT_SD_DpOT0_, symObjAddr: 0xE0534, symBinAddr: 0x1000E0E48, symSize: 0x3C }
  - { offset: 0xD0CD9, size: 0x8, addend: 0x0, symName: __ZNSt3__112__destroy_atB8ne180100IN5Catch8TestSpec11NamePatternELi0EEEvPT_, symObjAddr: 0xE0650, symBinAddr: 0x1000E0F64, symSize: 0x2C }
  - { offset: 0xD0D48, size: 0x8, addend: 0x0, symName: __ZNSt3__115allocate_sharedB8ne180100IN5Catch8TestSpec15ExcludedPatternENS_9allocatorIS3_EEJRNS_10shared_ptrINS2_7PatternEEEEvEENS6_IT_EERKT0_DpOT1_, symObjAddr: 0xE08FC, symBinAddr: 0x1000E1210, symSize: 0x98 }
  - { offset: 0xD10F2, size: 0x8, addend: 0x0, symName: __ZNSt3__114__construct_atB8ne180100IN5Catch8TestSpec15ExcludedPatternEJRNS_10shared_ptrINS2_7PatternEEEEPS3_EEPT_SA_DpOT0_, symObjAddr: 0xE0FA4, symBinAddr: 0x1000E18B8, symSize: 0x2C }
  - { offset: 0xD114B, size: 0x8, addend: 0x0, symName: __ZNSt3__112construct_atB8ne180100IN5Catch8TestSpec15ExcludedPatternEJRNS_10shared_ptrINS2_7PatternEEEEPS3_EEPT_SA_DpOT0_, symObjAddr: 0xE0FD0, symBinAddr: 0x1000E18E4, symSize: 0x34 }
  - { offset: 0xD11A4, size: 0x8, addend: 0x0, symName: __ZNSt3__112__destroy_atB8ne180100IN5Catch8TestSpec15ExcludedPatternELi0EEEvPT_, symObjAddr: 0xE10E4, symBinAddr: 0x1000E19F8, symSize: 0x2C }
  - { offset: 0xD1214, size: 0x8, addend: 0x0, symName: __ZNSt3__14swapB8ne180100IPN5Catch8TestSpec7PatternEEENS_9enable_ifIXaasr21is_move_constructibleIT_EE5valuesr18is_move_assignableIS6_EE5valueEvE4typeERS6_S9_, symObjAddr: 0xE1408, symBinAddr: 0x1000E1D1C, symSize: 0x3C }
  - { offset: 0xD1268, size: 0x8, addend: 0x0, symName: __ZNSt3__115allocate_sharedB8ne180100IN5Catch8TestSpec10TagPatternENS_9allocatorIS3_EEJRA2_KcRNS_12basic_stringIcNS_11char_traitsIcEENS4_IcEEEEEvEENS_10shared_ptrIT_EERKT0_DpOT1_, symObjAddr: 0xE1444, symBinAddr: 0x1000E1D58, symSize: 0xA0 }
  - { offset: 0xD1671, size: 0x8, addend: 0x0, symName: __ZNSt3__114__construct_atB8ne180100IN5Catch8TestSpec10TagPatternEJRA2_KcRNS_12basic_stringIcNS_11char_traitsIcEENS_9allocatorIcEEEEEPS3_EEPT_SG_DpOT0_, symObjAddr: 0xE1B0C, symBinAddr: 0x1000E2420, symSize: 0x34 }
  - { offset: 0xD16DF, size: 0x8, addend: 0x0, symName: __ZNSt3__112construct_atB8ne180100IN5Catch8TestSpec10TagPatternEJRA2_KcRNS_12basic_stringIcNS_11char_traitsIcEENS_9allocatorIcEEEEEPS3_EEPT_SG_DpOT0_, symObjAddr: 0xE1B40, symBinAddr: 0x1000E2454, symSize: 0x7C }
  - { offset: 0xD174D, size: 0x8, addend: 0x0, symName: __ZNSt3__112__destroy_atB8ne180100IN5Catch8TestSpec10TagPatternELi0EEEvPT_, symObjAddr: 0xE1C9C, symBinAddr: 0x1000E25B0, symSize: 0x2C }
  - { offset: 0xD17BC, size: 0x8, addend: 0x0, symName: __ZNSt3__115allocate_sharedB8ne180100IN5Catch8TestSpec10TagPatternENS_9allocatorIS3_EEJRNS_12basic_stringIcNS_11char_traitsIcEENS4_IcEEEESB_EvEENS_10shared_ptrIT_EERKT0_DpOT1_, symObjAddr: 0xE1F48, symBinAddr: 0x1000E285C, symSize: 0xA0 }
  - { offset: 0xD184D, size: 0x8, addend: 0x0, symName: __ZNSt3__114__construct_atB8ne180100IN5Catch8TestSpec10TagPatternEJRNS_12basic_stringIcNS_11char_traitsIcEENS_9allocatorIcEEEESA_EPS3_EEPT_SD_DpOT0_, symObjAddr: 0xE2120, symBinAddr: 0x1000E2A34, symSize: 0x34 }
  - { offset: 0xD18BB, size: 0x8, addend: 0x0, symName: __ZNSt3__112construct_atB8ne180100IN5Catch8TestSpec10TagPatternEJRNS_12basic_stringIcNS_11char_traitsIcEENS_9allocatorIcEEEESA_EPS3_EEPT_SD_DpOT0_, symObjAddr: 0xE2154, symBinAddr: 0x1000E2A68, symSize: 0x3C }
  - { offset: 0xD1928, size: 0x8, addend: 0x0, symName: __ZNSt3__122__str_find_last_not_ofB8ne180100IcmNS_11char_traitsIcEELm18446744073709551615EEET0_PKT_S3_S4_S3_, symObjAddr: 0xE2274, symBinAddr: 0x1000E2B88, symSize: 0xD0 }
  - { offset: 0xD19D0, size: 0x8, addend: 0x0, symName: __ZNSt3__112__destroy_atB8ne180100IN5Catch9VerbosityELi0EEEvPT_, symObjAddr: 0xE2A54, symBinAddr: 0x1000E3368, symSize: 0x10 }
  - { offset: 0xD1A09, size: 0x8, addend: 0x0, symName: __ZNSt3__1eqB8ne180100ERKNS_21__tree_const_iteratorIN5Catch9VerbosityEPNS_11__tree_nodeIS2_PvEElEES9_, symObjAddr: 0xE36A4, symBinAddr: 0x1000E3FB8, symSize: 0x30 }
  - { offset: 0xD1A47, size: 0x8, addend: 0x0, symName: __ZNSt3__14nextB8ne180100INS_21__tree_const_iteratorIN5Catch9VerbosityEPNS_11__tree_nodeIS3_PvEElEELi0EEET_S9_NS_15iterator_traitsIS9_E15difference_typeE, symObjAddr: 0xE397C, symBinAddr: 0x1000E4290, symSize: 0x3C }
  - { offset: 0xD1A94, size: 0x8, addend: 0x0, symName: __ZNSt3__19__advanceB8ne180100INS_21__tree_const_iteratorIN5Catch9VerbosityEPNS_11__tree_nodeIS3_PvEElEEEEvRT_NS_15iterator_traitsIS9_E15difference_typeENS_26bidirectional_iterator_tagE, symObjAddr: 0xE3AD8, symBinAddr: 0x1000E43EC, symSize: 0xA4 }
  - { offset: 0xD1B01, size: 0x8, addend: 0x0, symName: __ZNSt3__114__construct_atB8ne180100IN5Catch9VerbosityEJRKS2_EPS2_EEPT_S7_DpOT0_, symObjAddr: 0xE3EAC, symBinAddr: 0x1000E47C0, symSize: 0x2C }
  - { offset: 0xD1B5A, size: 0x8, addend: 0x0, symName: __ZNSt3__112construct_atB8ne180100IN5Catch9VerbosityEJRKS2_EPS2_EEPT_S7_DpOT0_, symObjAddr: 0xE3ED8, symBinAddr: 0x1000E47EC, symSize: 0x24 }
  - { offset: 0xD1BB2, size: 0x8, addend: 0x0, symName: __ZNSt3__111make_sharedB8ne180100IN5Catch17ReporterRegistrarINS1_15CompactReporterEE15ReporterFactoryEJEvEENS_10shared_ptrIT_EEDpOT0_, symObjAddr: 0xE42C0, symBinAddr: 0x1000E4BD4, symSize: 0x38 }
  - { offset: 0xD1DEA, size: 0x8, addend: 0x0, symName: __ZNSt3__115allocate_sharedB8ne180100IN5Catch17ReporterRegistrarINS1_15CompactReporterEE15ReporterFactoryENS_9allocatorIS5_EEJEvEENS_10shared_ptrIT_EERKT0_DpOT1_, symObjAddr: 0xE4358, symBinAddr: 0x1000E4C6C, symSize: 0x90 }
  - { offset: 0xD2172, size: 0x8, addend: 0x0, symName: __ZNSt3__114__construct_atB8ne180100IN5Catch17ReporterRegistrarINS1_15CompactReporterEE15ReporterFactoryEJEPS5_EEPT_S8_DpOT0_, symObjAddr: 0xE49DC, symBinAddr: 0x1000E52F0, symSize: 0x24 }
  - { offset: 0xD21B5, size: 0x8, addend: 0x0, symName: __ZNSt3__112construct_atB8ne180100IN5Catch17ReporterRegistrarINS1_15CompactReporterEE15ReporterFactoryEJEPS5_EEPT_S8_DpOT0_, symObjAddr: 0xE4A00, symBinAddr: 0x1000E5314, symSize: 0x30 }
  - { offset: 0xD21F8, size: 0x8, addend: 0x0, symName: __ZNSt3__112__destroy_atB8ne180100IN5Catch17ReporterRegistrarINS1_15CompactReporterEE15ReporterFactoryELi0EEEvPT_, symObjAddr: 0xE5484, symBinAddr: 0x1000E5D98, symSize: 0x2C }
  - { offset: 0xD2268, size: 0x8, addend: 0x0, symName: __ZNSt3__114__construct_atB8ne180100IN5Catch11SectionInfoEJRKS2_EPS2_EEPT_S7_DpOT0_, symObjAddr: 0xE5DB8, symBinAddr: 0x1000E66CC, symSize: 0x2C }
  - { offset: 0xD22C1, size: 0x8, addend: 0x0, symName: __ZNSt3__112construct_atB8ne180100IN5Catch11SectionInfoEJRKS2_EPS2_EEPT_S7_DpOT0_, symObjAddr: 0xE5DE4, symBinAddr: 0x1000E66F8, symSize: 0x34 }
  - { offset: 0xD231A, size: 0x8, addend: 0x0, symName: __ZNSt3__119__allocate_at_leastB8ne180100INS_9allocatorIN5Catch11SectionInfoEEEEENS_19__allocation_resultINS_16allocator_traitsIT_E7pointerEEERS7_m, symObjAddr: 0xE6280, symBinAddr: 0x1000E6B94, symSize: 0x40 }
  - { offset: 0xD235F, size: 0x8, addend: 0x0, symName: __ZNSt3__142__uninitialized_allocator_move_if_noexceptB8ne180100INS_9allocatorIN5Catch11SectionInfoEEENS_16reverse_iteratorIPS3_EES7_S7_EET2_RT_T0_T1_S8_, symObjAddr: 0xE6434, symBinAddr: 0x1000E6D48, symSize: 0x12C }
  - { offset: 0xD2400, size: 0x8, addend: 0x0, symName: __ZNSt3__14swapB8ne180100IPN5Catch11SectionInfoEEENS_9enable_ifIXaasr21is_move_constructibleIT_EE5valuesr18is_move_assignableIS5_EE5valueEvE4typeERS5_S8_, symObjAddr: 0xE65AC, symBinAddr: 0x1000E6EC0, symSize: 0x3C }
  - { offset: 0xD2455, size: 0x8, addend: 0x0, symName: __ZNSt3__122__make_exception_guardB8ne180100INS_29_AllocatorDestroyRangeReverseINS_9allocatorIN5Catch11SectionInfoEEENS_16reverse_iteratorIPS4_EEEEEENS_28__exception_guard_exceptionsIT_EESB_, symObjAddr: 0xE65FC, symBinAddr: 0x1000E6F10, symSize: 0x4C }
  - { offset: 0xD248D, size: 0x8, addend: 0x0, symName: __ZNSt3__1neB8ne180100IPN5Catch11SectionInfoES3_EEbRKNS_16reverse_iteratorIT_EERKNS4_IT0_EE, symObjAddr: 0xE668C, symBinAddr: 0x1000E6FA0, symSize: 0x48 }
  - { offset: 0xD24DC, size: 0x8, addend: 0x0, symName: __ZNSt3__112__to_addressB8ne180100INS_16reverse_iteratorIPN5Catch11SectionInfoEEEvEEu7__decayIDTclsr19__to_address_helperIT_EE6__callclsr3stdE7declvalIRKS6_EEEEES8_, symObjAddr: 0xE6704, symBinAddr: 0x1000E7018, symSize: 0x24 }
  - { offset: 0xD2514, size: 0x8, addend: 0x0, symName: __ZNSt3__114__construct_atB8ne180100IN5Catch11SectionInfoEJS2_EPS2_EEPT_S5_DpOT0_, symObjAddr: 0xE6854, symBinAddr: 0x1000E7168, symSize: 0x2C }
  - { offset: 0xD256D, size: 0x8, addend: 0x0, symName: __ZNSt3__112construct_atB8ne180100IN5Catch11SectionInfoEJS2_EPS2_EEPT_S5_DpOT0_, symObjAddr: 0xE6880, symBinAddr: 0x1000E7194, symSize: 0x34 }
  - { offset: 0xD25F1, size: 0x8, addend: 0x0, symName: __ZNSt3__14prevB8ne180100IPN5Catch11SectionInfoELi0EEET_S4_NS_15iterator_traitsIS4_E15difference_typeE, symObjAddr: 0xE6918, symBinAddr: 0x1000E722C, symSize: 0x3C }
  - { offset: 0xD263E, size: 0x8, addend: 0x0, symName: __ZNSt3__19__advanceB8ne180100IPN5Catch11SectionInfoEEEvRT_NS_15iterator_traitsIS4_E15difference_typeENS_26random_access_iterator_tagE, symObjAddr: 0xE698C, symBinAddr: 0x1000E72A0, symSize: 0x28 }
  - { offset: 0xD268A, size: 0x8, addend: 0x0, symName: __ZNSt3__119__allocator_destroyB8ne180100INS_9allocatorIN5Catch11SectionInfoEEENS_16reverse_iteratorINS5_IPS3_EEEES8_EEvRT_T0_T1_, symObjAddr: 0xE6AB8, symBinAddr: 0x1000E73CC, symSize: 0x70 }
  - { offset: 0xD26F0, size: 0x8, addend: 0x0, symName: __ZNSt3__1neB8ne180100INS_16reverse_iteratorIPN5Catch11SectionInfoEEES5_EEbRKNS1_IT_EERKNS1_IT0_EE, symObjAddr: 0xE6B64, symBinAddr: 0x1000E7478, symSize: 0x60 }
  - { offset: 0xD273F, size: 0x8, addend: 0x0, symName: __ZNSt3__112__to_addressB8ne180100INS_16reverse_iteratorINS1_IPN5Catch11SectionInfoEEEEEvEEu7__decayIDTclsr19__to_address_helperIT_EE6__callclsr3stdE7declvalIRKS7_EEEEES9_, symObjAddr: 0xE6BC4, symBinAddr: 0x1000E74D8, symSize: 0x24 }
  - { offset: 0xD27A2, size: 0x8, addend: 0x0, symName: __ZNSt3__14prevB8ne180100INS_16reverse_iteratorIPN5Catch11SectionInfoEEELi0EEET_S6_NS_15iterator_traitsIS6_E15difference_typeE, symObjAddr: 0xE6CC0, symBinAddr: 0x1000E75D4, symSize: 0x4C }
  - { offset: 0xD27EF, size: 0x8, addend: 0x0, symName: __ZNSt3__19__advanceB8ne180100INS_16reverse_iteratorIPN5Catch11SectionInfoEEEEEvRT_NS_15iterator_traitsIS6_E15difference_typeENS_26random_access_iterator_tagE, symObjAddr: 0xE6D44, symBinAddr: 0x1000E7658, symSize: 0x2C }
  - { offset: 0xD283B, size: 0x8, addend: 0x0, symName: __ZNSt3__111make_sharedB8ne180100IN5Catch17ReporterRegistrarINS1_15ConsoleReporterEE15ReporterFactoryEJEvEENS_10shared_ptrIT_EEDpOT0_, symObjAddr: 0xE7130, symBinAddr: 0x1000E7A44, symSize: 0x38 }
  - { offset: 0xD2A73, size: 0x8, addend: 0x0, symName: __ZNSt3__115allocate_sharedB8ne180100IN5Catch17ReporterRegistrarINS1_15ConsoleReporterEE15ReporterFactoryENS_9allocatorIS5_EEJEvEENS_10shared_ptrIT_EERKT0_DpOT1_, symObjAddr: 0xE71C8, symBinAddr: 0x1000E7ADC, symSize: 0x90 }
  - { offset: 0xD2DFB, size: 0x8, addend: 0x0, symName: __ZNSt3__114__construct_atB8ne180100IN5Catch17ReporterRegistrarINS1_15ConsoleReporterEE15ReporterFactoryEJEPS5_EEPT_S8_DpOT0_, symObjAddr: 0xE784C, symBinAddr: 0x1000E8160, symSize: 0x24 }
  - { offset: 0xD2E3E, size: 0x8, addend: 0x0, symName: __ZNSt3__112construct_atB8ne180100IN5Catch17ReporterRegistrarINS1_15ConsoleReporterEE15ReporterFactoryEJEPS5_EEPT_S8_DpOT0_, symObjAddr: 0xE7870, symBinAddr: 0x1000E8184, symSize: 0x30 }
  - { offset: 0xD2E81, size: 0x8, addend: 0x0, symName: __ZNSt3__112__destroy_atB8ne180100IN5Catch17ReporterRegistrarINS1_15ConsoleReporterEE15ReporterFactoryELi0EEEvPT_, symObjAddr: 0xE7FC8, symBinAddr: 0x1000E88DC, symSize: 0x2C }
  - { offset: 0xD2EF1, size: 0x8, addend: 0x0, symName: __ZNSt3__114__construct_atB8ne180100IN5Catch14AssertionStatsEJRKS2_EPS2_EEPT_S7_DpOT0_, symObjAddr: 0xE8F7C, symBinAddr: 0x1000E9890, symSize: 0x2C }
  - { offset: 0xD2F4A, size: 0x8, addend: 0x0, symName: __ZNSt3__112construct_atB8ne180100IN5Catch14AssertionStatsEJRKS2_EPS2_EEPT_S7_DpOT0_, symObjAddr: 0xE8FA8, symBinAddr: 0x1000E98BC, symSize: 0x34 }
  - { offset: 0xD2FA3, size: 0x8, addend: 0x0, symName: __ZNSt3__119__allocate_at_leastB8ne180100INS_9allocatorIN5Catch14AssertionStatsEEEEENS_19__allocation_resultINS_16allocator_traitsIT_E7pointerEEERS7_m, symObjAddr: 0xE954C, symBinAddr: 0x1000E9E60, symSize: 0x40 }
  - { offset: 0xD2FE8, size: 0x8, addend: 0x0, symName: __ZNSt3__142__uninitialized_allocator_move_if_noexceptB8ne180100INS_9allocatorIN5Catch14AssertionStatsEEENS_16reverse_iteratorIPS3_EES7_S7_EET2_RT_T0_T1_S8_, symObjAddr: 0xE9704, symBinAddr: 0x1000EA018, symSize: 0x12C }
  - { offset: 0xD3089, size: 0x8, addend: 0x0, symName: __ZNSt3__14swapB8ne180100IPN5Catch14AssertionStatsEEENS_9enable_ifIXaasr21is_move_constructibleIT_EE5valuesr18is_move_assignableIS5_EE5valueEvE4typeERS5_S8_, symObjAddr: 0xE987C, symBinAddr: 0x1000EA190, symSize: 0x3C }
  - { offset: 0xD30DE, size: 0x8, addend: 0x0, symName: __ZNSt3__122__make_exception_guardB8ne180100INS_29_AllocatorDestroyRangeReverseINS_9allocatorIN5Catch14AssertionStatsEEENS_16reverse_iteratorIPS4_EEEEEENS_28__exception_guard_exceptionsIT_EESB_, symObjAddr: 0xE98CC, symBinAddr: 0x1000EA1E0, symSize: 0x4C }
  - { offset: 0xD3116, size: 0x8, addend: 0x0, symName: __ZNSt3__1neB8ne180100IPN5Catch14AssertionStatsES3_EEbRKNS_16reverse_iteratorIT_EERKNS4_IT0_EE, symObjAddr: 0xE995C, symBinAddr: 0x1000EA270, symSize: 0x48 }
  - { offset: 0xD3165, size: 0x8, addend: 0x0, symName: __ZNSt3__112__to_addressB8ne180100INS_16reverse_iteratorIPN5Catch14AssertionStatsEEEvEEu7__decayIDTclsr19__to_address_helperIT_EE6__callclsr3stdE7declvalIRKS6_EEEEES8_, symObjAddr: 0xE99A4, symBinAddr: 0x1000EA2B8, symSize: 0x24 }
  - { offset: 0xD31C8, size: 0x8, addend: 0x0, symName: __ZNSt3__14prevB8ne180100IPN5Catch14AssertionStatsELi0EEET_S4_NS_15iterator_traitsIS4_E15difference_typeE, symObjAddr: 0xE9B58, symBinAddr: 0x1000EA46C, symSize: 0x3C }
  - { offset: 0xD3215, size: 0x8, addend: 0x0, symName: __ZNSt3__19__advanceB8ne180100IPN5Catch14AssertionStatsEEEvRT_NS_15iterator_traitsIS4_E15difference_typeENS_26random_access_iterator_tagE, symObjAddr: 0xE9BCC, symBinAddr: 0x1000EA4E0, symSize: 0x30 }
  - { offset: 0xD3261, size: 0x8, addend: 0x0, symName: __ZNSt3__119__allocator_destroyB8ne180100INS_9allocatorIN5Catch14AssertionStatsEEENS_16reverse_iteratorINS5_IPS3_EEEES8_EEvRT_T0_T1_, symObjAddr: 0xE9D00, symBinAddr: 0x1000EA614, symSize: 0x70 }
  - { offset: 0xD32C7, size: 0x8, addend: 0x0, symName: __ZNSt3__1neB8ne180100INS_16reverse_iteratorIPN5Catch14AssertionStatsEEES5_EEbRKNS1_IT_EERKNS1_IT0_EE, symObjAddr: 0xE9DAC, symBinAddr: 0x1000EA6C0, symSize: 0x60 }
  - { offset: 0xD3316, size: 0x8, addend: 0x0, symName: __ZNSt3__112__to_addressB8ne180100INS_16reverse_iteratorINS1_IPN5Catch14AssertionStatsEEEEEvEEu7__decayIDTclsr19__to_address_helperIT_EE6__callclsr3stdE7declvalIRKS7_EEEEES9_, symObjAddr: 0xE9E0C, symBinAddr: 0x1000EA720, symSize: 0x24 }
  - { offset: 0xD3379, size: 0x8, addend: 0x0, symName: __ZNSt3__14prevB8ne180100INS_16reverse_iteratorIPN5Catch14AssertionStatsEEELi0EEET_S6_NS_15iterator_traitsIS6_E15difference_typeE, symObjAddr: 0xE9F08, symBinAddr: 0x1000EA81C, symSize: 0x4C }
  - { offset: 0xD33C6, size: 0x8, addend: 0x0, symName: __ZNSt3__19__advanceB8ne180100INS_16reverse_iteratorIPN5Catch14AssertionStatsEEEEEvRT_NS_15iterator_traitsIS6_E15difference_typeENS_26random_access_iterator_tagE, symObjAddr: 0xE9F8C, symBinAddr: 0x1000EA8A0, symSize: 0x2C }
  - { offset: 0xD3412, size: 0x8, addend: 0x0, symName: __ZNSt3__111make_sharedB8ne180100IN5Catch22CumulativeReporterBaseINS1_13JunitReporterEE4NodeINS1_13TestCaseStatsENS4_11SectionNodeEEEJRKS6_EvEENS_10shared_ptrIT_EEDpOT0_, symObjAddr: 0xEA248, symBinAddr: 0x1000EAB5C, symSize: 0x40 }
  - { offset: 0xD3457, size: 0x8, addend: 0x0, symName: __ZNSt3__115allocate_sharedB8ne180100IN5Catch22CumulativeReporterBaseINS1_13JunitReporterEE4NodeINS1_13TestCaseStatsENS4_11SectionNodeEEENS_9allocatorIS8_EEJRKS6_EvEENS_10shared_ptrIT_EERKT0_DpOT1_, symObjAddr: 0xEA44C, symBinAddr: 0x1000EAD60, symSize: 0x98 }
  - { offset: 0xD3801, size: 0x8, addend: 0x0, symName: __ZNSt3__114__construct_atB8ne180100IN5Catch22CumulativeReporterBaseINS1_13JunitReporterEE4NodeINS1_13TestCaseStatsENS4_11SectionNodeEEEJRKS6_EPS8_EEPT_SD_DpOT0_, symObjAddr: 0xEAAF4, symBinAddr: 0x1000EB408, symSize: 0x2C }
  - { offset: 0xD385A, size: 0x8, addend: 0x0, symName: __ZNSt3__112construct_atB8ne180100IN5Catch22CumulativeReporterBaseINS1_13JunitReporterEE4NodeINS1_13TestCaseStatsENS4_11SectionNodeEEEJRKS6_EPS8_EEPT_SD_DpOT0_, symObjAddr: 0xEAB20, symBinAddr: 0x1000EB434, symSize: 0x34 }
  - { offset: 0xD38B3, size: 0x8, addend: 0x0, symName: __ZNSt3__112__destroy_atB8ne180100IN5Catch22CumulativeReporterBaseINS1_13JunitReporterEE4NodeINS1_13TestCaseStatsENS4_11SectionNodeEEELi0EEEvPT_, symObjAddr: 0xEAE80, symBinAddr: 0x1000EB794, symSize: 0x2C }
  - { offset: 0xD3923, size: 0x8, addend: 0x0, symName: __ZNSt3__114__construct_atB8ne180100INS_10shared_ptrIN5Catch22CumulativeReporterBaseINS2_13JunitReporterEE11SectionNodeEEEJRKS7_EPS7_EEPT_SC_DpOT0_, symObjAddr: 0xEB34C, symBinAddr: 0x1000EBC60, symSize: 0x2C }
  - { offset: 0xD397C, size: 0x8, addend: 0x0, symName: __ZNSt3__112construct_atB8ne180100INS_10shared_ptrIN5Catch22CumulativeReporterBaseINS2_13JunitReporterEE11SectionNodeEEEJRKS7_EPS7_EEPT_SC_DpOT0_, symObjAddr: 0xEB378, symBinAddr: 0x1000EBC8C, symSize: 0x34 }
  - { offset: 0xD39D5, size: 0x8, addend: 0x0, symName: __ZNSt3__119__allocate_at_leastB8ne180100INS_9allocatorINS_10shared_ptrIN5Catch22CumulativeReporterBaseINS3_13JunitReporterEE11SectionNodeEEEEEEENS_19__allocation_resultINS_16allocator_traitsIT_E7pointerEEERSC_m, symObjAddr: 0xEB8B8, symBinAddr: 0x1000EC1CC, symSize: 0x40 }
  - { offset: 0xD3A1A, size: 0x8, addend: 0x0, symName: __ZNSt3__142__uninitialized_allocator_move_if_noexceptB8ne180100INS_9allocatorINS_10shared_ptrIN5Catch22CumulativeReporterBaseINS3_13JunitReporterEE11SectionNodeEEEEENS_16reverse_iteratorIPS8_EESC_SC_EET2_RT_T0_T1_SD_, symObjAddr: 0xEBA6C, symBinAddr: 0x1000EC380, symSize: 0x12C }
  - { offset: 0xD3ABB, size: 0x8, addend: 0x0, symName: __ZNSt3__14swapB8ne180100IPNS_10shared_ptrIN5Catch22CumulativeReporterBaseINS2_13JunitReporterEE11SectionNodeEEEEENS_9enable_ifIXaasr21is_move_constructibleIT_EE5valuesr18is_move_assignableISA_EE5valueEvE4typeERSA_SD_, symObjAddr: 0xEBBE4, symBinAddr: 0x1000EC4F8, symSize: 0x3C }
  - { offset: 0xD3B10, size: 0x8, addend: 0x0, symName: __ZNSt3__122__make_exception_guardB8ne180100INS_29_AllocatorDestroyRangeReverseINS_9allocatorINS_10shared_ptrIN5Catch22CumulativeReporterBaseINS4_13JunitReporterEE11SectionNodeEEEEENS_16reverse_iteratorIPS9_EEEEEENS_28__exception_guard_exceptionsIT_EESG_, symObjAddr: 0xEBC34, symBinAddr: 0x1000EC548, symSize: 0x4C }
  - { offset: 0xD3B48, size: 0x8, addend: 0x0, symName: __ZNSt3__1neB8ne180100IPNS_10shared_ptrIN5Catch22CumulativeReporterBaseINS2_13JunitReporterEE11SectionNodeEEES8_EEbRKNS_16reverse_iteratorIT_EERKNS9_IT0_EE, symObjAddr: 0xEBCC4, symBinAddr: 0x1000EC5D8, symSize: 0x48 }
  - { offset: 0xD3B97, size: 0x8, addend: 0x0, symName: __ZNSt3__112__to_addressB8ne180100INS_16reverse_iteratorIPNS_10shared_ptrIN5Catch22CumulativeReporterBaseINS3_13JunitReporterEE11SectionNodeEEEEEvEEu7__decayIDTclsr19__to_address_helperIT_EE6__callclsr3stdE7declvalIRKSB_EEEEESD_, symObjAddr: 0xEBD3C, symBinAddr: 0x1000EC650, symSize: 0x24 }
  - { offset: 0xD3BCF, size: 0x8, addend: 0x0, symName: __ZNSt3__114__construct_atB8ne180100INS_10shared_ptrIN5Catch22CumulativeReporterBaseINS2_13JunitReporterEE11SectionNodeEEEJS7_EPS7_EEPT_SA_DpOT0_, symObjAddr: 0xEBE8C, symBinAddr: 0x1000EC7A0, symSize: 0x2C }
  - { offset: 0xD3C28, size: 0x8, addend: 0x0, symName: __ZNSt3__112construct_atB8ne180100INS_10shared_ptrIN5Catch22CumulativeReporterBaseINS2_13JunitReporterEE11SectionNodeEEEJS7_EPS7_EEPT_SA_DpOT0_, symObjAddr: 0xEBEB8, symBinAddr: 0x1000EC7CC, symSize: 0x34 }
  - { offset: 0xD3CAC, size: 0x8, addend: 0x0, symName: __ZNSt3__14prevB8ne180100IPNS_10shared_ptrIN5Catch22CumulativeReporterBaseINS2_13JunitReporterEE11SectionNodeEEELi0EEET_S9_NS_15iterator_traitsIS9_E15difference_typeE, symObjAddr: 0xEBFC4, symBinAddr: 0x1000EC8D8, symSize: 0x3C }
  - { offset: 0xD3CF9, size: 0x8, addend: 0x0, symName: __ZNSt3__19__advanceB8ne180100IPNS_10shared_ptrIN5Catch22CumulativeReporterBaseINS2_13JunitReporterEE11SectionNodeEEEEEvRT_NS_15iterator_traitsIS9_E15difference_typeENS_26random_access_iterator_tagE, symObjAddr: 0xEC038, symBinAddr: 0x1000EC94C, symSize: 0x28 }
  - { offset: 0xD3D45, size: 0x8, addend: 0x0, symName: __ZNSt3__119__allocator_destroyB8ne180100INS_9allocatorINS_10shared_ptrIN5Catch22CumulativeReporterBaseINS3_13JunitReporterEE11SectionNodeEEEEENS_16reverse_iteratorINSA_IPS8_EEEESD_EEvRT_T0_T1_, symObjAddr: 0xEC164, symBinAddr: 0x1000ECA78, symSize: 0x70 }
  - { offset: 0xD3DAB, size: 0x8, addend: 0x0, symName: __ZNSt3__1neB8ne180100INS_16reverse_iteratorIPNS_10shared_ptrIN5Catch22CumulativeReporterBaseINS3_13JunitReporterEE11SectionNodeEEEEESA_EEbRKNS1_IT_EERKNS1_IT0_EE, symObjAddr: 0xEC210, symBinAddr: 0x1000ECB24, symSize: 0x60 }
  - { offset: 0xD3DFA, size: 0x8, addend: 0x0, symName: __ZNSt3__112__to_addressB8ne180100INS_16reverse_iteratorINS1_IPNS_10shared_ptrIN5Catch22CumulativeReporterBaseINS3_13JunitReporterEE11SectionNodeEEEEEEEvEEu7__decayIDTclsr19__to_address_helperIT_EE6__callclsr3stdE7declvalIRKSC_EEEEESE_, symObjAddr: 0xEC270, symBinAddr: 0x1000ECB84, symSize: 0x24 }
  - { offset: 0xD3E5D, size: 0x8, addend: 0x0, symName: __ZNSt3__14prevB8ne180100INS_16reverse_iteratorIPNS_10shared_ptrIN5Catch22CumulativeReporterBaseINS3_13JunitReporterEE11SectionNodeEEEEELi0EEET_SB_NS_15iterator_traitsISB_E15difference_typeE, symObjAddr: 0xEC36C, symBinAddr: 0x1000ECC80, symSize: 0x4C }
  - { offset: 0xD3EAA, size: 0x8, addend: 0x0, symName: __ZNSt3__19__advanceB8ne180100INS_16reverse_iteratorIPNS_10shared_ptrIN5Catch22CumulativeReporterBaseINS3_13JunitReporterEE11SectionNodeEEEEEEEvRT_NS_15iterator_traitsISB_E15difference_typeENS_26random_access_iterator_tagE, symObjAddr: 0xEC3F0, symBinAddr: 0x1000ECD04, symSize: 0x2C }
  - { offset: 0xD3EF7, size: 0x8, addend: 0x0, symName: __ZNSt3__114__construct_atB8ne180100INS_10shared_ptrIN5Catch22CumulativeReporterBaseINS2_13JunitReporterEE4NodeINS2_13TestCaseStatsENS5_11SectionNodeEEEEEJRKSA_EPSA_EEPT_SF_DpOT0_, symObjAddr: 0xEC960, symBinAddr: 0x1000ED274, symSize: 0x2C }
  - { offset: 0xD3F50, size: 0x8, addend: 0x0, symName: __ZNSt3__112construct_atB8ne180100INS_10shared_ptrIN5Catch22CumulativeReporterBaseINS2_13JunitReporterEE4NodeINS2_13TestCaseStatsENS5_11SectionNodeEEEEEJRKSA_EPSA_EEPT_SF_DpOT0_, symObjAddr: 0xEC98C, symBinAddr: 0x1000ED2A0, symSize: 0x34 }
  - { offset: 0xD3FA9, size: 0x8, addend: 0x0, symName: __ZNSt3__119__allocate_at_leastB8ne180100INS_9allocatorINS_10shared_ptrIN5Catch22CumulativeReporterBaseINS3_13JunitReporterEE4NodeINS3_13TestCaseStatsENS6_11SectionNodeEEEEEEEEENS_19__allocation_resultINS_16allocator_traitsIT_E7pointerEEERSF_m, symObjAddr: 0xECEF4, symBinAddr: 0x1000ED808, symSize: 0x40 }
  - { offset: 0xD3FEE, size: 0x8, addend: 0x0, symName: __ZNSt3__142__uninitialized_allocator_move_if_noexceptB8ne180100INS_9allocatorINS_10shared_ptrIN5Catch22CumulativeReporterBaseINS3_13JunitReporterEE4NodeINS3_13TestCaseStatsENS6_11SectionNodeEEEEEEENS_16reverse_iteratorIPSB_EESF_SF_EET2_RT_T0_T1_SG_, symObjAddr: 0xED0A8, symBinAddr: 0x1000ED9BC, symSize: 0x12C }
  - { offset: 0xD408F, size: 0x8, addend: 0x0, symName: __ZNSt3__14swapB8ne180100IPNS_10shared_ptrIN5Catch22CumulativeReporterBaseINS2_13JunitReporterEE4NodeINS2_13TestCaseStatsENS5_11SectionNodeEEEEEEENS_9enable_ifIXaasr21is_move_constructibleIT_EE5valuesr18is_move_assignableISD_EE5valueEvE4typeERSD_SG_, symObjAddr: 0xED220, symBinAddr: 0x1000EDB34, symSize: 0x3C }
  - { offset: 0xD40E4, size: 0x8, addend: 0x0, symName: __ZNSt3__122__make_exception_guardB8ne180100INS_29_AllocatorDestroyRangeReverseINS_9allocatorINS_10shared_ptrIN5Catch22CumulativeReporterBaseINS4_13JunitReporterEE4NodeINS4_13TestCaseStatsENS7_11SectionNodeEEEEEEENS_16reverse_iteratorIPSC_EEEEEENS_28__exception_guard_exceptionsIT_EESJ_, symObjAddr: 0xED270, symBinAddr: 0x1000EDB84, symSize: 0x4C }
  - { offset: 0xD411C, size: 0x8, addend: 0x0, symName: __ZNSt3__1neB8ne180100IPNS_10shared_ptrIN5Catch22CumulativeReporterBaseINS2_13JunitReporterEE4NodeINS2_13TestCaseStatsENS5_11SectionNodeEEEEESB_EEbRKNS_16reverse_iteratorIT_EERKNSC_IT0_EE, symObjAddr: 0xED300, symBinAddr: 0x1000EDC14, symSize: 0x48 }
  - { offset: 0xD416B, size: 0x8, addend: 0x0, symName: __ZNSt3__112__to_addressB8ne180100INS_16reverse_iteratorIPNS_10shared_ptrIN5Catch22CumulativeReporterBaseINS3_13JunitReporterEE4NodeINS3_13TestCaseStatsENS6_11SectionNodeEEEEEEEvEEu7__decayIDTclsr19__to_address_helperIT_EE6__callclsr3stdE7declvalIRKSE_EEEEESG_, symObjAddr: 0xED378, symBinAddr: 0x1000EDC8C, symSize: 0x24 }
  - { offset: 0xD41A3, size: 0x8, addend: 0x0, symName: __ZNSt3__114__construct_atB8ne180100INS_10shared_ptrIN5Catch22CumulativeReporterBaseINS2_13JunitReporterEE4NodeINS2_13TestCaseStatsENS5_11SectionNodeEEEEEJSA_EPSA_EEPT_SD_DpOT0_, symObjAddr: 0xED4C8, symBinAddr: 0x1000EDDDC, symSize: 0x2C }
  - { offset: 0xD41FC, size: 0x8, addend: 0x0, symName: __ZNSt3__112construct_atB8ne180100INS_10shared_ptrIN5Catch22CumulativeReporterBaseINS2_13JunitReporterEE4NodeINS2_13TestCaseStatsENS5_11SectionNodeEEEEEJSA_EPSA_EEPT_SD_DpOT0_, symObjAddr: 0xED4F4, symBinAddr: 0x1000EDE08, symSize: 0x34 }
  - { offset: 0xD4280, size: 0x8, addend: 0x0, symName: __ZNSt3__14prevB8ne180100IPNS_10shared_ptrIN5Catch22CumulativeReporterBaseINS2_13JunitReporterEE4NodeINS2_13TestCaseStatsENS5_11SectionNodeEEEEELi0EEET_SC_NS_15iterator_traitsISC_E15difference_typeE, symObjAddr: 0xED600, symBinAddr: 0x1000EDF14, symSize: 0x3C }
  - { offset: 0xD42CD, size: 0x8, addend: 0x0, symName: __ZNSt3__19__advanceB8ne180100IPNS_10shared_ptrIN5Catch22CumulativeReporterBaseINS2_13JunitReporterEE4NodeINS2_13TestCaseStatsENS5_11SectionNodeEEEEEEEvRT_NS_15iterator_traitsISC_E15difference_typeENS_26random_access_iterator_tagE, symObjAddr: 0xED674, symBinAddr: 0x1000EDF88, symSize: 0x28 }
  - { offset: 0xD4319, size: 0x8, addend: 0x0, symName: __ZNSt3__119__allocator_destroyB8ne180100INS_9allocatorINS_10shared_ptrIN5Catch22CumulativeReporterBaseINS3_13JunitReporterEE4NodeINS3_13TestCaseStatsENS6_11SectionNodeEEEEEEENS_16reverse_iteratorINSD_IPSB_EEEESG_EEvRT_T0_T1_, symObjAddr: 0xED7A0, symBinAddr: 0x1000EE0B4, symSize: 0x70 }
  - { offset: 0xD437F, size: 0x8, addend: 0x0, symName: __ZNSt3__1neB8ne180100INS_16reverse_iteratorIPNS_10shared_ptrIN5Catch22CumulativeReporterBaseINS3_13JunitReporterEE4NodeINS3_13TestCaseStatsENS6_11SectionNodeEEEEEEESD_EEbRKNS1_IT_EERKNS1_IT0_EE, symObjAddr: 0xED84C, symBinAddr: 0x1000EE160, symSize: 0x60 }
  - { offset: 0xD43CE, size: 0x8, addend: 0x0, symName: __ZNSt3__112__to_addressB8ne180100INS_16reverse_iteratorINS1_IPNS_10shared_ptrIN5Catch22CumulativeReporterBaseINS3_13JunitReporterEE4NodeINS3_13TestCaseStatsENS6_11SectionNodeEEEEEEEEEvEEu7__decayIDTclsr19__to_address_helperIT_EE6__callclsr3stdE7declvalIRKSF_EEEEESH_, symObjAddr: 0xED8AC, symBinAddr: 0x1000EE1C0, symSize: 0x24 }
  - { offset: 0xD4431, size: 0x8, addend: 0x0, symName: __ZNSt3__14prevB8ne180100INS_16reverse_iteratorIPNS_10shared_ptrIN5Catch22CumulativeReporterBaseINS3_13JunitReporterEE4NodeINS3_13TestCaseStatsENS6_11SectionNodeEEEEEEELi0EEET_SE_NS_15iterator_traitsISE_E15difference_typeE, symObjAddr: 0xED9A8, symBinAddr: 0x1000EE2BC, symSize: 0x4C }
  - { offset: 0xD447E, size: 0x8, addend: 0x0, symName: __ZNSt3__19__advanceB8ne180100INS_16reverse_iteratorIPNS_10shared_ptrIN5Catch22CumulativeReporterBaseINS3_13JunitReporterEE4NodeINS3_13TestCaseStatsENS6_11SectionNodeEEEEEEEEEvRT_NS_15iterator_traitsISE_E15difference_typeENS_26random_access_iterator_tagE, symObjAddr: 0xEDA2C, symBinAddr: 0x1000EE340, symSize: 0x2C }
  - { offset: 0xD44CB, size: 0x8, addend: 0x0, symName: __ZNSt3__14swapB8ne180100IPN5Catch22CumulativeReporterBaseINS1_13JunitReporterEE11SectionNodeEEENS_9enable_ifIXaasr21is_move_constructibleIT_EE5valuesr18is_move_assignableIS8_EE5valueEvE4typeERS8_SB_, symObjAddr: 0xEDD2C, symBinAddr: 0x1000EE640, symSize: 0x3C }
  - { offset: 0xD451F, size: 0x8, addend: 0x0, symName: __ZNSt3__111make_sharedB8ne180100IN5Catch22CumulativeReporterBaseINS1_13JunitReporterEE4NodeINS1_14TestGroupStatsENS5_INS1_13TestCaseStatsENS4_11SectionNodeEEEEEJRKS6_EvEENS_10shared_ptrIT_EEDpOT0_, symObjAddr: 0xEDD80, symBinAddr: 0x1000EE694, symSize: 0x40 }
  - { offset: 0xD4564, size: 0x8, addend: 0x0, symName: __ZNSt3__115allocate_sharedB8ne180100IN5Catch22CumulativeReporterBaseINS1_13JunitReporterEE4NodeINS1_14TestGroupStatsENS5_INS1_13TestCaseStatsENS4_11SectionNodeEEEEENS_9allocatorISA_EEJRKS6_EvEENS_10shared_ptrIT_EERKT0_DpOT1_, symObjAddr: 0xEDEEC, symBinAddr: 0x1000EE800, symSize: 0x98 }
  - { offset: 0xD490E, size: 0x8, addend: 0x0, symName: __ZNSt3__114__construct_atB8ne180100IN5Catch22CumulativeReporterBaseINS1_13JunitReporterEE4NodeINS1_14TestGroupStatsENS5_INS1_13TestCaseStatsENS4_11SectionNodeEEEEEJRKS6_EPSA_EEPT_SF_DpOT0_, symObjAddr: 0xEE594, symBinAddr: 0x1000EEEA8, symSize: 0x2C }
  - { offset: 0xD4967, size: 0x8, addend: 0x0, symName: __ZNSt3__112construct_atB8ne180100IN5Catch22CumulativeReporterBaseINS1_13JunitReporterEE4NodeINS1_14TestGroupStatsENS5_INS1_13TestCaseStatsENS4_11SectionNodeEEEEEJRKS6_EPSA_EEPT_SF_DpOT0_, symObjAddr: 0xEE5C0, symBinAddr: 0x1000EEED4, symSize: 0x34 }
  - { offset: 0xD49C0, size: 0x8, addend: 0x0, symName: __ZNSt3__112__destroy_atB8ne180100IN5Catch22CumulativeReporterBaseINS1_13JunitReporterEE4NodeINS1_14TestGroupStatsENS5_INS1_13TestCaseStatsENS4_11SectionNodeEEEEELi0EEEvPT_, symObjAddr: 0xEE89C, symBinAddr: 0x1000EF1B0, symSize: 0x2C }
  - { offset: 0xD4A30, size: 0x8, addend: 0x0, symName: __ZNSt3__116__swap_allocatorB8ne180100INS_9allocatorINS_10shared_ptrIN5Catch22CumulativeReporterBaseINS3_13JunitReporterEE4NodeINS3_13TestCaseStatsENS6_11SectionNodeEEEEEEEEEvRT_SE_NS_17integral_constantIbLb0EEE, symObjAddr: 0xEEAB4, symBinAddr: 0x1000EF3C8, symSize: 0x14 }
  - { offset: 0xD4A75, size: 0x8, addend: 0x0, symName: __ZNSt3__114__construct_atB8ne180100INS_10shared_ptrIN5Catch22CumulativeReporterBaseINS2_13JunitReporterEE4NodeINS2_14TestGroupStatsENS6_INS2_13TestCaseStatsENS5_11SectionNodeEEEEEEEJRKSC_EPSC_EEPT_SH_DpOT0_, symObjAddr: 0xEED7C, symBinAddr: 0x1000EF690, symSize: 0x2C }
  - { offset: 0xD4ACE, size: 0x8, addend: 0x0, symName: __ZNSt3__112construct_atB8ne180100INS_10shared_ptrIN5Catch22CumulativeReporterBaseINS2_13JunitReporterEE4NodeINS2_14TestGroupStatsENS6_INS2_13TestCaseStatsENS5_11SectionNodeEEEEEEEJRKSC_EPSC_EEPT_SH_DpOT0_, symObjAddr: 0xEEDA8, symBinAddr: 0x1000EF6BC, symSize: 0x34 }
  - { offset: 0xD4B27, size: 0x8, addend: 0x0, symName: __ZNSt3__119__allocate_at_leastB8ne180100INS_9allocatorINS_10shared_ptrIN5Catch22CumulativeReporterBaseINS3_13JunitReporterEE4NodeINS3_14TestGroupStatsENS7_INS3_13TestCaseStatsENS6_11SectionNodeEEEEEEEEEEENS_19__allocation_resultINS_16allocator_traitsIT_E7pointerEEERSH_m, symObjAddr: 0xEF310, symBinAddr: 0x1000EFC24, symSize: 0x40 }
  - { offset: 0xD4B6C, size: 0x8, addend: 0x0, symName: __ZNSt3__142__uninitialized_allocator_move_if_noexceptB8ne180100INS_9allocatorINS_10shared_ptrIN5Catch22CumulativeReporterBaseINS3_13JunitReporterEE4NodeINS3_14TestGroupStatsENS7_INS3_13TestCaseStatsENS6_11SectionNodeEEEEEEEEENS_16reverse_iteratorIPSD_EESH_SH_EET2_RT_T0_T1_SI_, symObjAddr: 0xEF4C4, symBinAddr: 0x1000EFDD8, symSize: 0x12C }
  - { offset: 0xD4C0D, size: 0x8, addend: 0x0, symName: __ZNSt3__14swapB8ne180100IPNS_10shared_ptrIN5Catch22CumulativeReporterBaseINS2_13JunitReporterEE4NodeINS2_14TestGroupStatsENS6_INS2_13TestCaseStatsENS5_11SectionNodeEEEEEEEEENS_9enable_ifIXaasr21is_move_constructibleIT_EE5valuesr18is_move_assignableISF_EE5valueEvE4typeERSF_SI_, symObjAddr: 0xEF63C, symBinAddr: 0x1000EFF50, symSize: 0x3C }
  - { offset: 0xD4C62, size: 0x8, addend: 0x0, symName: __ZNSt3__122__make_exception_guardB8ne180100INS_29_AllocatorDestroyRangeReverseINS_9allocatorINS_10shared_ptrIN5Catch22CumulativeReporterBaseINS4_13JunitReporterEE4NodeINS4_14TestGroupStatsENS8_INS4_13TestCaseStatsENS7_11SectionNodeEEEEEEEEENS_16reverse_iteratorIPSE_EEEEEENS_28__exception_guard_exceptionsIT_EESL_, symObjAddr: 0xEF68C, symBinAddr: 0x1000EFFA0, symSize: 0x4C }
  - { offset: 0xD4C9A, size: 0x8, addend: 0x0, symName: __ZNSt3__1neB8ne180100IPNS_10shared_ptrIN5Catch22CumulativeReporterBaseINS2_13JunitReporterEE4NodeINS2_14TestGroupStatsENS6_INS2_13TestCaseStatsENS5_11SectionNodeEEEEEEESD_EEbRKNS_16reverse_iteratorIT_EERKNSE_IT0_EE, symObjAddr: 0xEF71C, symBinAddr: 0x1000F0030, symSize: 0x48 }
  - { offset: 0xD4CE9, size: 0x8, addend: 0x0, symName: __ZNSt3__112__to_addressB8ne180100INS_16reverse_iteratorIPNS_10shared_ptrIN5Catch22CumulativeReporterBaseINS3_13JunitReporterEE4NodeINS3_14TestGroupStatsENS7_INS3_13TestCaseStatsENS6_11SectionNodeEEEEEEEEEvEEu7__decayIDTclsr19__to_address_helperIT_EE6__callclsr3stdE7declvalIRKSG_EEEEESI_, symObjAddr: 0xEF794, symBinAddr: 0x1000F00A8, symSize: 0x24 }
  - { offset: 0xD4D21, size: 0x8, addend: 0x0, symName: __ZNSt3__114__construct_atB8ne180100INS_10shared_ptrIN5Catch22CumulativeReporterBaseINS2_13JunitReporterEE4NodeINS2_14TestGroupStatsENS6_INS2_13TestCaseStatsENS5_11SectionNodeEEEEEEEJSC_EPSC_EEPT_SF_DpOT0_, symObjAddr: 0xEF8E4, symBinAddr: 0x1000F01F8, symSize: 0x2C }
  - { offset: 0xD4D7A, size: 0x8, addend: 0x0, symName: __ZNSt3__112construct_atB8ne180100INS_10shared_ptrIN5Catch22CumulativeReporterBaseINS2_13JunitReporterEE4NodeINS2_14TestGroupStatsENS6_INS2_13TestCaseStatsENS5_11SectionNodeEEEEEEEJSC_EPSC_EEPT_SF_DpOT0_, symObjAddr: 0xEF910, symBinAddr: 0x1000F0224, symSize: 0x34 }
  - { offset: 0xD4DFE, size: 0x8, addend: 0x0, symName: __ZNSt3__14prevB8ne180100IPNS_10shared_ptrIN5Catch22CumulativeReporterBaseINS2_13JunitReporterEE4NodeINS2_14TestGroupStatsENS6_INS2_13TestCaseStatsENS5_11SectionNodeEEEEEEELi0EEET_SE_NS_15iterator_traitsISE_E15difference_typeE, symObjAddr: 0xEFA1C, symBinAddr: 0x1000F0330, symSize: 0x3C }
  - { offset: 0xD4E4B, size: 0x8, addend: 0x0, symName: __ZNSt3__19__advanceB8ne180100IPNS_10shared_ptrIN5Catch22CumulativeReporterBaseINS2_13JunitReporterEE4NodeINS2_14TestGroupStatsENS6_INS2_13TestCaseStatsENS5_11SectionNodeEEEEEEEEEvRT_NS_15iterator_traitsISE_E15difference_typeENS_26random_access_iterator_tagE, symObjAddr: 0xEFA90, symBinAddr: 0x1000F03A4, symSize: 0x28 }
  - { offset: 0xD4E97, size: 0x8, addend: 0x0, symName: __ZNSt3__119__allocator_destroyB8ne180100INS_9allocatorINS_10shared_ptrIN5Catch22CumulativeReporterBaseINS3_13JunitReporterEE4NodeINS3_14TestGroupStatsENS7_INS3_13TestCaseStatsENS6_11SectionNodeEEEEEEEEENS_16reverse_iteratorINSF_IPSD_EEEESI_EEvRT_T0_T1_, symObjAddr: 0xEFBBC, symBinAddr: 0x1000F04D0, symSize: 0x70 }
  - { offset: 0xD4EFD, size: 0x8, addend: 0x0, symName: __ZNSt3__1neB8ne180100INS_16reverse_iteratorIPNS_10shared_ptrIN5Catch22CumulativeReporterBaseINS3_13JunitReporterEE4NodeINS3_14TestGroupStatsENS7_INS3_13TestCaseStatsENS6_11SectionNodeEEEEEEEEESF_EEbRKNS1_IT_EERKNS1_IT0_EE, symObjAddr: 0xEFC68, symBinAddr: 0x1000F057C, symSize: 0x60 }
  - { offset: 0xD4F4C, size: 0x8, addend: 0x0, symName: __ZNSt3__112__to_addressB8ne180100INS_16reverse_iteratorINS1_IPNS_10shared_ptrIN5Catch22CumulativeReporterBaseINS3_13JunitReporterEE4NodeINS3_14TestGroupStatsENS7_INS3_13TestCaseStatsENS6_11SectionNodeEEEEEEEEEEEvEEu7__decayIDTclsr19__to_address_helperIT_EE6__callclsr3stdE7declvalIRKSH_EEEEESJ_, symObjAddr: 0xEFCC8, symBinAddr: 0x1000F05DC, symSize: 0x24 }
  - { offset: 0xD4FAF, size: 0x8, addend: 0x0, symName: __ZNSt3__14prevB8ne180100INS_16reverse_iteratorIPNS_10shared_ptrIN5Catch22CumulativeReporterBaseINS3_13JunitReporterEE4NodeINS3_14TestGroupStatsENS7_INS3_13TestCaseStatsENS6_11SectionNodeEEEEEEEEELi0EEET_SG_NS_15iterator_traitsISG_E15difference_typeE, symObjAddr: 0xEFDC4, symBinAddr: 0x1000F06D8, symSize: 0x4C }
  - { offset: 0xD4FFC, size: 0x8, addend: 0x0, symName: __ZNSt3__19__advanceB8ne180100INS_16reverse_iteratorIPNS_10shared_ptrIN5Catch22CumulativeReporterBaseINS3_13JunitReporterEE4NodeINS3_14TestGroupStatsENS7_INS3_13TestCaseStatsENS6_11SectionNodeEEEEEEEEEEEvRT_NS_15iterator_traitsISG_E15difference_typeENS_26random_access_iterator_tagE, symObjAddr: 0xEFE48, symBinAddr: 0x1000F075C, symSize: 0x2C }
  - { offset: 0xD5048, size: 0x8, addend: 0x0, symName: __ZNSt3__111make_sharedB8ne180100IN5Catch17ReporterRegistrarINS1_13JunitReporterEE15ReporterFactoryEJEvEENS_10shared_ptrIT_EEDpOT0_, symObjAddr: 0xF04B0, symBinAddr: 0x1000F0DC4, symSize: 0x38 }
  - { offset: 0xD5280, size: 0x8, addend: 0x0, symName: __ZNSt3__115allocate_sharedB8ne180100IN5Catch17ReporterRegistrarINS1_13JunitReporterEE15ReporterFactoryENS_9allocatorIS5_EEJEvEENS_10shared_ptrIT_EERKT0_DpOT1_, symObjAddr: 0xF0548, symBinAddr: 0x1000F0E5C, symSize: 0x90 }
  - { offset: 0xD5608, size: 0x8, addend: 0x0, symName: __ZNSt3__114__construct_atB8ne180100IN5Catch17ReporterRegistrarINS1_13JunitReporterEE15ReporterFactoryEJEPS5_EEPT_S8_DpOT0_, symObjAddr: 0xF0BCC, symBinAddr: 0x1000F14E0, symSize: 0x24 }
  - { offset: 0xD564B, size: 0x8, addend: 0x0, symName: __ZNSt3__112construct_atB8ne180100IN5Catch17ReporterRegistrarINS1_13JunitReporterEE15ReporterFactoryEJEPS5_EEPT_S8_DpOT0_, symObjAddr: 0xF0BF0, symBinAddr: 0x1000F1504, symSize: 0x30 }
  - { offset: 0xD568E, size: 0x8, addend: 0x0, symName: __ZNSt3__112__destroy_atB8ne180100IN5Catch17ReporterRegistrarINS1_13JunitReporterEE15ReporterFactoryELi0EEEvPT_, symObjAddr: 0xF1348, symBinAddr: 0x1000F1C5C, symSize: 0x2C }
  - { offset: 0xD56FD, size: 0x8, addend: 0x0, symName: __ZNSt3__111make_sharedB8ne180100IN5Catch17ReporterRegistrarINS1_11XmlReporterEE15ReporterFactoryEJEvEENS_10shared_ptrIT_EEDpOT0_, symObjAddr: 0xF1924, symBinAddr: 0x1000F2238, symSize: 0x38 }
  - { offset: 0xD5935, size: 0x8, addend: 0x0, symName: __ZNSt3__115allocate_sharedB8ne180100IN5Catch17ReporterRegistrarINS1_11XmlReporterEE15ReporterFactoryENS_9allocatorIS5_EEJEvEENS_10shared_ptrIT_EERKT0_DpOT1_, symObjAddr: 0xF19BC, symBinAddr: 0x1000F22D0, symSize: 0x90 }
  - { offset: 0xD5CBD, size: 0x8, addend: 0x0, symName: __ZNSt3__114__construct_atB8ne180100IN5Catch17ReporterRegistrarINS1_11XmlReporterEE15ReporterFactoryEJEPS5_EEPT_S8_DpOT0_, symObjAddr: 0xF2040, symBinAddr: 0x1000F2954, symSize: 0x24 }
  - { offset: 0xD5D00, size: 0x8, addend: 0x0, symName: __ZNSt3__112construct_atB8ne180100IN5Catch17ReporterRegistrarINS1_11XmlReporterEE15ReporterFactoryEJEPS5_EEPT_S8_DpOT0_, symObjAddr: 0xF2064, symBinAddr: 0x1000F2978, symSize: 0x30 }
  - { offset: 0xD5D43, size: 0x8, addend: 0x0, symName: __ZNSt3__112__destroy_atB8ne180100IN5Catch17ReporterRegistrarINS1_11XmlReporterEE15ReporterFactoryELi0EEEvPT_, symObjAddr: 0xF27BC, symBinAddr: 0x1000F30D0, symSize: 0x2C }
  - { offset: 0xD5DB2, size: 0x8, addend: 0x0, symName: __ZNSt3__111make_sharedB8ne180100IN5Catch22CumulativeReporterBaseINS1_13JunitReporterEE11SectionNodeEJRNS1_12SectionStatsEEvEENS_10shared_ptrIT_EEDpOT0_, symObjAddr: 0xF2A64, symBinAddr: 0x1000F3378, symSize: 0x40 }
  - { offset: 0xD5DF8, size: 0x8, addend: 0x0, symName: __ZNSt3__17find_ifB8ne180100INS_11__wrap_iterIPNS_10shared_ptrIN5Catch22CumulativeReporterBaseINS3_13JunitReporterEE11SectionNodeEEEEENS6_13BySectionInfoEEET_SC_SC_T0_, symObjAddr: 0xF2B44, symBinAddr: 0x1000F3458, symSize: 0x7C }
  - { offset: 0xD5E57, size: 0x8, addend: 0x0, symName: __ZNSt3__1eqB8ne180100IPNS_10shared_ptrIN5Catch22CumulativeReporterBaseINS2_13JunitReporterEE11SectionNodeEEEEEbRKNS_11__wrap_iterIT_EESD_, symObjAddr: 0xF2C54, symBinAddr: 0x1000F3568, symSize: 0x48 }
  - { offset: 0xD5E9C, size: 0x8, addend: 0x0, symName: __ZNSt3__115allocate_sharedB8ne180100IN5Catch22CumulativeReporterBaseINS1_13JunitReporterEE11SectionNodeENS_9allocatorIS5_EEJRNS1_12SectionStatsEEvEENS_10shared_ptrIT_EERKT0_DpOT1_, symObjAddr: 0xF2CB4, symBinAddr: 0x1000F35C8, symSize: 0x98 }
  - { offset: 0xD6246, size: 0x8, addend: 0x0, symName: __ZNSt3__114__construct_atB8ne180100IN5Catch22CumulativeReporterBaseINS1_13JunitReporterEE11SectionNodeEJRNS1_12SectionStatsEEPS5_EEPT_SA_DpOT0_, symObjAddr: 0xF335C, symBinAddr: 0x1000F3C70, symSize: 0x2C }
  - { offset: 0xD629F, size: 0x8, addend: 0x0, symName: __ZNSt3__112construct_atB8ne180100IN5Catch22CumulativeReporterBaseINS1_13JunitReporterEE11SectionNodeEJRNS1_12SectionStatsEEPS5_EEPT_SA_DpOT0_, symObjAddr: 0xF3388, symBinAddr: 0x1000F3C9C, symSize: 0x34 }
  - { offset: 0xD62F8, size: 0x8, addend: 0x0, symName: __ZNSt3__112__destroy_atB8ne180100IN5Catch22CumulativeReporterBaseINS1_13JunitReporterEE11SectionNodeELi0EEEvPT_, symObjAddr: 0xF36AC, symBinAddr: 0x1000F3FC0, symSize: 0x2C }
  - { offset: 0xD6368, size: 0x8, addend: 0x0, symName: __ZNSt3__1neB8ne180100IPNS_10shared_ptrIN5Catch22CumulativeReporterBaseINS2_13JunitReporterEE11SectionNodeEEEEEbRKNS_11__wrap_iterIT_EESD_, symObjAddr: 0xF387C, symBinAddr: 0x1000F4190, symSize: 0x34 }
  - { offset: 0xD63AD, size: 0x8, addend: 0x0, symName: __ZNSt3__111make_sharedB8ne180100IN5Catch22CumulativeReporterBaseINS1_13JunitReporterEE4NodeINS1_12TestRunStatsENS5_INS1_14TestGroupStatsENS5_INS1_13TestCaseStatsENS4_11SectionNodeEEEEEEEJRKS6_EvEENS_10shared_ptrIT_EEDpOT0_, symObjAddr: 0xF3B3C, symBinAddr: 0x1000F4450, symSize: 0x40 }
  - { offset: 0xD63F2, size: 0x8, addend: 0x0, symName: __ZNSt3__115allocate_sharedB8ne180100IN5Catch22CumulativeReporterBaseINS1_13JunitReporterEE4NodeINS1_12TestRunStatsENS5_INS1_14TestGroupStatsENS5_INS1_13TestCaseStatsENS4_11SectionNodeEEEEEEENS_9allocatorISC_EEJRKS6_EvEENS_10shared_ptrIT_EERKT0_DpOT1_, symObjAddr: 0xF3CA8, symBinAddr: 0x1000F45BC, symSize: 0x98 }
