---
triple:          'arm64-apple-darwin'
binary-path:     cse_string_test
relocations:
  - { offset: 0x5C, size: 0x8, addend: 0x0, symName: __ZNSt3__18in_placeE, symObjAddr: 0x45DF, symBinAddr: 0x100007D37, symSize: 0x0 }
  - { offset: 0x3A03, size: 0x8, addend: 0x0, symName: __ZNSt3__124__put_character_sequenceB8ne180100IcNS_11char_traitsIcEEEERNS_13basic_ostreamIT_T0_EES7_PKS4_m, symObjAddr: 0x3670, symBinAddr: 0x100006B04, symSize: 0x1EC }
  - { offset: 0x48AB, size: 0x8, addend: 0x0, symName: __ZNSt3__1lsB8ne180100INS_11char_traitsIcEEEERNS_13basic_ostreamIcT_EES6_PKc, symObjAddr: 0xAC, symBinAddr: 0x100003540, symSize: 0x48 }
  - { offset: 0x4DDA, size: 0x8, addend: 0x0, symName: __ZNSt3__1lsB8ne180100IcNS_11char_traitsIcEENS_9allocatorIcEEEERNS_13basic_ostreamIT_T0_EES9_RKNS_12basic_stringIS6_S7_T1_EE, symObjAddr: 0x2E8, symBinAddr: 0x10000377C, symSize: 0x4C }
  - { offset: 0x4E32, size: 0x8, addend: 0x0, symName: __ZNSt3__127__throw_bad_optional_accessB8ne180100Ev, symObjAddr: 0x464, symBinAddr: 0x1000038F8, symSize: 0x38 }
  - { offset: 0x4E4C, size: 0x8, addend: 0x0, symName: __ZNSt3__118__constexpr_strlenB8ne180100EPKc, symObjAddr: 0x6C0, symBinAddr: 0x100003B54, symSize: 0x24 }
  - { offset: 0x4E78, size: 0x8, addend: 0x0, symName: __ZNSt3__1eqB8ne180100IcNS_11char_traitsIcEENS_9allocatorIcEEEEbRKNS_12basic_stringIT_T0_T1_EEPKS6_, symObjAddr: 0x163C, symBinAddr: 0x100004AD0, symSize: 0x5C }
  - { offset: 0x4ED0, size: 0x8, addend: 0x0, symName: __ZNSt3__1eqB8ne180100IcNS_11char_traitsIcEEEEbNS_17basic_string_viewIT_T0_EENS_13type_identityIS6_E4typeE, symObjAddr: 0x19D8, symBinAddr: 0x100004E6C, symSize: 0xB0 }
  - { offset: 0x4F1F, size: 0x8, addend: 0x0, symName: __ZNSt3__13minB8ne180100ImEERKT_S3_S3_, symObjAddr: 0x1C60, symBinAddr: 0x1000050F4, symSize: 0x2C }
  - { offset: 0x4F62, size: 0x8, addend: 0x0, symName: __ZNSt3__13minB8ne180100ImNS_6__lessIvvEEEERKT_S5_S5_T0_, symObjAddr: 0x1CD8, symBinAddr: 0x10000516C, symSize: 0x54 }
  - { offset: 0x5001, size: 0x8, addend: 0x0, symName: __ZNSt3__112__to_addressB8ne180100IKcEEPT_S3_, symObjAddr: 0x1DC4, symBinAddr: 0x100005258, symSize: 0x14 }
  - { offset: 0x5069, size: 0x8, addend: 0x0, symName: __ZNSt3__128__char_traits_length_checkedB8ne180100INS_11char_traitsIcEEEEmPKNT_9char_typeE, symObjAddr: 0x1F00, symBinAddr: 0x100005394, symSize: 0x24 }
  - { offset: 0x50A0, size: 0x8, addend: 0x0, symName: __ZNSt3__14endlB8ne180100IcNS_11char_traitsIcEEEERNS_13basic_ostreamIT_T0_EES7_, symObjAddr: 0x1F50, symBinAddr: 0x1000053E4, symSize: 0x58 }
  - { offset: 0x50E0, size: 0x8, addend: 0x0, symName: __ZNSt3__19use_facetB8ne180100INS_5ctypeIcEEEERKT_RKNS_6localeE, symObjAddr: 0x202C, symBinAddr: 0x1000054C0, symSize: 0x2C }
  - { offset: 0x5A9A, size: 0x8, addend: 0x0, symName: __ZNSt3__110to_addressB8ne180100IcEEDaPT_, symObjAddr: 0x2AF8, symBinAddr: 0x100005F8C, symSize: 0x24 }
  - { offset: 0x5ACF, size: 0x8, addend: 0x0, symName: __ZNSt3__112__to_addressB8ne180100IcEEPT_S2_, symObjAddr: 0x2B1C, symBinAddr: 0x100005FB0, symSize: 0x14 }
  - { offset: 0x5B04, size: 0x8, addend: 0x0, symName: __ZNSt3__116__pad_and_outputB8ne180100IcNS_11char_traitsIcEEEENS_19ostreambuf_iteratorIT_T0_EES6_PKS4_S8_S8_RNS_8ios_baseES4_, symObjAddr: 0x3878, symBinAddr: 0x100006D0C, symSize: 0x240 }
  - { offset: 0x6DB6, size: 0x8, addend: 0x0, symName: __ZN3cse16_assert_internal4FailEv, symObjAddr: 0x0, symBinAddr: 0x100003494, symSize: 0xC }
  - { offset: 0x6DCF, size: 0x8, addend: 0x0, symName: __ZN3cse16_assert_internal18PrintAssertMessageENSt3__18optionalIPKcEE, symObjAddr: 0xC, symBinAddr: 0x1000034A0, symSize: 0xA0 }
  - { offset: 0x6E0B, size: 0x8, addend: 0x0, symName: __ZN3cse16_assert_internal13PrintLocationEPKciS2_, symObjAddr: 0x158, symBinAddr: 0x1000035EC, symSize: 0x74 }
  - { offset: 0x6E4F, size: 0x8, addend: 0x0, symName: __ZN3cse16_assert_internal6AssertERKNS0_10AssertArgsEPKcS5_iS5_, symObjAddr: 0x1CC, symBinAddr: 0x100003660, symSize: 0xE8 }
  - { offset: 0x6EBD, size: 0x8, addend: 0x0, symName: __ZN3cse16_assert_internal19AssertNeverNoReturnEPKciS2_NSt3__18optionalIS2_EE, symObjAddr: 0x334, symBinAddr: 0x1000037C8, symSize: 0x48 }
  - { offset: 0x6F0F, size: 0x8, addend: 0x0, symName: __ZN3cse16_assert_internal17AssertNeverReturnEPKciS2_NSt3__18optionalIS2_EE, symObjAddr: 0x37C, symBinAddr: 0x100003810, symSize: 0x40 }
  - { offset: 0x714F, size: 0x8, addend: 0x0, symName: __ZNKSt3__18optionalIPKcEcvbB8ne180100Ev, symObjAddr: 0xF4, symBinAddr: 0x100003588, symSize: 0x28 }
  - { offset: 0x7173, size: 0x8, addend: 0x0, symName: __ZNRSt3__18optionalIPKcE5valueB8ne180100Ev, symObjAddr: 0x11C, symBinAddr: 0x1000035B0, symSize: 0x3C }
  - { offset: 0x719C, size: 0x8, addend: 0x0, symName: __ZNSt3__112basic_stringIcNS_11char_traitsIcEENS_9allocatorIcEEEC1B8ne180100ILi0EEEPKc, symObjAddr: 0x2B4, symBinAddr: 0x100003748, symSize: 0x34 }
  - { offset: 0x71D9, size: 0x8, addend: 0x0, symName: _main, symObjAddr: 0x3BC, symBinAddr: 0x100003850, symSize: 0x2C }
  - { offset: 0x71F3, size: 0x8, addend: 0x0, symName: __Z15cse_string_testv, symObjAddr: 0x3E8, symBinAddr: 0x10000387C, symSize: 0x60 }
  - { offset: 0x7211, size: 0x8, addend: 0x0, symName: __ZNKSt3__123__optional_storage_baseIPKcLb0EE9has_valueB8ne180100Ev, symObjAddr: 0x448, symBinAddr: 0x1000038DC, symSize: 0x1C }
  - { offset: 0x7236, size: 0x8, addend: 0x0, symName: __ZNRSt3__123__optional_storage_baseIPKcLb0EE5__getB8ne180100Ev, symObjAddr: 0x49C, symBinAddr: 0x100003930, symSize: 0x14 }
  - { offset: 0x728C, size: 0x8, addend: 0x0, symName: __ZNSt19bad_optional_accessC1B8ne180100Ev, symObjAddr: 0x4B0, symBinAddr: 0x100003944, symSize: 0x2C }
  - { offset: 0x72B4, size: 0x8, addend: 0x0, symName: __ZNSt19bad_optional_accessC2B8ne180100Ev, symObjAddr: 0x4DC, symBinAddr: 0x100003970, symSize: 0x3C }
  - { offset: 0x72DD, size: 0x8, addend: 0x0, symName: __ZNSt9exceptionC2B8ne180100Ev, symObjAddr: 0x518, symBinAddr: 0x1000039AC, symSize: 0x24 }
  - { offset: 0x7305, size: 0x8, addend: 0x0, symName: __ZNSt3__112basic_stringIcNS_11char_traitsIcEENS_9allocatorIcEEEC2B8ne180100ILi0EEEPKc, symObjAddr: 0x53C, symBinAddr: 0x1000039D0, symSize: 0x58 }
  - { offset: 0x7347, size: 0x8, addend: 0x0, symName: __ZNSt3__117__compressed_pairINS_12basic_stringIcNS_11char_traitsIcEENS_9allocatorIcEEE5__repES5_EC1B8ne180100INS_18__default_init_tagESA_EEOT_OT0_, symObjAddr: 0x594, symBinAddr: 0x100003A28, symSize: 0x3C }
  - { offset: 0x739E, size: 0x8, addend: 0x0, symName: __ZNSt3__111char_traitsIcE6lengthB8ne180100EPKc, symObjAddr: 0x5D0, symBinAddr: 0x100003A64, symSize: 0x34 }
  - { offset: 0x73C0, size: 0x8, addend: 0x0, symName: __ZNSt3__117__compressed_pairINS_12basic_stringIcNS_11char_traitsIcEENS_9allocatorIcEEE5__repES5_EC2B8ne180100INS_18__default_init_tagESA_EEOT_OT0_, symObjAddr: 0x604, symBinAddr: 0x100003A98, symSize: 0x3C }
  - { offset: 0x7417, size: 0x8, addend: 0x0, symName: __ZNSt3__122__compressed_pair_elemINS_12basic_stringIcNS_11char_traitsIcEENS_9allocatorIcEEE5__repELi0ELb0EEC2B8ne180100ENS_18__default_init_tagE, symObjAddr: 0x640, symBinAddr: 0x100003AD4, symSize: 0x14 }
  - { offset: 0x744A, size: 0x8, addend: 0x0, symName: __ZNSt3__122__compressed_pair_elemINS_9allocatorIcEELi1ELb1EEC2B8ne180100ENS_18__default_init_tagE, symObjAddr: 0x654, symBinAddr: 0x100003AE8, symSize: 0x2C }
  - { offset: 0x747D, size: 0x8, addend: 0x0, symName: __ZNSt3__19allocatorIcEC2B8ne180100Ev, symObjAddr: 0x680, symBinAddr: 0x100003B14, symSize: 0x2C }
  - { offset: 0x74A6, size: 0x8, addend: 0x0, symName: __ZNSt3__116__non_trivial_ifILb1ENS_9allocatorIcEEEC2B8ne180100Ev, symObjAddr: 0x6AC, symBinAddr: 0x100003B40, symSize: 0x14 }
  - { offset: 0x74CE, size: 0x8, addend: 0x0, symName: __Z21test_basic_operationsv, symObjAddr: 0x6F4, symBinAddr: 0x100003B88, symSize: 0x29C }
  - { offset: 0x752F, size: 0x8, addend: 0x0, symName: __Z16test_safe_accessv, symObjAddr: 0x990, symBinAddr: 0x100003E24, symSize: 0x1CC }
  - { offset: 0x7557, size: 0x8, addend: 0x0, symName: __Z25test_substring_extractionv, symObjAddr: 0xB5C, symBinAddr: 0x100003FF0, symSize: 0x1EC }
  - { offset: 0x75A9, size: 0x8, addend: 0x0, symName: __Z14test_insertionv, symObjAddr: 0xD48, symBinAddr: 0x1000041DC, symSize: 0x21C }
  - { offset: 0x75D1, size: 0x8, addend: 0x0, symName: __Z12test_erasurev, symObjAddr: 0xF64, symBinAddr: 0x1000043F8, symSize: 0x16C }
  - { offset: 0x75F9, size: 0x8, addend: 0x0, symName: __Z16test_replacementv, symObjAddr: 0x10D0, symBinAddr: 0x100004564, symSize: 0x228 }
  - { offset: 0x7621, size: 0x8, addend: 0x0, symName: __Z24test_advanced_operationsv, symObjAddr: 0x12F8, symBinAddr: 0x10000478C, symSize: 0x260 }
  - { offset: 0x7681, size: 0x8, addend: 0x0, symName: __ZN3cse6StringC1Ev, symObjAddr: 0x1558, symBinAddr: 0x1000049EC, symSize: 0x2C }
  - { offset: 0x76AB, size: 0x8, addend: 0x0, symName: __ZNKSt3__112basic_stringIcNS_11char_traitsIcEENS_9allocatorIcEEE5emptyB8ne180100Ev, symObjAddr: 0x1584, symBinAddr: 0x100004A18, symSize: 0x30 }
  - { offset: 0x76CF, size: 0x8, addend: 0x0, symName: __ZN3cse6StringC1ERKNSt3__112basic_stringIcNS1_11char_traitsIcEENS1_9allocatorIcEEEE, symObjAddr: 0x15B4, symBinAddr: 0x100004A48, symSize: 0x34 }
  - { offset: 0x7705, size: 0x8, addend: 0x0, symName: __ZNKSt3__112basic_stringIcNS_11char_traitsIcEENS_9allocatorIcEEE4sizeB8ne180100Ev, symObjAddr: 0x15E8, symBinAddr: 0x100004A7C, symSize: 0x54 }
  - { offset: 0x7729, size: 0x8, addend: 0x0, symName: __ZN3cse6StringaSERKNSt3__112basic_stringIcNS1_11char_traitsIcEENS1_9allocatorIcEEEE, symObjAddr: 0x1698, symBinAddr: 0x100004B2C, symSize: 0x34 }
  - { offset: 0x775C, size: 0x8, addend: 0x0, symName: __ZN3cse6StringaSERKS0_, symObjAddr: 0x16CC, symBinAddr: 0x100004B60, symSize: 0x34 }
  - { offset: 0x778B, size: 0x8, addend: 0x0, symName: __Z17print_test_resultPKcb, symObjAddr: 0x1700, symBinAddr: 0x100004B94, symSize: 0x8C }
  - { offset: 0x77C2, size: 0x8, addend: 0x0, symName: __ZN3cse6StringD1Ev, symObjAddr: 0x178C, symBinAddr: 0x100004C20, symSize: 0x2C }
  - { offset: 0x77ED, size: 0x8, addend: 0x0, symName: __ZN3cse6StringC2Ev, symObjAddr: 0x17B8, symBinAddr: 0x100004C4C, symSize: 0x2C }
  - { offset: 0x7817, size: 0x8, addend: 0x0, symName: __ZNSt3__112basic_stringIcNS_11char_traitsIcEENS_9allocatorIcEEEC2B8ne180100Ev, symObjAddr: 0x17E4, symBinAddr: 0x100004C78, symSize: 0x48 }
  - { offset: 0x7844, size: 0x8, addend: 0x0, symName: __ZNSt3__117__compressed_pairINS_12basic_stringIcNS_11char_traitsIcEENS_9allocatorIcEEE5__repES5_EC1B8ne180100INS_16__value_init_tagENS_18__default_init_tagEEEOT_OT0_, symObjAddr: 0x182C, symBinAddr: 0x100004CC0, symSize: 0x3C }
  - { offset: 0x789B, size: 0x8, addend: 0x0, symName: __ZNKSt3__112basic_stringIcNS_11char_traitsIcEENS_9allocatorIcEEE14__annotate_newB8ne180100Em, symObjAddr: 0x1868, symBinAddr: 0x100004CFC, symSize: 0x14 }
  - { offset: 0x78CE, size: 0x8, addend: 0x0, symName: __ZNSt3__117__compressed_pairINS_12basic_stringIcNS_11char_traitsIcEENS_9allocatorIcEEE5__repES5_EC2B8ne180100INS_16__value_init_tagENS_18__default_init_tagEEEOT_OT0_, symObjAddr: 0x187C, symBinAddr: 0x100004D10, symSize: 0x3C }
  - { offset: 0x7925, size: 0x8, addend: 0x0, symName: __ZNSt3__122__compressed_pair_elemINS_12basic_stringIcNS_11char_traitsIcEENS_9allocatorIcEEE5__repELi0ELb0EEC2B8ne180100ENS_16__value_init_tagE, symObjAddr: 0x18B8, symBinAddr: 0x100004D4C, symSize: 0x20 }
  - { offset: 0x7958, size: 0x8, addend: 0x0, symName: __ZN3cse6StringC2ERKNSt3__112basic_stringIcNS1_11char_traitsIcEENS1_9allocatorIcEEEE, symObjAddr: 0x18D8, symBinAddr: 0x100004D6C, symSize: 0x34 }
  - { offset: 0x798E, size: 0x8, addend: 0x0, symName: __ZNKSt3__112basic_stringIcNS_11char_traitsIcEENS_9allocatorIcEEE9__is_longB8ne180100Ev, symObjAddr: 0x190C, symBinAddr: 0x100004DA0, symSize: 0x38 }
  - { offset: 0x79B2, size: 0x8, addend: 0x0, symName: __ZNKSt3__112basic_stringIcNS_11char_traitsIcEENS_9allocatorIcEEE15__get_long_sizeB8ne180100Ev, symObjAddr: 0x1944, symBinAddr: 0x100004DD8, symSize: 0x28 }
  - { offset: 0x79D6, size: 0x8, addend: 0x0, symName: __ZNKSt3__112basic_stringIcNS_11char_traitsIcEENS_9allocatorIcEEE16__get_short_sizeB8ne180100Ev, symObjAddr: 0x196C, symBinAddr: 0x100004E00, symSize: 0x34 }
  - { offset: 0x79FA, size: 0x8, addend: 0x0, symName: __ZNKSt3__117__compressed_pairINS_12basic_stringIcNS_11char_traitsIcEENS_9allocatorIcEEE5__repES5_E5firstB8ne180100Ev, symObjAddr: 0x19A0, symBinAddr: 0x100004E34, symSize: 0x24 }
  - { offset: 0x7A1F, size: 0x8, addend: 0x0, symName: __ZNKSt3__122__compressed_pair_elemINS_12basic_stringIcNS_11char_traitsIcEENS_9allocatorIcEEE5__repELi0ELb0EE5__getB8ne180100Ev, symObjAddr: 0x19C4, symBinAddr: 0x100004E58, symSize: 0x14 }
  - { offset: 0x7A43, size: 0x8, addend: 0x0, symName: __ZNKSt3__112basic_stringIcNS_11char_traitsIcEENS_9allocatorIcEEEcvNS_17basic_string_viewIcS2_EEB8ne180100Ev, symObjAddr: 0x1A88, symBinAddr: 0x100004F1C, symSize: 0x50 }
  - { offset: 0x7A67, size: 0x8, addend: 0x0, symName: __ZNSt3__117basic_string_viewIcNS_11char_traitsIcEEEC1B8ne180100EPKc, symObjAddr: 0x1AD8, symBinAddr: 0x100004F6C, symSize: 0x34 }
  - { offset: 0x7A9F, size: 0x8, addend: 0x0, symName: __ZNKSt3__117basic_string_viewIcNS_11char_traitsIcEEE4sizeB8ne180100Ev, symObjAddr: 0x1B0C, symBinAddr: 0x100004FA0, symSize: 0x18 }
  - { offset: 0x7AC3, size: 0x8, addend: 0x0, symName: __ZNKSt3__117basic_string_viewIcNS_11char_traitsIcEEE7compareES3_, symObjAddr: 0x1B24, symBinAddr: 0x100004FB8, symSize: 0x13C }
  - { offset: 0x7B15, size: 0x8, addend: 0x0, symName: __ZNSt3__111char_traitsIcE7compareB8ne180100EPKcS3_m, symObjAddr: 0x1C8C, symBinAddr: 0x100005120, symSize: 0x34 }
  - { offset: 0x7B54, size: 0x8, addend: 0x0, symName: __ZNKSt3__117basic_string_viewIcNS_11char_traitsIcEEE4dataB8ne180100Ev, symObjAddr: 0x1CC0, symBinAddr: 0x100005154, symSize: 0x18 }
  - { offset: 0x7B8D, size: 0x8, addend: 0x0, symName: __ZNKSt3__16__lessIvvEclB8ne180100ImmEEbRKT_RKT0_, symObjAddr: 0x1D2C, symBinAddr: 0x1000051C0, symSize: 0x34 }
  - { offset: 0x7BDF, size: 0x8, addend: 0x0, symName: __ZNKSt3__112basic_stringIcNS_11char_traitsIcEENS_9allocatorIcEEE4dataB8ne180100Ev, symObjAddr: 0x1D60, symBinAddr: 0x1000051F4, symSize: 0x28 }
  - { offset: 0x7C03, size: 0x8, addend: 0x0, symName: __ZNSt3__117basic_string_viewIcNS_11char_traitsIcEEEC1B8ne180100EPKcm, symObjAddr: 0x1D88, symBinAddr: 0x10000521C, symSize: 0x3C }
  - { offset: 0x7C49, size: 0x8, addend: 0x0, symName: __ZNKSt3__112basic_stringIcNS_11char_traitsIcEENS_9allocatorIcEEE13__get_pointerB8ne180100Ev, symObjAddr: 0x1DD8, symBinAddr: 0x10000526C, symSize: 0x54 }
  - { offset: 0x7C6D, size: 0x8, addend: 0x0, symName: __ZNKSt3__112basic_stringIcNS_11char_traitsIcEENS_9allocatorIcEEE18__get_long_pointerB8ne180100Ev, symObjAddr: 0x1E2C, symBinAddr: 0x1000052C0, symSize: 0x28 }
  - { offset: 0x7C91, size: 0x8, addend: 0x0, symName: __ZNKSt3__112basic_stringIcNS_11char_traitsIcEENS_9allocatorIcEEE19__get_short_pointerB8ne180100Ev, symObjAddr: 0x1E54, symBinAddr: 0x1000052E8, symSize: 0x28 }
  - { offset: 0x7CB6, size: 0x8, addend: 0x0, symName: __ZNSt3__114pointer_traitsIPKcE10pointer_toB8ne180100ERS1_, symObjAddr: 0x1E7C, symBinAddr: 0x100005310, symSize: 0x14 }
  - { offset: 0x7CD9, size: 0x8, addend: 0x0, symName: __ZNSt3__117basic_string_viewIcNS_11char_traitsIcEEEC2B8ne180100EPKcm, symObjAddr: 0x1E90, symBinAddr: 0x100005324, symSize: 0x2C }
  - { offset: 0x7D1F, size: 0x8, addend: 0x0, symName: __ZNSt3__117basic_string_viewIcNS_11char_traitsIcEEEC2B8ne180100EPKc, symObjAddr: 0x1EBC, symBinAddr: 0x100005350, symSize: 0x44 }
  - { offset: 0x7D56, size: 0x8, addend: 0x0, symName: __ZNSt3__113basic_ostreamIcNS_11char_traitsIcEEElsB8ne180100EPFRS3_S4_E, symObjAddr: 0x1F24, symBinAddr: 0x1000053B8, symSize: 0x2C }
  - { offset: 0x7D89, size: 0x8, addend: 0x0, symName: __ZNKSt3__19basic_iosIcNS_11char_traitsIcEEE5widenB8ne180100Ec, symObjAddr: 0x1FA8, symBinAddr: 0x10000543C, symSize: 0x84 }
  - { offset: 0x7E00, size: 0x8, addend: 0x0, symName: __ZNKSt3__15ctypeIcE5widenB8ne180100Ec, symObjAddr: 0x2058, symBinAddr: 0x1000054EC, symSize: 0x38 }
  - { offset: 0x7E34, size: 0x8, addend: 0x0, symName: __ZN3cse6StringD2Ev, symObjAddr: 0x2090, symBinAddr: 0x100005524, symSize: 0x2C }
  - { offset: 0x7E5F, size: 0x8, addend: 0x0, symName: __ZN3cse6StringCI1NSt3__112basic_stringIcNS1_11char_traitsIcEENS1_9allocatorIcEEEEILi0EEEPKc, symObjAddr: 0x20BC, symBinAddr: 0x100005550, symSize: 0x34 }
  - { offset: 0x7E92, size: 0x8, addend: 0x0, symName: __ZN3cse6StringixEm, symObjAddr: 0x20F0, symBinAddr: 0x100005584, symSize: 0xF0 }
  - { offset: 0x7EC4, size: 0x8, addend: 0x0, symName: __ZN3cse6String2atEm, symObjAddr: 0x21E0, symBinAddr: 0x100005674, symSize: 0xF0 }
  - { offset: 0x7EF7, size: 0x8, addend: 0x0, symName: __ZN3cse6StringCI2NSt3__112basic_stringIcNS1_11char_traitsIcEENS1_9allocatorIcEEEEILi0EEEPKc, symObjAddr: 0x22D0, symBinAddr: 0x100005764, symSize: 0x34 }
  - { offset: 0x7F2B, size: 0x8, addend: 0x0, symName: __ZN3cse6String14buildErrorMsg_EPKcmm, symObjAddr: 0x2304, symBinAddr: 0x100005798, symSize: 0xFC }
  - { offset: 0x7F78, size: 0x8, addend: 0x0, symName: __ZNKSt3__112basic_stringIcNS_11char_traitsIcEENS_9allocatorIcEEE5c_strB8ne180100Ev, symObjAddr: 0x2400, symBinAddr: 0x100005894, symSize: 0x24 }
  - { offset: 0x7FA1, size: 0x8, addend: 0x0, symName: __ZN3cse16_assert_internal10AssertArgsC1EbPKc, symObjAddr: 0x2424, symBinAddr: 0x1000058B8, symSize: 0x48 }
  - { offset: 0x7FE5, size: 0x8, addend: 0x0, symName: __ZNSt3__112basic_stringIcNS_11char_traitsIcEENS_9allocatorIcEEEixB8ne180100Em, symObjAddr: 0x246C, symBinAddr: 0x100005900, symSize: 0x48 }
  - { offset: 0x807C, size: 0x8, addend: 0x0, symName: __ZNSt3__119basic_ostringstreamIcNS_11char_traitsIcEENS_9allocatorIcEEEC1B8ne180100Ev, symObjAddr: 0x24B4, symBinAddr: 0x100005948, symSize: 0xE4 }
  - { offset: 0x80A4, size: 0x8, addend: 0x0, symName: __ZNKRSt3__119basic_ostringstreamIcNS_11char_traitsIcEENS_9allocatorIcEEE3strB8ne180100Ev, symObjAddr: 0x2598, symBinAddr: 0x100005A2C, symSize: 0x30 }
  - { offset: 0x80CE, size: 0x8, addend: 0x0, symName: __ZNSt3__119basic_ostringstreamIcNS_11char_traitsIcEENS_9allocatorIcEEED1Ev, symObjAddr: 0x25C8, symBinAddr: 0x100005A5C, symSize: 0x40 }
  - { offset: 0x80F9, size: 0x8, addend: 0x0, symName: __ZNSt3__19basic_iosIcNS_11char_traitsIcEEEC2B8ne180100Ev, symObjAddr: 0x2608, symBinAddr: 0x100005A9C, symSize: 0x3C }
  - { offset: 0x8121, size: 0x8, addend: 0x0, symName: __ZNSt3__113basic_ostreamIcNS_11char_traitsIcEEEC2B8ne180100EPNS_15basic_streambufIcS2_EE, symObjAddr: 0x2644, symBinAddr: 0x100005AD8, symSize: 0x60 }
  - { offset: 0x8163, size: 0x8, addend: 0x0, symName: __ZNSt3__115basic_stringbufIcNS_11char_traitsIcEENS_9allocatorIcEEEC1B8ne180100Ej, symObjAddr: 0x26A4, symBinAddr: 0x100005B38, symSize: 0x34 }
  - { offset: 0x819B, size: 0x8, addend: 0x0, symName: __ZNSt3__18ios_baseC2B8ne180100Ev, symObjAddr: 0x26D8, symBinAddr: 0x100005B6C, symSize: 0x24 }
  - { offset: 0x81C4, size: 0x8, addend: 0x0, symName: __ZNSt3__19basic_iosIcNS_11char_traitsIcEEE4initB8ne180100EPNS_15basic_streambufIcS2_EE, symObjAddr: 0x26FC, symBinAddr: 0x100005B90, symSize: 0x44 }
  - { offset: 0x81FA, size: 0x8, addend: 0x0, symName: __ZNSt3__111char_traitsIcE3eofB8ne180100Ev, symObjAddr: 0x2740, symBinAddr: 0x100005BD4, symSize: 0x8 }
  - { offset: 0x820D, size: 0x8, addend: 0x0, symName: __ZNSt3__115basic_stringbufIcNS_11char_traitsIcEENS_9allocatorIcEEEC2B8ne180100Ej, symObjAddr: 0x2748, symBinAddr: 0x100005BDC, symSize: 0x58 }
  - { offset: 0x8244, size: 0x8, addend: 0x0, symName: __ZNSt3__112basic_stringIcNS_11char_traitsIcEENS_9allocatorIcEEEC1B8ne180100Ev, symObjAddr: 0x27A0, symBinAddr: 0x100005C34, symSize: 0x2C }
  - { offset: 0x826C, size: 0x8, addend: 0x0, symName: __ZNKRSt3__115basic_stringbufIcNS_11char_traitsIcEENS_9allocatorIcEEE3strB8ne180100Ev, symObjAddr: 0x27CC, symBinAddr: 0x100005C60, symSize: 0x44 }
  - { offset: 0x8290, size: 0x8, addend: 0x0, symName: __ZNKSt3__115basic_stringbufIcNS_11char_traitsIcEENS_9allocatorIcEEE3strB8ne180100IS4_EENS_12basic_stringIcS2_T_EERKS8_, symObjAddr: 0x2810, symBinAddr: 0x100005CA4, symSize: 0x50 }
  - { offset: 0x82CC, size: 0x8, addend: 0x0, symName: __ZNKSt3__112basic_stringIcNS_11char_traitsIcEENS_9allocatorIcEEE13get_allocatorB8ne180100Ev, symObjAddr: 0x2860, symBinAddr: 0x100005CF4, symSize: 0x24 }
  - { offset: 0x82F1, size: 0x8, addend: 0x0, symName: __ZNKSt3__115basic_stringbufIcNS_11char_traitsIcEENS_9allocatorIcEEE4viewB8ne180100Ev, symObjAddr: 0x2884, symBinAddr: 0x100005D18, symSize: 0x120 }
  - { offset: 0x8317, size: 0x8, addend: 0x0, symName: __ZNSt3__112basic_stringIcNS_11char_traitsIcEENS_9allocatorIcEEEC1INS_17basic_string_viewIcS2_EELi0EEERKT_RKS4_, symObjAddr: 0x29A4, symBinAddr: 0x100005E38, symSize: 0x3C }
  - { offset: 0x836D, size: 0x8, addend: 0x0, symName: __ZNKSt3__115basic_streambufIcNS_11char_traitsIcEEE4pptrB8ne180100Ev, symObjAddr: 0x29E0, symBinAddr: 0x100005E74, symSize: 0x18 }
  - { offset: 0x8392, size: 0x8, addend: 0x0, symName: __ZNKSt3__115basic_streambufIcNS_11char_traitsIcEEE5pbaseB8ne180100Ev, symObjAddr: 0x29F8, symBinAddr: 0x100005E8C, symSize: 0x18 }
  - { offset: 0x83BB, size: 0x8, addend: 0x0, symName: __ZNSt3__117basic_string_viewIcNS_11char_traitsIcEEEC1B8ne180100IPcS5_EET_T0_, symObjAddr: 0x2A10, symBinAddr: 0x100005EA4, symSize: 0x3C }
  - { offset: 0x8414, size: 0x8, addend: 0x0, symName: __ZNKSt3__115basic_streambufIcNS_11char_traitsIcEEE5ebackB8ne180100Ev, symObjAddr: 0x2A4C, symBinAddr: 0x100005EE0, symSize: 0x18 }
  - { offset: 0x8439, size: 0x8, addend: 0x0, symName: __ZNKSt3__115basic_streambufIcNS_11char_traitsIcEEE5egptrB8ne180100Ev, symObjAddr: 0x2A64, symBinAddr: 0x100005EF8, symSize: 0x18 }
  - { offset: 0x845D, size: 0x8, addend: 0x0, symName: __ZNSt3__117basic_string_viewIcNS_11char_traitsIcEEEC1B8ne180100Ev, symObjAddr: 0x2A7C, symBinAddr: 0x100005F10, symSize: 0x2C }
  - { offset: 0x8485, size: 0x8, addend: 0x0, symName: __ZNSt3__117basic_string_viewIcNS_11char_traitsIcEEEC2B8ne180100IPcS5_EET_T0_, symObjAddr: 0x2AA8, symBinAddr: 0x100005F3C, symSize: 0x50 }
  - { offset: 0x84DE, size: 0x8, addend: 0x0, symName: __ZNSt3__117basic_string_viewIcNS_11char_traitsIcEEEC2B8ne180100Ev, symObjAddr: 0x2B30, symBinAddr: 0x100005FC4, symSize: 0x1C }
  - { offset: 0x8506, size: 0x8, addend: 0x0, symName: __ZNSt3__112basic_stringIcNS_11char_traitsIcEENS_9allocatorIcEEEC2INS_17basic_string_viewIcS2_EELi0EEERKT_RKS4_, symObjAddr: 0x2B4C, symBinAddr: 0x100005FE0, symSize: 0x74 }
  - { offset: 0x8579, size: 0x8, addend: 0x0, symName: __ZNSt3__117__compressed_pairINS_12basic_stringIcNS_11char_traitsIcEENS_9allocatorIcEEE5__repES5_EC1B8ne180100INS_18__default_init_tagERKS5_EEOT_OT0_, symObjAddr: 0x2BC0, symBinAddr: 0x100006054, symSize: 0x3C }
  - { offset: 0x85CF, size: 0x8, addend: 0x0, symName: __ZNSt3__117__compressed_pairINS_12basic_stringIcNS_11char_traitsIcEENS_9allocatorIcEEE5__repES5_EC2B8ne180100INS_18__default_init_tagERKS5_EEOT_OT0_, symObjAddr: 0x2BFC, symBinAddr: 0x100006090, symSize: 0x40 }
  - { offset: 0x8626, size: 0x8, addend: 0x0, symName: __ZNSt3__122__compressed_pair_elemINS_9allocatorIcEELi1ELb1EEC2B8ne180100IRKS2_vEEOT_, symObjAddr: 0x2C3C, symBinAddr: 0x1000060D0, symSize: 0x18 }
  - { offset: 0x8666, size: 0x8, addend: 0x0, symName: __ZNKSt3__112basic_stringIcNS_11char_traitsIcEENS_9allocatorIcEEE7__allocB8ne180100Ev, symObjAddr: 0x2C54, symBinAddr: 0x1000060E8, symSize: 0x24 }
  - { offset: 0x868A, size: 0x8, addend: 0x0, symName: __ZNKSt3__117__compressed_pairINS_12basic_stringIcNS_11char_traitsIcEENS_9allocatorIcEEE5__repES5_E6secondB8ne180100Ev, symObjAddr: 0x2C78, symBinAddr: 0x10000610C, symSize: 0x24 }
  - { offset: 0x86AF, size: 0x8, addend: 0x0, symName: __ZNKSt3__122__compressed_pair_elemINS_9allocatorIcEELi1ELb1EE5__getB8ne180100Ev, symObjAddr: 0x2C9C, symBinAddr: 0x100006130, symSize: 0x14 }
  - { offset: 0x86D4, size: 0x8, addend: 0x0, symName: __ZNSt3__119basic_ostringstreamIcNS_11char_traitsIcEENS_9allocatorIcEEED2Ev, symObjAddr: 0x2CB0, symBinAddr: 0x100006144, symSize: 0x64 }
  - { offset: 0x870C, size: 0x8, addend: 0x0, symName: __ZTv0_n24_NSt3__119basic_ostringstreamIcNS_11char_traitsIcEENS_9allocatorIcEEED1Ev, symObjAddr: 0x2D14, symBinAddr: 0x1000061A8, symSize: 0x28 }
  - { offset: 0x8728, size: 0x8, addend: 0x0, symName: __ZNSt3__115basic_stringbufIcNS_11char_traitsIcEENS_9allocatorIcEEED1Ev, symObjAddr: 0x2D3C, symBinAddr: 0x1000061D0, symSize: 0x2C }
  - { offset: 0x8754, size: 0x8, addend: 0x0, symName: __ZNSt3__115basic_stringbufIcNS_11char_traitsIcEENS_9allocatorIcEEED2Ev, symObjAddr: 0x2D68, symBinAddr: 0x1000061FC, symSize: 0x48 }
  - { offset: 0x877F, size: 0x8, addend: 0x0, symName: __ZN3cse16_assert_internal10AssertArgsC2EbPKc, symObjAddr: 0x2DB0, symBinAddr: 0x100006244, symSize: 0x50 }
  - { offset: 0x87C8, size: 0x8, addend: 0x0, symName: __ZNSt3__18optionalIPKcEC1B8ne180100IRS2_Li0EEEOT_, symObjAddr: 0x2E00, symBinAddr: 0x100006294, symSize: 0x34 }
  - { offset: 0x880E, size: 0x8, addend: 0x0, symName: __ZNSt3__18optionalIPKcEC2B8ne180100IRS2_Li0EEEOT_, symObjAddr: 0x2E34, symBinAddr: 0x1000062C8, symSize: 0x34 }
  - { offset: 0x885A, size: 0x8, addend: 0x0, symName: __ZNSt3__127__optional_move_assign_baseIPKcLb1EECI2NS_24__optional_destruct_baseIS2_Lb1EEEIJRS2_EEENS_10in_place_tEDpOT_, symObjAddr: 0x2E68, symBinAddr: 0x1000062FC, symSize: 0x34 }
  - { offset: 0x889D, size: 0x8, addend: 0x0, symName: __ZNSt3__127__optional_copy_assign_baseIPKcLb1EECI2NS_24__optional_destruct_baseIS2_Lb1EEEIJRS2_EEENS_10in_place_tEDpOT_, symObjAddr: 0x2E9C, symBinAddr: 0x100006330, symSize: 0x34 }
  - { offset: 0x88E0, size: 0x8, addend: 0x0, symName: __ZNSt3__120__optional_move_baseIPKcLb1EECI2NS_24__optional_destruct_baseIS2_Lb1EEEIJRS2_EEENS_10in_place_tEDpOT_, symObjAddr: 0x2ED0, symBinAddr: 0x100006364, symSize: 0x34 }
  - { offset: 0x8923, size: 0x8, addend: 0x0, symName: __ZNSt3__120__optional_copy_baseIPKcLb1EECI2NS_24__optional_destruct_baseIS2_Lb1EEEIJRS2_EEENS_10in_place_tEDpOT_, symObjAddr: 0x2F04, symBinAddr: 0x100006398, symSize: 0x34 }
  - { offset: 0x8961, size: 0x8, addend: 0x0, symName: __ZNSt3__123__optional_storage_baseIPKcLb0EECI2NS_24__optional_destruct_baseIS2_Lb1EEEIJRS2_EEENS_10in_place_tEDpOT_, symObjAddr: 0x2F38, symBinAddr: 0x1000063CC, symSize: 0x34 }
  - { offset: 0x899F, size: 0x8, addend: 0x0, symName: __ZNSt3__124__optional_destruct_baseIPKcLb1EEC2B8ne180100IJRS2_EEENS_10in_place_tEDpOT_, symObjAddr: 0x2F6C, symBinAddr: 0x100006400, symSize: 0x2C }
  - { offset: 0x89EE, size: 0x8, addend: 0x0, symName: __ZNSt3__112basic_stringIcNS_11char_traitsIcEENS_9allocatorIcEEE13__fits_in_ssoB8ne180100Em, symObjAddr: 0x2F98, symBinAddr: 0x10000642C, symSize: 0x20 }
  - { offset: 0x8A11, size: 0x8, addend: 0x0, symName: __ZNSt3__112basic_stringIcNS_11char_traitsIcEENS_9allocatorIcEEE18__get_long_pointerB8ne180100Ev, symObjAddr: 0x2FB8, symBinAddr: 0x10000644C, symSize: 0x28 }
  - { offset: 0x8A35, size: 0x8, addend: 0x0, symName: __ZNSt3__112basic_stringIcNS_11char_traitsIcEENS_9allocatorIcEEE13__get_pointerB8ne180100Ev, symObjAddr: 0x2FE0, symBinAddr: 0x100006474, symSize: 0x54 }
  - { offset: 0x8A59, size: 0x8, addend: 0x0, symName: __ZNSt3__117__compressed_pairINS_12basic_stringIcNS_11char_traitsIcEENS_9allocatorIcEEE5__repES5_E5firstB8ne180100Ev, symObjAddr: 0x3034, symBinAddr: 0x1000064C8, symSize: 0x24 }
  - { offset: 0x8A7E, size: 0x8, addend: 0x0, symName: __ZNSt3__122__compressed_pair_elemINS_12basic_stringIcNS_11char_traitsIcEENS_9allocatorIcEEE5__repELi0ELb0EE5__getB8ne180100Ev, symObjAddr: 0x3058, symBinAddr: 0x1000064EC, symSize: 0x14 }
  - { offset: 0x8AA2, size: 0x8, addend: 0x0, symName: __ZNSt3__112basic_stringIcNS_11char_traitsIcEENS_9allocatorIcEEE19__get_short_pointerB8ne180100Ev, symObjAddr: 0x306C, symBinAddr: 0x100006500, symSize: 0x28 }
  - { offset: 0x8AC7, size: 0x8, addend: 0x0, symName: __ZNSt3__114pointer_traitsIPcE10pointer_toB8ne180100ERc, symObjAddr: 0x3094, symBinAddr: 0x100006528, symSize: 0x14 }
  - { offset: 0x8AE9, size: 0x8, addend: 0x0, symName: __ZNK3cse6String6substrEmm, symObjAddr: 0x30A8, symBinAddr: 0x10000653C, symSize: 0x138 }
  - { offset: 0x8B29, size: 0x8, addend: 0x0, symName: __ZNKRSt3__112basic_stringIcNS_11char_traitsIcEENS_9allocatorIcEEE6substrB8ne180100Emm, symObjAddr: 0x31E0, symBinAddr: 0x100006674, symSize: 0x68 }
  - { offset: 0x8B6B, size: 0x8, addend: 0x0, symName: __ZNSt3__19allocatorIcEC1B8ne180100Ev, symObjAddr: 0x3248, symBinAddr: 0x1000066DC, symSize: 0x2C }
  - { offset: 0x8B93, size: 0x8, addend: 0x0, symName: __ZN3cse6String6insertEmRKS0_, symObjAddr: 0x3274, symBinAddr: 0x100006708, symSize: 0xFC }
  - { offset: 0x8BD3, size: 0x8, addend: 0x0, symName: __ZNSt3__112basic_stringIcNS_11char_traitsIcEENS_9allocatorIcEEE6insertIN3cse6StringELi0EEERS5_mRKT_, symObjAddr: 0x3370, symBinAddr: 0x100006804, symSize: 0x78 }
  - { offset: 0x8C33, size: 0x8, addend: 0x0, symName: __ZN3cse6String5eraseEmm, symObjAddr: 0x33E8, symBinAddr: 0x10000687C, symSize: 0xFC }
  - { offset: 0x8C73, size: 0x8, addend: 0x0, symName: __ZN3cse6String7replaceEmmRKS0_, symObjAddr: 0x34E4, symBinAddr: 0x100006978, symSize: 0x104 }
  - { offset: 0x8CC1, size: 0x8, addend: 0x0, symName: __ZNSt3__112basic_stringIcNS_11char_traitsIcEENS_9allocatorIcEEE7replaceIN3cse6StringELi0EEERS5_mmRKT_, symObjAddr: 0x35E8, symBinAddr: 0x100006A7C, symSize: 0x88 }
  - { offset: 0x8D4F, size: 0x8, addend: 0x0, symName: __ZNKSt3__113basic_ostreamIcNS_11char_traitsIcEEE6sentrycvbB8ne180100Ev, symObjAddr: 0x385C, symBinAddr: 0x100006CF0, symSize: 0x1C }
  - { offset: 0x8D73, size: 0x8, addend: 0x0, symName: __ZNSt3__119ostreambuf_iteratorIcNS_11char_traitsIcEEEC1B8ne180100ERNS_13basic_ostreamIcS2_EE, symObjAddr: 0x3AB8, symBinAddr: 0x100006F4C, symSize: 0x34 }
  - { offset: 0x8DAA, size: 0x8, addend: 0x0, symName: __ZNKSt3__18ios_base5flagsB8ne180100Ev, symObjAddr: 0x3AEC, symBinAddr: 0x100006F80, symSize: 0x18 }
  - { offset: 0x8DD1, size: 0x8, addend: 0x0, symName: __ZNKSt3__19basic_iosIcNS_11char_traitsIcEEE4fillB8ne180100Ev, symObjAddr: 0x3B04, symBinAddr: 0x100006F98, symSize: 0x64 }
  - { offset: 0x8DF8, size: 0x8, addend: 0x0, symName: __ZNKSt3__119ostreambuf_iteratorIcNS_11char_traitsIcEEE6failedB8ne180100Ev, symObjAddr: 0x3B68, symBinAddr: 0x100006FFC, symSize: 0x24 }
  - { offset: 0x8E1C, size: 0x8, addend: 0x0, symName: __ZNSt3__19basic_iosIcNS_11char_traitsIcEEE8setstateB8ne180100Ej, symObjAddr: 0x3B8C, symBinAddr: 0x100007020, symSize: 0x2C }
  - { offset: 0x8E50, size: 0x8, addend: 0x0, symName: __ZNKSt3__18ios_base5widthB8ne180100Ev, symObjAddr: 0x3BB8, symBinAddr: 0x10000704C, symSize: 0x18 }
  - { offset: 0x8E76, size: 0x8, addend: 0x0, symName: __ZNSt3__115basic_streambufIcNS_11char_traitsIcEEE5sputnB8ne180100EPKcl, symObjAddr: 0x3BD0, symBinAddr: 0x100007064, symSize: 0x3C }
  - { offset: 0x8EB6, size: 0x8, addend: 0x0, symName: __ZNSt3__112basic_stringIcNS_11char_traitsIcEENS_9allocatorIcEEEC1B8ne180100Emc, symObjAddr: 0x3C0C, symBinAddr: 0x1000070A0, symSize: 0x3C }
  - { offset: 0x8EFC, size: 0x8, addend: 0x0, symName: __ZNSt3__112basic_stringIcNS_11char_traitsIcEENS_9allocatorIcEEE4dataB8ne180100Ev, symObjAddr: 0x3C48, symBinAddr: 0x1000070DC, symSize: 0x28 }
  - { offset: 0x8F21, size: 0x8, addend: 0x0, symName: __ZNSt3__18ios_base5widthB8ne180100El, symObjAddr: 0x3C70, symBinAddr: 0x100007104, symSize: 0x2C }
  - { offset: 0x8F65, size: 0x8, addend: 0x0, symName: __ZNSt3__112basic_stringIcNS_11char_traitsIcEENS_9allocatorIcEEEC2B8ne180100Emc, symObjAddr: 0x3C9C, symBinAddr: 0x100007130, symSize: 0x4C }
  - { offset: 0x8FAB, size: 0x8, addend: 0x0, symName: __ZNSt3__119ostreambuf_iteratorIcNS_11char_traitsIcEEEC2B8ne180100ERNS_13basic_ostreamIcS2_EE, symObjAddr: 0x3CE8, symBinAddr: 0x10000717C, symSize: 0x54 }
  - { offset: 0x8FE2, size: 0x8, addend: 0x0, symName: __ZNKSt3__19basic_iosIcNS_11char_traitsIcEEE5rdbufB8ne180100Ev, symObjAddr: 0x3D3C, symBinAddr: 0x1000071D0, symSize: 0x24 }
  - { offset: 0x9009, size: 0x8, addend: 0x0, symName: __ZNKSt3__18ios_base5rdbufB8ne180100Ev, symObjAddr: 0x3D60, symBinAddr: 0x1000071F4, symSize: 0x18 }
  - { offset: 0x902E, size: 0x8, addend: 0x0, symName: __ZNSt3__111char_traitsIcE11eq_int_typeB8ne180100Eii, symObjAddr: 0x3D78, symBinAddr: 0x10000720C, symSize: 0x28 }
  - { offset: 0x9061, size: 0x8, addend: 0x0, symName: __ZNSt3__18ios_base8setstateB8ne180100Ej, symObjAddr: 0x3DA0, symBinAddr: 0x100007234, symSize: 0x34 }
...
